Archive member included to satisfy reference by file (symbol)

/home/hcj/UEFIWorkspace/Build/EmulatorX64/DEBUG_GCC5/X64/MdeModulePkg/Application/UiApp/UiApp/OUTPUT/UiApp.lib(FrontPageVfr.obj)
                              (--whole-archive)
/home/hcj/UEFIWorkspace/Build/EmulatorX64/DEBUG_GCC5/X64/MdeModulePkg/Application/UiApp/UiApp/OUTPUT/UiApp.lib(FrontPage.obj)
                              (--whole-archive)
/home/hcj/UEFIWorkspace/Build/EmulatorX64/DEBUG_GCC5/X64/MdeModulePkg/Application/UiApp/UiApp/OUTPUT/UiApp.lib(String.obj)
                              (--whole-archive)
/home/hcj/UEFIWorkspace/Build/EmulatorX64/DEBUG_GCC5/X64/MdeModulePkg/Application/UiApp/UiApp/OUTPUT/UiApp.lib(FrontPageCustomizedUi.obj)
                              (--whole-archive)
/home/hcj/UEFIWorkspace/Build/EmulatorX64/DEBUG_GCC5/X64/MdeModulePkg/Application/UiApp/UiApp/OUTPUT/UiApp.lib(FrontPageCustomizedUiSupport.obj)
                              (--whole-archive)
/home/hcj/UEFIWorkspace/Build/EmulatorX64/DEBUG_GCC5/X64/MdeModulePkg/Application/UiApp/UiApp/OUTPUT/UiApp.lib(AutoGen.obj)
                              (--whole-archive)
/home/hcj/UEFIWorkspace/Build/EmulatorX64/DEBUG_GCC5/X64/MdePkg/Library/RegisterFilterLibNull/RegisterFilterLibNull/OUTPUT/FilterLibNull.lib(RegisterFilterLibNull.obj)
                              (--whole-archive)
/home/hcj/UEFIWorkspace/Build/EmulatorX64/DEBUG_GCC5/X64/MdePkg/Library/BaseDebugPrintErrorLevelLib/BaseDebugPrintErrorLevelLib/OUTPUT/BaseDebugPrintErrorLevelLib.lib(BaseDebugPrintErrorLevelLib.obj)
                              (--whole-archive)
/home/hcj/UEFIWorkspace/Build/EmulatorX64/DEBUG_GCC5/X64/MdePkg/Library/DxePcdLib/DxePcdLib/OUTPUT/DxePcdLib.lib(DxePcdLib.obj)
                              (--whole-archive)
/home/hcj/UEFIWorkspace/Build/EmulatorX64/DEBUG_GCC5/X64/MdePkg/Library/BasePrintLib/BasePrintLib/OUTPUT/BasePrintLib.lib(PrintLibInternal.obj)
                              (--whole-archive)
/home/hcj/UEFIWorkspace/Build/EmulatorX64/DEBUG_GCC5/X64/MdePkg/Library/BasePrintLib/BasePrintLib/OUTPUT/BasePrintLib.lib(PrintLib.obj)
                              (--whole-archive)
/home/hcj/UEFIWorkspace/Build/EmulatorX64/DEBUG_GCC5/X64/MdeModulePkg/Library/PeiDxeDebugLibReportStatusCode/PeiDxeDebugLibReportStatusCode/OUTPUT/PeiDxeDebugLibReportStatusCode.lib(DebugLib.obj)
                              (--whole-archive)
/home/hcj/UEFIWorkspace/Build/EmulatorX64/DEBUG_GCC5/X64/MdePkg/Library/BaseMemoryLib/BaseMemoryLib/OUTPUT/BaseMemoryLib.lib(SetMem.obj)
                              (--whole-archive)
/home/hcj/UEFIWorkspace/Build/EmulatorX64/DEBUG_GCC5/X64/MdePkg/Library/BaseMemoryLib/BaseMemoryLib/OUTPUT/BaseMemoryLib.lib(ScanMem64Wrapper.obj)
                              (--whole-archive)
/home/hcj/UEFIWorkspace/Build/EmulatorX64/DEBUG_GCC5/X64/MdePkg/Library/BaseMemoryLib/BaseMemoryLib/OUTPUT/BaseMemoryLib.lib(ScanMem32Wrapper.obj)
                              (--whole-archive)
/home/hcj/UEFIWorkspace/Build/EmulatorX64/DEBUG_GCC5/X64/MdePkg/Library/BaseMemoryLib/BaseMemoryLib/OUTPUT/BaseMemoryLib.lib(ScanMem16Wrapper.obj)
                              (--whole-archive)
/home/hcj/UEFIWorkspace/Build/EmulatorX64/DEBUG_GCC5/X64/MdePkg/Library/BaseMemoryLib/BaseMemoryLib/OUTPUT/BaseMemoryLib.lib(ScanMem8Wrapper.obj)
                              (--whole-archive)
/home/hcj/UEFIWorkspace/Build/EmulatorX64/DEBUG_GCC5/X64/MdePkg/Library/BaseMemoryLib/BaseMemoryLib/OUTPUT/BaseMemoryLib.lib(ZeroMemWrapper.obj)
                              (--whole-archive)
/home/hcj/UEFIWorkspace/Build/EmulatorX64/DEBUG_GCC5/X64/MdePkg/Library/BaseMemoryLib/BaseMemoryLib/OUTPUT/BaseMemoryLib.lib(CompareMemWrapper.obj)
                              (--whole-archive)
/home/hcj/UEFIWorkspace/Build/EmulatorX64/DEBUG_GCC5/X64/MdePkg/Library/BaseMemoryLib/BaseMemoryLib/OUTPUT/BaseMemoryLib.lib(SetMem64Wrapper.obj)
                              (--whole-archive)
/home/hcj/UEFIWorkspace/Build/EmulatorX64/DEBUG_GCC5/X64/MdePkg/Library/BaseMemoryLib/BaseMemoryLib/OUTPUT/BaseMemoryLib.lib(SetMem32Wrapper.obj)
                              (--whole-archive)
/home/hcj/UEFIWorkspace/Build/EmulatorX64/DEBUG_GCC5/X64/MdePkg/Library/BaseMemoryLib/BaseMemoryLib/OUTPUT/BaseMemoryLib.lib(SetMem16Wrapper.obj)
                              (--whole-archive)
/home/hcj/UEFIWorkspace/Build/EmulatorX64/DEBUG_GCC5/X64/MdePkg/Library/BaseMemoryLib/BaseMemoryLib/OUTPUT/BaseMemoryLib.lib(SetMemWrapper.obj)
                              (--whole-archive)
/home/hcj/UEFIWorkspace/Build/EmulatorX64/DEBUG_GCC5/X64/MdePkg/Library/BaseMemoryLib/BaseMemoryLib/OUTPUT/BaseMemoryLib.lib(CopyMemWrapper.obj)
                              (--whole-archive)
/home/hcj/UEFIWorkspace/Build/EmulatorX64/DEBUG_GCC5/X64/MdePkg/Library/BaseMemoryLib/BaseMemoryLib/OUTPUT/BaseMemoryLib.lib(IsZeroBufferWrapper.obj)
                              (--whole-archive)
/home/hcj/UEFIWorkspace/Build/EmulatorX64/DEBUG_GCC5/X64/MdePkg/Library/BaseMemoryLib/BaseMemoryLib/OUTPUT/BaseMemoryLib.lib(MemLibGeneric.obj)
                              (--whole-archive)
/home/hcj/UEFIWorkspace/Build/EmulatorX64/DEBUG_GCC5/X64/MdePkg/Library/BaseMemoryLib/BaseMemoryLib/OUTPUT/BaseMemoryLib.lib(MemLibGuid.obj)
                              (--whole-archive)
/home/hcj/UEFIWorkspace/Build/EmulatorX64/DEBUG_GCC5/X64/MdePkg/Library/BaseMemoryLib/BaseMemoryLib/OUTPUT/BaseMemoryLib.lib(CopyMem.obj)
                              (--whole-archive)
/home/hcj/UEFIWorkspace/Build/EmulatorX64/DEBUG_GCC5/X64/MdePkg/Library/UefiMemoryAllocationLib/UefiMemoryAllocationLib/OUTPUT/UefiMemoryAllocationLib.lib(MemoryAllocationLib.obj)
                              (--whole-archive)
/home/hcj/UEFIWorkspace/Build/EmulatorX64/DEBUG_GCC5/X64/MdeModulePkg/Library/DxeReportStatusCodeLib/DxeReportStatusCodeLib/OUTPUT/DxeReportStatusCodeLib.lib(ReportStatusCodeLib.obj)
                              (--whole-archive)
/home/hcj/UEFIWorkspace/Build/EmulatorX64/DEBUG_GCC5/X64/MdePkg/Library/BaseLib/BaseLib/OUTPUT/BaseLib.lib(CheckSum.obj)
                              (--whole-archive)
/home/hcj/UEFIWorkspace/Build/EmulatorX64/DEBUG_GCC5/X64/MdePkg/Library/BaseLib/BaseLib/OUTPUT/BaseLib.lib(SwitchStack.obj)
                              (--whole-archive)
/home/hcj/UEFIWorkspace/Build/EmulatorX64/DEBUG_GCC5/X64/MdePkg/Library/BaseLib/BaseLib/OUTPUT/BaseLib.lib(SwapBytes64.obj)
                              (--whole-archive)
/home/hcj/UEFIWorkspace/Build/EmulatorX64/DEBUG_GCC5/X64/MdePkg/Library/BaseLib/BaseLib/OUTPUT/BaseLib.lib(SwapBytes32.obj)
                              (--whole-archive)
/home/hcj/UEFIWorkspace/Build/EmulatorX64/DEBUG_GCC5/X64/MdePkg/Library/BaseLib/BaseLib/OUTPUT/BaseLib.lib(SwapBytes16.obj)
                              (--whole-archive)
/home/hcj/UEFIWorkspace/Build/EmulatorX64/DEBUG_GCC5/X64/MdePkg/Library/BaseLib/BaseLib/OUTPUT/BaseLib.lib(LongJump.obj)
                              (--whole-archive)
/home/hcj/UEFIWorkspace/Build/EmulatorX64/DEBUG_GCC5/X64/MdePkg/Library/BaseLib/BaseLib/OUTPUT/BaseLib.lib(SetJump.obj)
                              (--whole-archive)
/home/hcj/UEFIWorkspace/Build/EmulatorX64/DEBUG_GCC5/X64/MdePkg/Library/BaseLib/BaseLib/OUTPUT/BaseLib.lib(QuickSort.obj)
                              (--whole-archive)
/home/hcj/UEFIWorkspace/Build/EmulatorX64/DEBUG_GCC5/X64/MdePkg/Library/BaseLib/BaseLib/OUTPUT/BaseLib.lib(RShiftU64.obj)
                              (--whole-archive)
/home/hcj/UEFIWorkspace/Build/EmulatorX64/DEBUG_GCC5/X64/MdePkg/Library/BaseLib/BaseLib/OUTPUT/BaseLib.lib(RRotU64.obj)
                              (--whole-archive)
/home/hcj/UEFIWorkspace/Build/EmulatorX64/DEBUG_GCC5/X64/MdePkg/Library/BaseLib/BaseLib/OUTPUT/BaseLib.lib(RRotU32.obj)
                              (--whole-archive)
/home/hcj/UEFIWorkspace/Build/EmulatorX64/DEBUG_GCC5/X64/MdePkg/Library/BaseLib/BaseLib/OUTPUT/BaseLib.lib(MultU64x64.obj)
                              (--whole-archive)
/home/hcj/UEFIWorkspace/Build/EmulatorX64/DEBUG_GCC5/X64/MdePkg/Library/BaseLib/BaseLib/OUTPUT/BaseLib.lib(MultU64x32.obj)
                              (--whole-archive)
/home/hcj/UEFIWorkspace/Build/EmulatorX64/DEBUG_GCC5/X64/MdePkg/Library/BaseLib/BaseLib/OUTPUT/BaseLib.lib(MultS64x64.obj)
                              (--whole-archive)
/home/hcj/UEFIWorkspace/Build/EmulatorX64/DEBUG_GCC5/X64/MdePkg/Library/BaseLib/BaseLib/OUTPUT/BaseLib.lib(ModU64x32.obj)
                              (--whole-archive)
/home/hcj/UEFIWorkspace/Build/EmulatorX64/DEBUG_GCC5/X64/MdePkg/Library/BaseLib/BaseLib/OUTPUT/BaseLib.lib(LShiftU64.obj)
                              (--whole-archive)
/home/hcj/UEFIWorkspace/Build/EmulatorX64/DEBUG_GCC5/X64/MdePkg/Library/BaseLib/BaseLib/OUTPUT/BaseLib.lib(LRotU64.obj)
                              (--whole-archive)
/home/hcj/UEFIWorkspace/Build/EmulatorX64/DEBUG_GCC5/X64/MdePkg/Library/BaseLib/BaseLib/OUTPUT/BaseLib.lib(LRotU32.obj)
                              (--whole-archive)
/home/hcj/UEFIWorkspace/Build/EmulatorX64/DEBUG_GCC5/X64/MdePkg/Library/BaseLib/BaseLib/OUTPUT/BaseLib.lib(LowBitSet64.obj)
                              (--whole-archive)
/home/hcj/UEFIWorkspace/Build/EmulatorX64/DEBUG_GCC5/X64/MdePkg/Library/BaseLib/BaseLib/OUTPUT/BaseLib.lib(LowBitSet32.obj)
                              (--whole-archive)
/home/hcj/UEFIWorkspace/Build/EmulatorX64/DEBUG_GCC5/X64/MdePkg/Library/BaseLib/BaseLib/OUTPUT/BaseLib.lib(HighBitSet64.obj)
                              (--whole-archive)
/home/hcj/UEFIWorkspace/Build/EmulatorX64/DEBUG_GCC5/X64/MdePkg/Library/BaseLib/BaseLib/OUTPUT/BaseLib.lib(HighBitSet32.obj)
                              (--whole-archive)
/home/hcj/UEFIWorkspace/Build/EmulatorX64/DEBUG_GCC5/X64/MdePkg/Library/BaseLib/BaseLib/OUTPUT/BaseLib.lib(GetPowerOfTwo64.obj)
                              (--whole-archive)
/home/hcj/UEFIWorkspace/Build/EmulatorX64/DEBUG_GCC5/X64/MdePkg/Library/BaseLib/BaseLib/OUTPUT/BaseLib.lib(GetPowerOfTwo32.obj)
                              (--whole-archive)
/home/hcj/UEFIWorkspace/Build/EmulatorX64/DEBUG_GCC5/X64/MdePkg/Library/BaseLib/BaseLib/OUTPUT/BaseLib.lib(DivU64x64Remainder.obj)
                              (--whole-archive)
/home/hcj/UEFIWorkspace/Build/EmulatorX64/DEBUG_GCC5/X64/MdePkg/Library/BaseLib/BaseLib/OUTPUT/BaseLib.lib(DivU64x32Remainder.obj)
                              (--whole-archive)
/home/hcj/UEFIWorkspace/Build/EmulatorX64/DEBUG_GCC5/X64/MdePkg/Library/BaseLib/BaseLib/OUTPUT/BaseLib.lib(DivU64x32.obj)
                              (--whole-archive)
/home/hcj/UEFIWorkspace/Build/EmulatorX64/DEBUG_GCC5/X64/MdePkg/Library/BaseLib/BaseLib/OUTPUT/BaseLib.lib(DivS64x64Remainder.obj)
                              (--whole-archive)
/home/hcj/UEFIWorkspace/Build/EmulatorX64/DEBUG_GCC5/X64/MdePkg/Library/BaseLib/BaseLib/OUTPUT/BaseLib.lib(ARShiftU64.obj)
                              (--whole-archive)
/home/hcj/UEFIWorkspace/Build/EmulatorX64/DEBUG_GCC5/X64/MdePkg/Library/BaseLib/BaseLib/OUTPUT/BaseLib.lib(BitField.obj)
                              (--whole-archive)
/home/hcj/UEFIWorkspace/Build/EmulatorX64/DEBUG_GCC5/X64/MdePkg/Library/BaseLib/BaseLib/OUTPUT/BaseLib.lib(CpuDeadLoop.obj)
                              (--whole-archive)
/home/hcj/UEFIWorkspace/Build/EmulatorX64/DEBUG_GCC5/X64/MdePkg/Library/BaseLib/BaseLib/OUTPUT/BaseLib.lib(Cpu.obj)
                              (--whole-archive)
/home/hcj/UEFIWorkspace/Build/EmulatorX64/DEBUG_GCC5/X64/MdePkg/Library/BaseLib/BaseLib/OUTPUT/BaseLib.lib(LinkedList.obj)
                              (--whole-archive)
/home/hcj/UEFIWorkspace/Build/EmulatorX64/DEBUG_GCC5/X64/MdePkg/Library/BaseLib/BaseLib/OUTPUT/BaseLib.lib(SafeString.obj)
                              (--whole-archive)
/home/hcj/UEFIWorkspace/Build/EmulatorX64/DEBUG_GCC5/X64/MdePkg/Library/BaseLib/BaseLib/OUTPUT/BaseLib.lib(String.obj)
                              (--whole-archive)
/home/hcj/UEFIWorkspace/Build/EmulatorX64/DEBUG_GCC5/X64/MdePkg/Library/BaseLib/BaseLib/OUTPUT/BaseLib.lib(FilePaths.obj)
                              (--whole-archive)
/home/hcj/UEFIWorkspace/Build/EmulatorX64/DEBUG_GCC5/X64/MdePkg/Library/BaseLib/BaseLib/OUTPUT/BaseLib.lib(Thunk16.obj)
                              (--whole-archive)
/home/hcj/UEFIWorkspace/Build/EmulatorX64/DEBUG_GCC5/X64/MdePkg/Library/BaseLib/BaseLib/OUTPUT/BaseLib.lib(CpuIdEx.obj)
                              (--whole-archive)
/home/hcj/UEFIWorkspace/Build/EmulatorX64/DEBUG_GCC5/X64/MdePkg/Library/BaseLib/BaseLib/OUTPUT/BaseLib.lib(CpuId.obj)
                              (--whole-archive)
/home/hcj/UEFIWorkspace/Build/EmulatorX64/DEBUG_GCC5/X64/MdePkg/Library/BaseLib/BaseLib/OUTPUT/BaseLib.lib(LongJump.obj)
                              (--whole-archive)
/home/hcj/UEFIWorkspace/Build/EmulatorX64/DEBUG_GCC5/X64/MdePkg/Library/BaseLib/BaseLib/OUTPUT/BaseLib.lib(SetJump.obj)
                              (--whole-archive)
/home/hcj/UEFIWorkspace/Build/EmulatorX64/DEBUG_GCC5/X64/MdePkg/Library/BaseLib/BaseLib/OUTPUT/BaseLib.lib(SwitchStack.obj)
                              (--whole-archive)
/home/hcj/UEFIWorkspace/Build/EmulatorX64/DEBUG_GCC5/X64/MdePkg/Library/BaseLib/BaseLib/OUTPUT/BaseLib.lib(EnableCache.obj)
                              (--whole-archive)
/home/hcj/UEFIWorkspace/Build/EmulatorX64/DEBUG_GCC5/X64/MdePkg/Library/BaseLib/BaseLib/OUTPUT/BaseLib.lib(DisableCache.obj)
                              (--whole-archive)
/home/hcj/UEFIWorkspace/Build/EmulatorX64/DEBUG_GCC5/X64/MdePkg/Library/BaseLib/BaseLib/OUTPUT/BaseLib.lib(WriteTr.obj)
                              (--whole-archive)
/home/hcj/UEFIWorkspace/Build/EmulatorX64/DEBUG_GCC5/X64/MdePkg/Library/BaseLib/BaseLib/OUTPUT/BaseLib.lib(Lfence.obj)
                              (--whole-archive)
/home/hcj/UEFIWorkspace/Build/EmulatorX64/DEBUG_GCC5/X64/MdePkg/Library/BaseLib/BaseLib/OUTPUT/BaseLib.lib(Non-existing.obj)
                              (--whole-archive)
/home/hcj/UEFIWorkspace/Build/EmulatorX64/DEBUG_GCC5/X64/MdePkg/Library/BaseLib/BaseLib/OUTPUT/BaseLib.lib(Math64.obj)
                              (--whole-archive)
/home/hcj/UEFIWorkspace/Build/EmulatorX64/DEBUG_GCC5/X64/MdePkg/Library/BaseLib/BaseLib/OUTPUT/BaseLib.lib(Unaligned.obj)
                              (--whole-archive)
/home/hcj/UEFIWorkspace/Build/EmulatorX64/DEBUG_GCC5/X64/MdePkg/Library/BaseLib/BaseLib/OUTPUT/BaseLib.lib(X86WriteIdtr.obj)
                              (--whole-archive)
/home/hcj/UEFIWorkspace/Build/EmulatorX64/DEBUG_GCC5/X64/MdePkg/Library/BaseLib/BaseLib/OUTPUT/BaseLib.lib(X86WriteGdtr.obj)
                              (--whole-archive)
/home/hcj/UEFIWorkspace/Build/EmulatorX64/DEBUG_GCC5/X64/MdePkg/Library/BaseLib/BaseLib/OUTPUT/BaseLib.lib(X86Thunk.obj)
                              (--whole-archive)
/home/hcj/UEFIWorkspace/Build/EmulatorX64/DEBUG_GCC5/X64/MdePkg/Library/BaseLib/BaseLib/OUTPUT/BaseLib.lib(X86ReadIdtr.obj)
                              (--whole-archive)
/home/hcj/UEFIWorkspace/Build/EmulatorX64/DEBUG_GCC5/X64/MdePkg/Library/BaseLib/BaseLib/OUTPUT/BaseLib.lib(X86ReadGdtr.obj)
                              (--whole-archive)
/home/hcj/UEFIWorkspace/Build/EmulatorX64/DEBUG_GCC5/X64/MdePkg/Library/BaseLib/BaseLib/OUTPUT/BaseLib.lib(X86Msr.obj)
                              (--whole-archive)
/home/hcj/UEFIWorkspace/Build/EmulatorX64/DEBUG_GCC5/X64/MdePkg/Library/BaseLib/BaseLib/OUTPUT/BaseLib.lib(X86GetInterruptState.obj)
                              (--whole-archive)
/home/hcj/UEFIWorkspace/Build/EmulatorX64/DEBUG_GCC5/X64/MdePkg/Library/BaseLib/BaseLib/OUTPUT/BaseLib.lib(X86FxSave.obj)
                              (--whole-archive)
/home/hcj/UEFIWorkspace/Build/EmulatorX64/DEBUG_GCC5/X64/MdePkg/Library/BaseLib/BaseLib/OUTPUT/BaseLib.lib(X86FxRestore.obj)
                              (--whole-archive)
/home/hcj/UEFIWorkspace/Build/EmulatorX64/DEBUG_GCC5/X64/MdePkg/Library/BaseLib/BaseLib/OUTPUT/BaseLib.lib(X86EnablePaging64.obj)
                              (--whole-archive)
/home/hcj/UEFIWorkspace/Build/EmulatorX64/DEBUG_GCC5/X64/MdePkg/Library/BaseLib/BaseLib/OUTPUT/BaseLib.lib(X86EnablePaging32.obj)
                              (--whole-archive)
/home/hcj/UEFIWorkspace/Build/EmulatorX64/DEBUG_GCC5/X64/MdePkg/Library/BaseLib/BaseLib/OUTPUT/BaseLib.lib(X86DisablePaging64.obj)
                              (--whole-archive)
/home/hcj/UEFIWorkspace/Build/EmulatorX64/DEBUG_GCC5/X64/MdePkg/Library/BaseLib/BaseLib/OUTPUT/BaseLib.lib(X86DisablePaging32.obj)
                              (--whole-archive)
/home/hcj/UEFIWorkspace/Build/EmulatorX64/DEBUG_GCC5/X64/MdePkg/Library/BaseLib/BaseLib/OUTPUT/BaseLib.lib(X86RdRand.obj)
                              (--whole-archive)
/home/hcj/UEFIWorkspace/Build/EmulatorX64/DEBUG_GCC5/X64/MdePkg/Library/BaseLib/BaseLib/OUTPUT/BaseLib.lib(X86PatchInstruction.obj)
                              (--whole-archive)
/home/hcj/UEFIWorkspace/Build/EmulatorX64/DEBUG_GCC5/X64/MdePkg/Library/BaseLib/BaseLib/OUTPUT/BaseLib.lib(X86SpeculationBarrier.obj)
                              (--whole-archive)
/home/hcj/UEFIWorkspace/Build/EmulatorX64/DEBUG_GCC5/X64/MdePkg/Library/BaseLib/BaseLib/OUTPUT/BaseLib.lib(GccInline.obj)
                              (--whole-archive)
/home/hcj/UEFIWorkspace/Build/EmulatorX64/DEBUG_GCC5/X64/MdePkg/Library/BaseLib/BaseLib/OUTPUT/BaseLib.lib(GccInlinePriv.obj)
                              (--whole-archive)
/home/hcj/UEFIWorkspace/Build/EmulatorX64/DEBUG_GCC5/X64/MdePkg/Library/BaseLib/BaseLib/OUTPUT/BaseLib.lib(EnableDisableInterrupts.obj)
                              (--whole-archive)
/home/hcj/UEFIWorkspace/Build/EmulatorX64/DEBUG_GCC5/X64/MdePkg/Library/BaseLib/BaseLib/OUTPUT/BaseLib.lib(DisablePaging64.obj)
                              (--whole-archive)
/home/hcj/UEFIWorkspace/Build/EmulatorX64/DEBUG_GCC5/X64/MdePkg/Library/BaseLib/BaseLib/OUTPUT/BaseLib.lib(Pvalidate.obj)
                              (--whole-archive)
/home/hcj/UEFIWorkspace/Build/EmulatorX64/DEBUG_GCC5/X64/MdePkg/Library/BaseLib/BaseLib/OUTPUT/BaseLib.lib(RdRand.obj)
                              (--whole-archive)
/home/hcj/UEFIWorkspace/Build/EmulatorX64/DEBUG_GCC5/X64/MdePkg/Library/BaseLib/BaseLib/OUTPUT/BaseLib.lib(RmpAdjust.obj)
                              (--whole-archive)
/home/hcj/UEFIWorkspace/Build/EmulatorX64/DEBUG_GCC5/X64/MdePkg/Library/BaseLib/BaseLib/OUTPUT/BaseLib.lib(XGetBv.obj)
                              (--whole-archive)
/home/hcj/UEFIWorkspace/Build/EmulatorX64/DEBUG_GCC5/X64/MdePkg/Library/BaseLib/BaseLib/OUTPUT/BaseLib.lib(XSetBv.obj)
                              (--whole-archive)
/home/hcj/UEFIWorkspace/Build/EmulatorX64/DEBUG_GCC5/X64/MdePkg/Library/BaseLib/BaseLib/OUTPUT/BaseLib.lib(VmgExit.obj)
                              (--whole-archive)
/home/hcj/UEFIWorkspace/Build/EmulatorX64/DEBUG_GCC5/X64/MdePkg/Library/BaseLib/BaseLib/OUTPUT/BaseLib.lib(ChkStkGcc.obj)
                              (--whole-archive)
/home/hcj/UEFIWorkspace/Build/EmulatorX64/DEBUG_GCC5/X64/MdePkg/Library/UefiDevicePathLib/UefiDevicePathLib/OUTPUT/UefiDevicePathLib.lib(DevicePathUtilities.obj)
                              (--whole-archive)
/home/hcj/UEFIWorkspace/Build/EmulatorX64/DEBUG_GCC5/X64/MdePkg/Library/UefiDevicePathLib/UefiDevicePathLib/OUTPUT/UefiDevicePathLib.lib(DevicePathUtilitiesDxeSmm.obj)
                              (--whole-archive)
/home/hcj/UEFIWorkspace/Build/EmulatorX64/DEBUG_GCC5/X64/MdePkg/Library/UefiDevicePathLib/UefiDevicePathLib/OUTPUT/UefiDevicePathLib.lib(DevicePathToText.obj)
                              (--whole-archive)
/home/hcj/UEFIWorkspace/Build/EmulatorX64/DEBUG_GCC5/X64/MdePkg/Library/UefiDevicePathLib/UefiDevicePathLib/OUTPUT/UefiDevicePathLib.lib(DevicePathFromText.obj)
                              (--whole-archive)
/home/hcj/UEFIWorkspace/Build/EmulatorX64/DEBUG_GCC5/X64/MdePkg/Library/UefiDevicePathLib/UefiDevicePathLib/OUTPUT/UefiDevicePathLib.lib(UefiDevicePathLib.obj)
                              (--whole-archive)
/home/hcj/UEFIWorkspace/Build/EmulatorX64/DEBUG_GCC5/X64/MdePkg/Library/UefiBootServicesTableLib/UefiBootServicesTableLib/OUTPUT/UefiBootServicesTableLib.lib(UefiBootServicesTableLib.obj)
                              (--whole-archive)
/home/hcj/UEFIWorkspace/Build/EmulatorX64/DEBUG_GCC5/X64/MdePkg/Library/UefiRuntimeServicesTableLib/UefiRuntimeServicesTableLib/OUTPUT/UefiRuntimeServicesTableLib.lib(UefiRuntimeServicesTableLib.obj)
                              (--whole-archive)
/home/hcj/UEFIWorkspace/Build/EmulatorX64/DEBUG_GCC5/X64/MdePkg/Library/UefiLib/UefiLib/OUTPUT/UefiLib.lib(UefiLibPrint.obj)
                              (--whole-archive)
/home/hcj/UEFIWorkspace/Build/EmulatorX64/DEBUG_GCC5/X64/MdePkg/Library/UefiLib/UefiLib/OUTPUT/UefiLib.lib(UefiNotTiano.obj)
                              (--whole-archive)
/home/hcj/UEFIWorkspace/Build/EmulatorX64/DEBUG_GCC5/X64/MdePkg/Library/UefiLib/UefiLib/OUTPUT/UefiLib.lib(UefiDriverModel.obj)
                              (--whole-archive)
/home/hcj/UEFIWorkspace/Build/EmulatorX64/DEBUG_GCC5/X64/MdePkg/Library/UefiLib/UefiLib/OUTPUT/UefiLib.lib(Console.obj)
                              (--whole-archive)
/home/hcj/UEFIWorkspace/Build/EmulatorX64/DEBUG_GCC5/X64/MdePkg/Library/UefiLib/UefiLib/OUTPUT/UefiLib.lib(UefiLib.obj)
                              (--whole-archive)
/home/hcj/UEFIWorkspace/Build/EmulatorX64/DEBUG_GCC5/X64/MdePkg/Library/UefiLib/UefiLib/OUTPUT/UefiLib.lib(Acpi.obj)
                              (--whole-archive)
/home/hcj/UEFIWorkspace/Build/EmulatorX64/DEBUG_GCC5/X64/MdePkg/Library/DxeHobLib/DxeHobLib/OUTPUT/DxeHobLib.lib(HobLib.obj)
                              (--whole-archive)
/home/hcj/UEFIWorkspace/Build/EmulatorX64/DEBUG_GCC5/X64/MdeModulePkg/Library/UefiHiiServicesLib/UefiHiiServicesLib/OUTPUT/UefiHiiServicesLib.lib(UefiHiiServicesLib.obj)
                              (--whole-archive)
/home/hcj/UEFIWorkspace/Build/EmulatorX64/DEBUG_GCC5/X64/MdeModulePkg/Library/BaseSortLib/BaseSortLib/OUTPUT/BaseSortLib.lib(BaseSortLib.obj)
                              (--whole-archive)
/home/hcj/UEFIWorkspace/Build/EmulatorX64/DEBUG_GCC5/X64/MdePkg/Library/DxeServicesLib/DxeServicesLib/OUTPUT/DxeServicesLib.lib(DxeServicesLib.obj)
                              (--whole-archive)
/home/hcj/UEFIWorkspace/Build/EmulatorX64/DEBUG_GCC5/X64/MdePkg/Library/DxeServicesLib/DxeServicesLib/OUTPUT/DxeServicesLib.lib(Allocate.obj)
                              (--whole-archive)
/home/hcj/UEFIWorkspace/Build/EmulatorX64/DEBUG_GCC5/X64/MdePkg/Library/DxeServicesTableLib/DxeServicesTableLib/OUTPUT/DxeServicesTableLib.lib(DxeServicesTableLib.obj)
                              (--whole-archive)
/home/hcj/UEFIWorkspace/Build/EmulatorX64/DEBUG_GCC5/X64/MdePkg/Library/BasePeCoffGetEntryPointLib/BasePeCoffGetEntryPointLib/OUTPUT/BasePeCoffGetEntryPointLib.lib(PeCoffGetEntryPoint.obj)
                              (--whole-archive)
/home/hcj/UEFIWorkspace/Build/EmulatorX64/DEBUG_GCC5/X64/MdePkg/Library/BasePerformanceLibNull/BasePerformanceLibNull/OUTPUT/BasePerformanceLibNull.lib(PerformanceLib.obj)
                              (--whole-archive)
/home/hcj/UEFIWorkspace/Build/EmulatorX64/DEBUG_GCC5/X64/MdeModulePkg/Library/UefiHiiLib/UefiHiiLib/OUTPUT/UefiHiiLib.lib(HiiLib.obj)
                              (--whole-archive)
/home/hcj/UEFIWorkspace/Build/EmulatorX64/DEBUG_GCC5/X64/MdeModulePkg/Library/UefiHiiLib/UefiHiiLib/OUTPUT/UefiHiiLib.lib(HiiString.obj)
                              (--whole-archive)
/home/hcj/UEFIWorkspace/Build/EmulatorX64/DEBUG_GCC5/X64/MdeModulePkg/Library/UefiHiiLib/UefiHiiLib/OUTPUT/UefiHiiLib.lib(HiiLanguage.obj)
                              (--whole-archive)
/home/hcj/UEFIWorkspace/Build/EmulatorX64/DEBUG_GCC5/X64/MdeModulePkg/Library/UefiBootManagerLib/UefiBootManagerLib/OUTPUT/UefiBootManagerLib.lib(BmConnect.obj)
                              (--whole-archive)
/home/hcj/UEFIWorkspace/Build/EmulatorX64/DEBUG_GCC5/X64/MdeModulePkg/Library/UefiBootManagerLib/UefiBootManagerLib/OUTPUT/UefiBootManagerLib.lib(BmMisc.obj)
                              (--whole-archive)
/home/hcj/UEFIWorkspace/Build/EmulatorX64/DEBUG_GCC5/X64/MdeModulePkg/Library/UefiBootManagerLib/UefiBootManagerLib/OUTPUT/UefiBootManagerLib.lib(BmConsole.obj)
                              (--whole-archive)
/home/hcj/UEFIWorkspace/Build/EmulatorX64/DEBUG_GCC5/X64/MdeModulePkg/Library/UefiBootManagerLib/UefiBootManagerLib/OUTPUT/UefiBootManagerLib.lib(BmBoot.obj)
                              (--whole-archive)
/home/hcj/UEFIWorkspace/Build/EmulatorX64/DEBUG_GCC5/X64/MdeModulePkg/Library/UefiBootManagerLib/UefiBootManagerLib/OUTPUT/UefiBootManagerLib.lib(BmBootDescription.obj)
                              (--whole-archive)
/home/hcj/UEFIWorkspace/Build/EmulatorX64/DEBUG_GCC5/X64/MdeModulePkg/Library/UefiBootManagerLib/UefiBootManagerLib/OUTPUT/UefiBootManagerLib.lib(BmLoadOption.obj)
                              (--whole-archive)
/home/hcj/UEFIWorkspace/Build/EmulatorX64/DEBUG_GCC5/X64/MdeModulePkg/Library/UefiBootManagerLib/UefiBootManagerLib/OUTPUT/UefiBootManagerLib.lib(BmHotkey.obj)
                              (--whole-archive)
/home/hcj/UEFIWorkspace/Build/EmulatorX64/DEBUG_GCC5/X64/MdeModulePkg/Library/UefiBootManagerLib/UefiBootManagerLib/OUTPUT/UefiBootManagerLib.lib(BmDriverHealth.obj)
                              (--whole-archive)
/home/hcj/UEFIWorkspace/Build/EmulatorX64/DEBUG_GCC5/X64/MdeModulePkg/Library/FileExplorerLib/FileExplorerLib/OUTPUT/FileExplorerLib.lib(FileExplorerVfr.obj)
                              (--whole-archive)
/home/hcj/UEFIWorkspace/Build/EmulatorX64/DEBUG_GCC5/X64/MdeModulePkg/Library/FileExplorerLib/FileExplorerLib/OUTPUT/FileExplorerLib.lib(FileExplorer.obj)
                              (--whole-archive)
/home/hcj/UEFIWorkspace/Build/EmulatorX64/DEBUG_GCC5/X64/MdeModulePkg/Library/FileExplorerLib/FileExplorerLib/OUTPUT/FileExplorerLib.lib(AutoGen.obj)
                              (--whole-archive)
/home/hcj/UEFIWorkspace/Build/EmulatorX64/DEBUG_GCC5/X64/MdePkg/Library/UefiApplicationEntryPoint/UefiApplicationEntryPoint/OUTPUT/UefiApplicationEntryPoint.lib(ApplicationEntryPoint.obj)
                              (--whole-archive)
/home/hcj/UEFIWorkspace/Build/EmulatorX64/DEBUG_GCC5/X64/MdeModulePkg/Library/DeviceManagerUiLib/DeviceManagerUiLib/OUTPUT/DeviceManagerUiLib.lib(DeviceManagerVfr.obj)
                              (--whole-archive)
/home/hcj/UEFIWorkspace/Build/EmulatorX64/DEBUG_GCC5/X64/MdeModulePkg/Library/DeviceManagerUiLib/DeviceManagerUiLib/OUTPUT/DeviceManagerUiLib.lib(DeviceManager.obj)
                              (--whole-archive)
/home/hcj/UEFIWorkspace/Build/EmulatorX64/DEBUG_GCC5/X64/MdeModulePkg/Library/DeviceManagerUiLib/DeviceManagerUiLib/OUTPUT/DeviceManagerUiLib.lib(AutoGen.obj)
                              (--whole-archive)
/home/hcj/UEFIWorkspace/Build/EmulatorX64/DEBUG_GCC5/X64/MdeModulePkg/Library/BootManagerUiLib/BootManagerUiLib/OUTPUT/BootManagerUiLib.lib(BootManagerVfr.obj)
                              (--whole-archive)
/home/hcj/UEFIWorkspace/Build/EmulatorX64/DEBUG_GCC5/X64/MdeModulePkg/Library/BootManagerUiLib/BootManagerUiLib/OUTPUT/BootManagerUiLib.lib(BootManager.obj)
                              (--whole-archive)
/home/hcj/UEFIWorkspace/Build/EmulatorX64/DEBUG_GCC5/X64/MdeModulePkg/Library/BootManagerUiLib/BootManagerUiLib/OUTPUT/BootManagerUiLib.lib(AutoGen.obj)
                              (--whole-archive)
/home/hcj/UEFIWorkspace/Build/EmulatorX64/DEBUG_GCC5/X64/MdeModulePkg/Library/BootMaintenanceManagerUiLib/BootMaintenanceManagerUiLib/OUTPUT/BootMaintenanceManagerUiLib.lib(BootMaintenanceManager.obj)
                              (--whole-archive)
/home/hcj/UEFIWorkspace/Build/EmulatorX64/DEBUG_GCC5/X64/MdeModulePkg/Library/BootMaintenanceManagerUiLib/BootMaintenanceManagerUiLib/OUTPUT/BootMaintenanceManagerUiLib.lib(BootMaintenance.obj)
                              (--whole-archive)
/home/hcj/UEFIWorkspace/Build/EmulatorX64/DEBUG_GCC5/X64/MdeModulePkg/Library/BootMaintenanceManagerUiLib/BootMaintenanceManagerUiLib/OUTPUT/BootMaintenanceManagerUiLib.lib(BootOption.obj)
                              (--whole-archive)
/home/hcj/UEFIWorkspace/Build/EmulatorX64/DEBUG_GCC5/X64/MdeModulePkg/Library/BootMaintenanceManagerUiLib/BootMaintenanceManagerUiLib/OUTPUT/BootMaintenanceManagerUiLib.lib(ConsoleOption.obj)
                              (--whole-archive)
/home/hcj/UEFIWorkspace/Build/EmulatorX64/DEBUG_GCC5/X64/MdeModulePkg/Library/BootMaintenanceManagerUiLib/BootMaintenanceManagerUiLib/OUTPUT/BootMaintenanceManagerUiLib.lib(Data.obj)
                              (--whole-archive)
/home/hcj/UEFIWorkspace/Build/EmulatorX64/DEBUG_GCC5/X64/MdeModulePkg/Library/BootMaintenanceManagerUiLib/BootMaintenanceManagerUiLib/OUTPUT/BootMaintenanceManagerUiLib.lib(Variable.obj)
                              (--whole-archive)
/home/hcj/UEFIWorkspace/Build/EmulatorX64/DEBUG_GCC5/X64/MdeModulePkg/Library/BootMaintenanceManagerUiLib/BootMaintenanceManagerUiLib/OUTPUT/BootMaintenanceManagerUiLib.lib(UpdatePage.obj)
                              (--whole-archive)
/home/hcj/UEFIWorkspace/Build/EmulatorX64/DEBUG_GCC5/X64/MdeModulePkg/Library/BootMaintenanceManagerUiLib/BootMaintenanceManagerUiLib/OUTPUT/BootMaintenanceManagerUiLib.lib(BmLib.obj)
                              (--whole-archive)
/home/hcj/UEFIWorkspace/Build/EmulatorX64/DEBUG_GCC5/X64/MdeModulePkg/Library/BootMaintenanceManagerUiLib/BootMaintenanceManagerUiLib/OUTPUT/BootMaintenanceManagerUiLib.lib(BootMaintenanceManagerCustomizedUi.obj)
                              (--whole-archive)
/home/hcj/UEFIWorkspace/Build/EmulatorX64/DEBUG_GCC5/X64/MdeModulePkg/Library/BootMaintenanceManagerUiLib/BootMaintenanceManagerUiLib/OUTPUT/BootMaintenanceManagerUiLib.lib(BootMaintenanceManagerCustomizedUiSupport.obj)
                              (--whole-archive)
/home/hcj/UEFIWorkspace/Build/EmulatorX64/DEBUG_GCC5/X64/MdeModulePkg/Library/BootMaintenanceManagerUiLib/BootMaintenanceManagerUiLib/OUTPUT/BootMaintenanceManagerUiLib.lib(AutoGen.obj)
                              (--whole-archive)

Discarded input sections

 .text          0x0000000000000000        0x0 /tmp/ccCWtBvp.ltrans0.ltrans.o
 .data          0x0000000000000000        0x0 /tmp/ccCWtBvp.ltrans0.ltrans.o
 .bss           0x0000000000000000        0x0 /tmp/ccCWtBvp.ltrans0.ltrans.o
 .text.UiBMMCallbackHandler
                0x0000000000000000       0x2d /tmp/ccCWtBvp.ltrans0.ltrans.o
 .comment       0x0000000000000000       0x2e /tmp/ccCWtBvp.ltrans0.ltrans.o
 .note.GNU-stack
                0x0000000000000000        0x0 /tmp/ccCWtBvp.ltrans0.ltrans.o
 .text          0x0000000000000000        0x0 /tmp/ccCWtBvp.ltrans1.ltrans.o
 .data          0x0000000000000000        0x0 /tmp/ccCWtBvp.ltrans1.ltrans.o
 .bss           0x0000000000000000        0x0 /tmp/ccCWtBvp.ltrans1.ltrans.o
 .text.ChangeVariableDevicePath
                0x0000000000000000      0x178 /tmp/ccCWtBvp.ltrans1.ltrans.o
 .comment       0x0000000000000000       0x2e /tmp/ccCWtBvp.ltrans1.ltrans.o
 .note.GNU-stack
                0x0000000000000000        0x0 /tmp/ccCWtBvp.ltrans1.ltrans.o
 .text          0x0000000000000000        0x0 /tmp/ccCWtBvp.ltrans2.ltrans.o
 .data          0x0000000000000000        0x0 /tmp/ccCWtBvp.ltrans2.ltrans.o
 .bss           0x0000000000000000        0x0 /tmp/ccCWtBvp.ltrans2.ltrans.o
 .comment       0x0000000000000000       0x2e /tmp/ccCWtBvp.ltrans2.ltrans.o
 .note.GNU-stack
                0x0000000000000000        0x0 /tmp/ccCWtBvp.ltrans2.ltrans.o
 .text          0x0000000000000000        0x0 /tmp/ccCWtBvp.ltrans3.ltrans.o
 .data          0x0000000000000000        0x0 /tmp/ccCWtBvp.ltrans3.ltrans.o
 .bss           0x0000000000000000        0x0 /tmp/ccCWtBvp.ltrans3.ltrans.o
 .text.BmmExtractDevicePathFromHiiHandle
                0x0000000000000000       0x96 /tmp/ccCWtBvp.ltrans3.ltrans.o
 .comment       0x0000000000000000       0x2e /tmp/ccCWtBvp.ltrans3.ltrans.o
 .note.GNU-stack
                0x0000000000000000        0x0 /tmp/ccCWtBvp.ltrans3.ltrans.o
 .text          0x0000000000000000        0x0 /tmp/ccCWtBvp.ltrans4.ltrans.o
 .data          0x0000000000000000        0x0 /tmp/ccCWtBvp.ltrans4.ltrans.o
 .bss           0x0000000000000000        0x0 /tmp/ccCWtBvp.ltrans4.ltrans.o
 .text.Exit     0x0000000000000000       0x4b /tmp/ccCWtBvp.ltrans4.ltrans.o
 .text.EfiMain  0x0000000000000000       0x22 /tmp/ccCWtBvp.ltrans4.ltrans.o
 .comment       0x0000000000000000       0x2e /tmp/ccCWtBvp.ltrans4.ltrans.o
 .note.GNU-stack
                0x0000000000000000        0x0 /tmp/ccCWtBvp.ltrans4.ltrans.o
 .text          0x0000000000000000        0x0 /tmp/ccCWtBvp.ltrans5.ltrans.o
 .data          0x0000000000000000        0x0 /tmp/ccCWtBvp.ltrans5.ltrans.o
 .bss           0x0000000000000000        0x0 /tmp/ccCWtBvp.ltrans5.ltrans.o
 .comment       0x0000000000000000       0x2e /tmp/ccCWtBvp.ltrans5.ltrans.o
 .note.GNU-stack
                0x0000000000000000        0x0 /tmp/ccCWtBvp.ltrans5.ltrans.o
 .text          0x0000000000000000        0x0 /tmp/ccCWtBvp.ltrans6.ltrans.o
 .data          0x0000000000000000        0x0 /tmp/ccCWtBvp.ltrans6.ltrans.o
 .bss           0x0000000000000000        0x0 /tmp/ccCWtBvp.ltrans6.ltrans.o
 .text.EfiBootManagerProcessLoadOption
                0x0000000000000000      0x446 /tmp/ccCWtBvp.ltrans6.ltrans.o
 .text.BmSizeOfKeyOption
                0x0000000000000000       0x24 /tmp/ccCWtBvp.ltrans6.ltrans.o
 .text.BmIsKeyOptionValid
                0x0000000000000000       0xc3 /tmp/ccCWtBvp.ltrans6.ltrans.o
 .text.BmIsKeyOptionVariable
                0x0000000000000000       0xcf /tmp/ccCWtBvp.ltrans6.ltrans.o
 .text.BmCollectKeyOptions
                0x0000000000000000      0x237 /tmp/ccCWtBvp.ltrans6.ltrans.o
 .text.BmGetKeyOptions
                0x0000000000000000       0x4e /tmp/ccCWtBvp.ltrans6.ltrans.o
 .text.BmBitSet
                0x0000000000000000       0x1b /tmp/ccCWtBvp.ltrans6.ltrans.o
 .text.BmInitializeKeyFields
                0x0000000000000000      0x1b7 /tmp/ccCWtBvp.ltrans6.ltrans.o
 .text.EfiBootManagerHotkeyBoot
                0x0000000000000000       0x3c /tmp/ccCWtBvp.ltrans6.ltrans.o
 .text.BmRegisterHotkeyNotify
                0x0000000000000000      0x151 /tmp/ccCWtBvp.ltrans6.ltrans.o
 .text.BmGenerateKeyShiftState
                0x0000000000000000      0x2eb /tmp/ccCWtBvp.ltrans6.ltrans.o
 .rodata.BmGenerateKeyShiftState
                0x0000000000000000       0x14 /tmp/ccCWtBvp.ltrans6.ltrans.o
 .text.BmProcessKeyOption
                0x0000000000000000      0x2f6 /tmp/ccCWtBvp.ltrans6.ltrans.o
 .text.BmTxtInExCallback
                0x0000000000000000      0x23c /tmp/ccCWtBvp.ltrans6.ltrans.o
 .text.BmFreeKeyOptions
                0x0000000000000000       0x36 /tmp/ccCWtBvp.ltrans6.ltrans.o
 .text.EfiBootManagerRegisterContinueKeyOption
                0x0000000000000000      0x15c /tmp/ccCWtBvp.ltrans6.ltrans.o
 .text.EfiBootManagerStartHotkeyService
                0x0000000000000000      0x353 /tmp/ccCWtBvp.ltrans6.ltrans.o
 .text.EfiBootManagerAddKeyOptionVariable
                0x0000000000000000      0x43a /tmp/ccCWtBvp.ltrans6.ltrans.o
 .text.EfiBootManagerDeleteKeyOptionVariable
                0x0000000000000000      0x560 /tmp/ccCWtBvp.ltrans6.ltrans.o
 .comment       0x0000000000000000       0x2e /tmp/ccCWtBvp.ltrans6.ltrans.o
 .note.GNU-stack
                0x0000000000000000        0x0 /tmp/ccCWtBvp.ltrans6.ltrans.o
 .text          0x0000000000000000        0x0 /tmp/ccCWtBvp.ltrans7.ltrans.o
 .data          0x0000000000000000        0x0 /tmp/ccCWtBvp.ltrans7.ltrans.o
 .bss           0x0000000000000000        0x0 /tmp/ccCWtBvp.ltrans7.ltrans.o
 .text.EfiBootManagerRegisterBootDescriptionHandler
                0x0000000000000000      0x106 /tmp/ccCWtBvp.ltrans7.ltrans.o
 .text.EfiBootManagerSortLoadOptionVariable
                0x0000000000000000      0x18a /tmp/ccCWtBvp.ltrans7.ltrans.o
 .comment       0x0000000000000000       0x2e /tmp/ccCWtBvp.ltrans7.ltrans.o
 .note.GNU-stack
                0x0000000000000000        0x0 /tmp/ccCWtBvp.ltrans7.ltrans.o
 .text          0x0000000000000000        0x0 /tmp/ccCWtBvp.ltrans8.ltrans.o
 .data          0x0000000000000000        0x0 /tmp/ccCWtBvp.ltrans8.ltrans.o
 .bss           0x0000000000000000        0x0 /tmp/ccCWtBvp.ltrans8.ltrans.o
 .text.EfiBootManagerGetLoadOptionBuffer
                0x0000000000000000       0xbf /tmp/ccCWtBvp.ltrans8.ltrans.o
 .rodata.str2.8
                0x0000000000000000       0x24 /tmp/ccCWtBvp.ltrans8.ltrans.o
 .text.BmRegisterBootManagerMenu
                0x0000000000000000      0x31c /tmp/ccCWtBvp.ltrans8.ltrans.o
 .text.EfiBootManagerGetBootManagerMenu
                0x0000000000000000      0x307 /tmp/ccCWtBvp.ltrans8.ltrans.o
 .text.EfiBootManagerGetNextLoadOptionDevicePath
                0x0000000000000000       0x94 /tmp/ccCWtBvp.ltrans8.ltrans.o
 .comment       0x0000000000000000       0x2e /tmp/ccCWtBvp.ltrans8.ltrans.o
 .note.GNU-stack
                0x0000000000000000        0x0 /tmp/ccCWtBvp.ltrans8.ltrans.o
 .text          0x0000000000000000        0x0 /tmp/ccCWtBvp.ltrans9.ltrans.o
 .data          0x0000000000000000        0x0 /tmp/ccCWtBvp.ltrans9.ltrans.o
 .bss           0x0000000000000000        0x0 /tmp/ccCWtBvp.ltrans9.ltrans.o
 .text.EfiBootManagerRegisterLegacyBootSupport
                0x0000000000000000       0x24 /tmp/ccCWtBvp.ltrans9.ltrans.o
 .comment       0x0000000000000000       0x2e /tmp/ccCWtBvp.ltrans9.ltrans.o
 .note.GNU-stack
                0x0000000000000000        0x0 /tmp/ccCWtBvp.ltrans9.ltrans.o
 .text          0x0000000000000000        0x0 /tmp/ccCWtBvp.ltrans10.ltrans.o
 .data          0x0000000000000000        0x0 /tmp/ccCWtBvp.ltrans10.ltrans.o
 .bss           0x0000000000000000        0x0 /tmp/ccCWtBvp.ltrans10.ltrans.o
 .text.HiiGetPackageString
                0x0000000000000000       0x89 /tmp/ccCWtBvp.ltrans10.ltrans.o
 .text.EfiBootManagerDisconnectAll
                0x0000000000000000       0x95 /tmp/ccCWtBvp.ltrans10.ltrans.o
 .text.EfiBootManagerDispatchDeferredImages
                0x0000000000000000      0x25d /tmp/ccCWtBvp.ltrans10.ltrans.o
 .text.BmGetVideoController
                0x0000000000000000      0x1f1 /tmp/ccCWtBvp.ltrans10.ltrans.o
 .text.EfiBootManagerGetGopDevicePath
                0x0000000000000000      0x359 /tmp/ccCWtBvp.ltrans10.ltrans.o
 .text.EfiBootManagerConnectVideoController
                0x0000000000000000      0x141 /tmp/ccCWtBvp.ltrans10.ltrans.o
 .text.EfiBootManagerConnectAllConsoles
                0x0000000000000000      0x19c /tmp/ccCWtBvp.ltrans10.ltrans.o
 .comment       0x0000000000000000       0x2e /tmp/ccCWtBvp.ltrans10.ltrans.o
 .note.GNU-stack
                0x0000000000000000        0x0 /tmp/ccCWtBvp.ltrans10.ltrans.o
 .text          0x0000000000000000        0x0 /tmp/ccCWtBvp.ltrans11.ltrans.o
 .data          0x0000000000000000        0x0 /tmp/ccCWtBvp.ltrans11.ltrans.o
 .bss           0x0000000000000000        0x0 /tmp/ccCWtBvp.ltrans11.ltrans.o
 .text.InternalHiiValidateCurrentSetting
                0x0000000000000000      0x253 /tmp/ccCWtBvp.ltrans11.ltrans.o
 .text.GetElementsFromRequest
                0x0000000000000000       0x89 /tmp/ccCWtBvp.ltrans11.ltrans.o
 .text.InternalHiiIfrValueAction
                0x0000000000000000      0xa52 /tmp/ccCWtBvp.ltrans11.ltrans.o
 .text.HiiValidateSettings
                0x0000000000000000       0x22 /tmp/ccCWtBvp.ltrans11.ltrans.o
 .text.HiiSetToDefaults
                0x0000000000000000       0x29 /tmp/ccCWtBvp.ltrans11.ltrans.o
 .text.HiiCreateDefaultOpCode
                0x0000000000000000       0xc3 /tmp/ccCWtBvp.ltrans11.ltrans.o
 .text.HiiCreateDateOpCode
                0x0000000000000000      0x169 /tmp/ccCWtBvp.ltrans11.ltrans.o
 .text.HiiCreateTimeOpCode
                0x0000000000000000      0x169 /tmp/ccCWtBvp.ltrans11.ltrans.o
 .comment       0x0000000000000000       0x2e /tmp/ccCWtBvp.ltrans11.ltrans.o
 .note.GNU-stack
                0x0000000000000000        0x0 /tmp/ccCWtBvp.ltrans11.ltrans.o
 .text          0x0000000000000000        0x0 /tmp/ccCWtBvp.ltrans12.ltrans.o
 .data          0x0000000000000000        0x0 /tmp/ccCWtBvp.ltrans12.ltrans.o
 .bss           0x0000000000000000        0x0 /tmp/ccCWtBvp.ltrans12.ltrans.o
 .text.GetPerformanceMeasurement
                0x0000000000000000       0xe7 /tmp/ccCWtBvp.ltrans12.ltrans.o
 .text.GetPerformanceMeasurementEx
                0x0000000000000000      0x10f /tmp/ccCWtBvp.ltrans12.ltrans.o
 .text.InternalHiiGetBufferFromString
                0x0000000000000000      0x26e /tmp/ccCWtBvp.ltrans12.ltrans.o
 .text.BlockArrayCheck
                0x0000000000000000       0x93 /tmp/ccCWtBvp.ltrans12.ltrans.o
 .text.InternalHiiGetValueOfNumber
                0x0000000000000000      0x1b2 /tmp/ccCWtBvp.ltrans12.ltrans.o
 .text.GetValueFromRequest
                0x0000000000000000       0xe5 /tmp/ccCWtBvp.ltrans12.ltrans.o
 .text.ValidateQuestionFromVfr
                0x0000000000000000     0x11c9 /tmp/ccCWtBvp.ltrans12.ltrans.o
 .rodata.ValidateQuestionFromVfr
                0x0000000000000000      0x180 /tmp/ccCWtBvp.ltrans12.ltrans.o
 .text.GetBlockDataInfo
                0x0000000000000000      0x6a5 /tmp/ccCWtBvp.ltrans12.ltrans.o
 .comment       0x0000000000000000       0x2e /tmp/ccCWtBvp.ltrans12.ltrans.o
 .note.GNU-stack
                0x0000000000000000        0x0 /tmp/ccCWtBvp.ltrans12.ltrans.o
 .text          0x0000000000000000        0x0 /tmp/ccCWtBvp.ltrans13.ltrans.o
 .data          0x0000000000000000        0x0 /tmp/ccCWtBvp.ltrans13.ltrans.o
 .bss           0x0000000000000000        0x0 /tmp/ccCWtBvp.ltrans13.ltrans.o
 .text.LocateAcpiTableInAcpiConfigurationTable
                0x0000000000000000      0x2fe /tmp/ccCWtBvp.ltrans13.ltrans.o
 .text.EfiLocateNextAcpiTable
                0x0000000000000000      0x164 /tmp/ccCWtBvp.ltrans13.ltrans.o
 .text.EfiLocateFirstAcpiTable
                0x0000000000000000       0x1a /tmp/ccCWtBvp.ltrans13.ltrans.o
 .text.GetFirstHob
                0x0000000000000000       0x28 /tmp/ccCWtBvp.ltrans13.ltrans.o
 .text.BuildModuleHob
                0x0000000000000000       0x3b /tmp/ccCWtBvp.ltrans13.ltrans.o
 .text.BuildResourceDescriptorWithOwnerHob
                0x0000000000000000       0x39 /tmp/ccCWtBvp.ltrans13.ltrans.o
 .text.BuildResourceDescriptorHob
                0x0000000000000000       0x39 /tmp/ccCWtBvp.ltrans13.ltrans.o
 .text.BuildGuidHob
                0x0000000000000000       0x38 /tmp/ccCWtBvp.ltrans13.ltrans.o
 .text.BuildGuidDataHob
                0x0000000000000000       0x3c /tmp/ccCWtBvp.ltrans13.ltrans.o
 .text.BuildFvHob
                0x0000000000000000       0x33 /tmp/ccCWtBvp.ltrans13.ltrans.o
 .text.BuildFv2Hob
                0x0000000000000000       0x3b /tmp/ccCWtBvp.ltrans13.ltrans.o
 .text.BuildFv3Hob
                0x0000000000000000       0x3d /tmp/ccCWtBvp.ltrans13.ltrans.o
 .text.BuildCvHob
                0x0000000000000000       0x33 /tmp/ccCWtBvp.ltrans13.ltrans.o
 .text.BuildCpuHob
                0x0000000000000000       0x33 /tmp/ccCWtBvp.ltrans13.ltrans.o
 .text.BuildStackHob
                0x0000000000000000       0x33 /tmp/ccCWtBvp.ltrans13.ltrans.o
 .text.BuildBspStoreHob
                0x0000000000000000       0x37 /tmp/ccCWtBvp.ltrans13.ltrans.o
 .text.BuildMemoryAllocationHob
                0x0000000000000000       0x37 /tmp/ccCWtBvp.ltrans13.ltrans.o
 .text.PerformQuickSort
                0x0000000000000000       0xd5 /tmp/ccCWtBvp.ltrans13.ltrans.o
 .text.DevicePathCompare
                0x0000000000000000       0x38 /tmp/ccCWtBvp.ltrans13.ltrans.o
 .text.StringNoCaseCompare
                0x0000000000000000       0x38 /tmp/ccCWtBvp.ltrans13.ltrans.o
 .text.StringCompare
                0x0000000000000000       0x38 /tmp/ccCWtBvp.ltrans13.ltrans.o
 .text.InternalImageHandleToFvHandle
                0x0000000000000000       0xbd /tmp/ccCWtBvp.ltrans13.ltrans.o
 .text.InternalGetSectionFromFv
                0x0000000000000000      0x1ae /tmp/ccCWtBvp.ltrans13.ltrans.o
 .text.GetSectionFromAnyFvByFileType
                0x0000000000000000      0x2e2 /tmp/ccCWtBvp.ltrans13.ltrans.o
 .text.GetSectionFromAnyFv
                0x0000000000000000      0x213 /tmp/ccCWtBvp.ltrans13.ltrans.o
 .text.GetSectionFromFv
                0x0000000000000000       0xca /tmp/ccCWtBvp.ltrans13.ltrans.o
 .text.GetSectionFromFfs
                0x0000000000000000       0xcd /tmp/ccCWtBvp.ltrans13.ltrans.o
 .text.GetFileDevicePathFromAnyFv
                0x0000000000000000      0x38d /tmp/ccCWtBvp.ltrans13.ltrans.o
 .text.AllocatePeiAccessiblePages
                0x0000000000000000       0x8a /tmp/ccCWtBvp.ltrans13.ltrans.o
 .text.PeCoffLoaderGetEntryPoint
                0x0000000000000000      0x113 /tmp/ccCWtBvp.ltrans13.ltrans.o
 .text.PeCoffLoaderGetMachineType
                0x0000000000000000       0x9f /tmp/ccCWtBvp.ltrans13.ltrans.o
 .text.PeCoffLoaderGetPdbPointer
                0x0000000000000000      0x283 /tmp/ccCWtBvp.ltrans13.ltrans.o
 .text.PeCoffGetSizeOfHeaders
                0x0000000000000000       0xc5 /tmp/ccCWtBvp.ltrans13.ltrans.o
 .text.PeCoffSearchImageBase
                0x0000000000000000      0x112 /tmp/ccCWtBvp.ltrans13.ltrans.o
 .text.StartPerformanceMeasurement
                0x0000000000000000       0x1b /tmp/ccCWtBvp.ltrans13.ltrans.o
 .text.EndPerformanceMeasurement
                0x0000000000000000       0x1b /tmp/ccCWtBvp.ltrans13.ltrans.o
 .comment       0x0000000000000000       0x2e /tmp/ccCWtBvp.ltrans13.ltrans.o
 .note.GNU-stack
                0x0000000000000000        0x0 /tmp/ccCWtBvp.ltrans13.ltrans.o
 .text          0x0000000000000000        0x0 /tmp/ccCWtBvp.ltrans14.ltrans.o
 .data          0x0000000000000000        0x0 /tmp/ccCWtBvp.ltrans14.ltrans.o
 .bss           0x0000000000000000        0x0 /tmp/ccCWtBvp.ltrans14.ltrans.o
 .text.CompareIso639LanguageCode
                0x0000000000000000       0x39 /tmp/ccCWtBvp.ltrans14.ltrans.o
 .text.EfiCreateProtocolNotifyEvent
                0x0000000000000000      0x1aa /tmp/ccCWtBvp.ltrans14.ltrans.o
 .text.EfiNamedEventListen
                0x0000000000000000      0x1af /tmp/ccCWtBvp.ltrans14.ltrans.o
 .text.EfiNamedEventSignal
                0x0000000000000000      0x13e /tmp/ccCWtBvp.ltrans14.ltrans.o
 .text.EfiEventGroupSignal
                0x0000000000000000       0x9d /tmp/ccCWtBvp.ltrans14.ltrans.o
 .text.EfiInitializeLock
                0x0000000000000000       0x88 /tmp/ccCWtBvp.ltrans14.ltrans.o
 .text.EfiAcquireLockOrFail
                0x0000000000000000       0xac /tmp/ccCWtBvp.ltrans14.ltrans.o
 .text.EfiTestManagedDevice
                0x0000000000000000       0xcc /tmp/ccCWtBvp.ltrans14.ltrans.o
 .text.EfiTestChildHandle
                0x0000000000000000      0x105 /tmp/ccCWtBvp.ltrans14.ltrans.o
 .text.IsLanguageSupported
                0x0000000000000000       0xbd /tmp/ccCWtBvp.ltrans14.ltrans.o
 .text.LookupUnicodeString
                0x0000000000000000      0x13d /tmp/ccCWtBvp.ltrans14.ltrans.o
 .text.LookupUnicodeString2
                0x0000000000000000      0x261 /tmp/ccCWtBvp.ltrans14.ltrans.o
 .text.AddUnicodeString
                0x0000000000000000      0x3a2 /tmp/ccCWtBvp.ltrans14.ltrans.o
 .text.AddUnicodeString2
                0x0000000000000000      0x4a8 /tmp/ccCWtBvp.ltrans14.ltrans.o
 .text.FreeUnicodeStringTable
                0x0000000000000000       0xac /tmp/ccCWtBvp.ltrans14.ltrans.o
 .text.GetVariable3
                0x0000000000000000      0x18d /tmp/ccCWtBvp.ltrans14.ltrans.o
 .text.EfiLocateProtocolBuffer
                0x0000000000000000      0x1d3 /tmp/ccCWtBvp.ltrans14.ltrans.o
 .text.EfiOpenFileByDevicePath
                0x0000000000000000      0x29e /tmp/ccCWtBvp.ltrans14.ltrans.o
 .text.ScanTableInSDT
                0x0000000000000000      0x158 /tmp/ccCWtBvp.ltrans14.ltrans.o
 .text.LocateAcpiFacsFromFadt
                0x0000000000000000       0x78 /tmp/ccCWtBvp.ltrans14.ltrans.o
 .text.LocateAcpiDsdtFromFadt
                0x0000000000000000       0x78 /tmp/ccCWtBvp.ltrans14.ltrans.o
 .comment       0x0000000000000000       0x2e /tmp/ccCWtBvp.ltrans14.ltrans.o
 .note.GNU-stack
                0x0000000000000000        0x0 /tmp/ccCWtBvp.ltrans14.ltrans.o
 .text          0x0000000000000000        0x0 /tmp/ccCWtBvp.ltrans15.ltrans.o
 .data          0x0000000000000000        0x0 /tmp/ccCWtBvp.ltrans15.ltrans.o
 .bss           0x0000000000000000        0x0 /tmp/ccCWtBvp.ltrans15.ltrans.o
 .rodata.str1.1
                0x0000000000000000       0x1e /tmp/ccCWtBvp.ltrans15.ltrans.o
 .rodata.str1.8
                0x0000000000000000       0x97 /tmp/ccCWtBvp.ltrans15.ltrans.o
 .text.EfiLibUninstallAllDriverProtocols2
                0x0000000000000000     0x2144 /tmp/ccCWtBvp.ltrans15.ltrans.o
 .text.GetGlyphWidth
                0x0000000000000000       0xe4 /tmp/ccCWtBvp.ltrans15.ltrans.o
 .text.UnicodeStringDisplayLength
                0x0000000000000000       0x66 /tmp/ccCWtBvp.ltrans15.ltrans.o
 .comment       0x0000000000000000       0x2e /tmp/ccCWtBvp.ltrans15.ltrans.o
 .note.GNU-stack
                0x0000000000000000        0x0 /tmp/ccCWtBvp.ltrans15.ltrans.o
 .text          0x0000000000000000        0x0 /tmp/ccCWtBvp.ltrans16.ltrans.o
 .data          0x0000000000000000        0x0 /tmp/ccCWtBvp.ltrans16.ltrans.o
 .bss           0x0000000000000000        0x0 /tmp/ccCWtBvp.ltrans16.ltrans.o
 .rodata.str1.1
                0x0000000000000000       0x1e /tmp/ccCWtBvp.ltrans16.ltrans.o
 .rodata.str1.8
                0x0000000000000000       0x97 /tmp/ccCWtBvp.ltrans16.ltrans.o
 .text.EfiLibInstallAllDriverProtocols
                0x0000000000000000      0x3a5 /tmp/ccCWtBvp.ltrans16.ltrans.o
 .text.EfiLibUninstallAllDriverProtocols
                0x0000000000000000      0x38a /tmp/ccCWtBvp.ltrans16.ltrans.o
 .text.EfiLibInstallDriverBindingComponentName2
                0x0000000000000000      0x202 /tmp/ccCWtBvp.ltrans16.ltrans.o
 .text.EfiLibUninstallDriverBindingComponentName2
                0x0000000000000000      0x1e3 /tmp/ccCWtBvp.ltrans16.ltrans.o
 .text.EfiLibInstallAllDriverProtocols2
                0x0000000000000000     0x215f /tmp/ccCWtBvp.ltrans16.ltrans.o
 .debug_info    0x0000000000000000     0x1e8e /tmp/ccCWtBvp.ltrans16.ltrans.o
 .debug_abbrev  0x0000000000000000      0x1b7 /tmp/ccCWtBvp.ltrans16.ltrans.o
 .debug_aranges
                0x0000000000000000       0x70 /tmp/ccCWtBvp.ltrans16.ltrans.o
 .debug_ranges  0x0000000000000000       0x60 /tmp/ccCWtBvp.ltrans16.ltrans.o
 .debug_line    0x0000000000000000      0x59e /tmp/ccCWtBvp.ltrans16.ltrans.o
 .debug_str     0x0000000000000000     0x1a54 /tmp/ccCWtBvp.ltrans16.ltrans.o
 .comment       0x0000000000000000       0x2e /tmp/ccCWtBvp.ltrans16.ltrans.o
 .note.GNU-stack
                0x0000000000000000        0x0 /tmp/ccCWtBvp.ltrans16.ltrans.o
 .debug_frame   0x0000000000000000       0xe0 /tmp/ccCWtBvp.ltrans16.ltrans.o
 .text          0x0000000000000000        0x0 /tmp/ccCWtBvp.ltrans17.ltrans.o
 .data          0x0000000000000000        0x0 /tmp/ccCWtBvp.ltrans17.ltrans.o
 .bss           0x0000000000000000        0x0 /tmp/ccCWtBvp.ltrans17.ltrans.o
 .text.DevPathFromTextBluetoothLE
                0x0000000000000000       0x82 /tmp/ccCWtBvp.ltrans17.ltrans.o
 .text.DevPathFromTextDns
                0x0000000000000000      0x1ad /tmp/ccCWtBvp.ltrans17.ltrans.o
 .text.DevPathFromTextUri
                0x0000000000000000       0x8f /tmp/ccCWtBvp.ltrans17.ltrans.o
 .text.DevPathFromTextMediaPath
                0x0000000000000000       0x1f /tmp/ccCWtBvp.ltrans17.ltrans.o
 .rodata.str2.2
                0x0000000000000000       0x56 /tmp/ccCWtBvp.ltrans17.ltrans.o
 .text.DevPathFromTextHD
                0x0000000000000000      0x181 /tmp/ccCWtBvp.ltrans17.ltrans.o
 .text.DevPathFromTextCDROM
                0x0000000000000000       0x9e /tmp/ccCWtBvp.ltrans17.ltrans.o
 .text.DevPathFromTextVenMedia
                0x0000000000000000       0x24 /tmp/ccCWtBvp.ltrans17.ltrans.o
 .text.DevPathFromTextFilePath
                0x0000000000000000       0x63 /tmp/ccCWtBvp.ltrans17.ltrans.o
 .text.DevPathFromTextMedia
                0x0000000000000000       0x4f /tmp/ccCWtBvp.ltrans17.ltrans.o
 .text.DevPathFromTextFv
                0x0000000000000000       0x4f /tmp/ccCWtBvp.ltrans17.ltrans.o
 .text.DevPathFromTextFvFile
                0x0000000000000000       0x4f /tmp/ccCWtBvp.ltrans17.ltrans.o
 .text.DevPathFromTextRelativeOffsetRange
                0x0000000000000000       0x79 /tmp/ccCWtBvp.ltrans17.ltrans.o
 .text.DevPathFromTextRamDisk
                0x0000000000000000       0xe3 /tmp/ccCWtBvp.ltrans17.ltrans.o
 .text.DevPathFromTextVirtualDisk
                0x0000000000000000       0xd6 /tmp/ccCWtBvp.ltrans17.ltrans.o
 .text.DevPathFromTextVirtualCd
                0x0000000000000000       0xd6 /tmp/ccCWtBvp.ltrans17.ltrans.o
 .text.DevPathFromTextPersistentVirtualDisk
                0x0000000000000000       0xd6 /tmp/ccCWtBvp.ltrans17.ltrans.o
 .text.DevPathFromTextPersistentVirtualCd
                0x0000000000000000       0xd6 /tmp/ccCWtBvp.ltrans17.ltrans.o
 .text.DevPathFromTextBbsPath
                0x0000000000000000       0x1f /tmp/ccCWtBvp.ltrans17.ltrans.o
 .text.DevPathFromTextBBS
                0x0000000000000000      0x196 /tmp/ccCWtBvp.ltrans17.ltrans.o
 .text.DevPathFromTextSata
                0x0000000000000000       0xb5 /tmp/ccCWtBvp.ltrans17.ltrans.o
 .text.UefiDevicePathLibConvertTextToDeviceNode
                0x0000000000000000      0x1f8 /tmp/ccCWtBvp.ltrans17.ltrans.o
 .text.UefiDevicePathLibConvertTextToDevicePath
                0x0000000000000000      0x262 /tmp/ccCWtBvp.ltrans17.ltrans.o
 .text.CreateDeviceNode
                0x0000000000000000       0x2f /tmp/ccCWtBvp.ltrans17.ltrans.o
 .text.IsDevicePathMultiInstance
                0x0000000000000000       0x17 /tmp/ccCWtBvp.ltrans17.ltrans.o
 .text.ConvertDeviceNodeToText
                0x0000000000000000       0x2f /tmp/ccCWtBvp.ltrans17.ltrans.o
 .text.ConvertTextToDeviceNode
                0x0000000000000000       0x17 /tmp/ccCWtBvp.ltrans17.ltrans.o
 .text.ConvertTextToDevicePath
                0x0000000000000000       0x17 /tmp/ccCWtBvp.ltrans17.ltrans.o
 .text.ErrorPrint
                0x0000000000000000       0xc5 /tmp/ccCWtBvp.ltrans17.ltrans.o
 .text.AsciiInternalPrint
                0x0000000000000000      0x110 /tmp/ccCWtBvp.ltrans17.ltrans.o
 .text.AsciiPrint
                0x0000000000000000       0xed /tmp/ccCWtBvp.ltrans17.ltrans.o
 .text.AsciiErrorPrint
                0x0000000000000000       0xed /tmp/ccCWtBvp.ltrans17.ltrans.o
 .text.InternalPrintGraphic
                0x0000000000000000      0x6d8 /tmp/ccCWtBvp.ltrans17.ltrans.o
 .text.PrintXY  0x0000000000000000      0x1b5 /tmp/ccCWtBvp.ltrans17.ltrans.o
 .text.AsciiPrintXY
                0x0000000000000000      0x188 /tmp/ccCWtBvp.ltrans17.ltrans.o
 .text.CatVSPrint
                0x0000000000000000      0x128 /tmp/ccCWtBvp.ltrans17.ltrans.o
 .text.CatSPrint
                0x0000000000000000       0x41 /tmp/ccCWtBvp.ltrans17.ltrans.o
 .text.EfiCreateEventLegacyBoot
                0x0000000000000000       0x29 /tmp/ccCWtBvp.ltrans17.ltrans.o
 .text.EfiSignalEventLegacyBoot
                0x0000000000000000       0x4b /tmp/ccCWtBvp.ltrans17.ltrans.o
 .text.EfiInitializeFwVolDevicepathNode
                0x0000000000000000       0x96 /tmp/ccCWtBvp.ltrans17.ltrans.o
 .text.EfiLibInstallDriverBinding
                0x0000000000000000       0xe7 /tmp/ccCWtBvp.ltrans17.ltrans.o
 .text.EfiLibUninstallDriverBinding
                0x0000000000000000       0xc0 /tmp/ccCWtBvp.ltrans17.ltrans.o
 .comment       0x0000000000000000       0x2e /tmp/ccCWtBvp.ltrans17.ltrans.o
 .note.GNU-stack
                0x0000000000000000        0x0 /tmp/ccCWtBvp.ltrans17.ltrans.o
 .text          0x0000000000000000        0x0 /tmp/ccCWtBvp.ltrans18.ltrans.o
 .data          0x0000000000000000        0x0 /tmp/ccCWtBvp.ltrans18.ltrans.o
 .bss           0x0000000000000000        0x0 /tmp/ccCWtBvp.ltrans18.ltrans.o
 .text.DevPathFromTextGenericPath
                0x0000000000000000       0xb2 /tmp/ccCWtBvp.ltrans18.ltrans.o
 .text.DevPathFromTextPath
                0x0000000000000000       0x41 /tmp/ccCWtBvp.ltrans18.ltrans.o
 .text.DevPathFromTextHardwarePath
                0x0000000000000000       0x1f /tmp/ccCWtBvp.ltrans18.ltrans.o
 .text.DevPathFromTextPci
                0x0000000000000000       0x75 /tmp/ccCWtBvp.ltrans18.ltrans.o
 .text.DevPathFromTextPcCard
                0x0000000000000000       0x50 /tmp/ccCWtBvp.ltrans18.ltrans.o
 .text.DevPathFromTextMemoryMapped
                0x0000000000000000       0x9e /tmp/ccCWtBvp.ltrans18.ltrans.o
 .text.ConvertFromTextVendor
                0x0000000000000000       0xb5 /tmp/ccCWtBvp.ltrans18.ltrans.o
 .text.DevPathFromTextVenHw
                0x0000000000000000       0x24 /tmp/ccCWtBvp.ltrans18.ltrans.o
 .text.DevPathFromTextCtrl
                0x0000000000000000       0x50 /tmp/ccCWtBvp.ltrans18.ltrans.o
 .text.DevPathFromTextBmc
                0x0000000000000000       0x7f /tmp/ccCWtBvp.ltrans18.ltrans.o
 .text.DevPathFromTextAcpiPath
                0x0000000000000000       0x1f /tmp/ccCWtBvp.ltrans18.ltrans.o
 .text.EisaIdFromText
                0x0000000000000000       0x66 /tmp/ccCWtBvp.ltrans18.ltrans.o
 .text.DevPathFromTextAcpi
                0x0000000000000000       0x75 /tmp/ccCWtBvp.ltrans18.ltrans.o
 .text.ConvertFromTextAcpi
                0x0000000000000000       0x67 /tmp/ccCWtBvp.ltrans18.ltrans.o
 .text.DevPathFromTextPciRoot
                0x0000000000000000       0x1f /tmp/ccCWtBvp.ltrans18.ltrans.o
 .text.DevPathFromTextPcieRoot
                0x0000000000000000       0x1f /tmp/ccCWtBvp.ltrans18.ltrans.o
 .text.DevPathFromTextFloppy
                0x0000000000000000       0x1f /tmp/ccCWtBvp.ltrans18.ltrans.o
 .text.DevPathFromTextKeyboard
                0x0000000000000000       0x1f /tmp/ccCWtBvp.ltrans18.ltrans.o
 .text.DevPathFromTextSerial
                0x0000000000000000       0x1f /tmp/ccCWtBvp.ltrans18.ltrans.o
 .text.DevPathFromTextParallelPort
                0x0000000000000000       0x1f /tmp/ccCWtBvp.ltrans18.ltrans.o
 .text.DevPathFromTextAcpiEx
                0x0000000000000000      0x159 /tmp/ccCWtBvp.ltrans18.ltrans.o
 .text.DevPathFromTextAcpiExp
                0x0000000000000000      0x103 /tmp/ccCWtBvp.ltrans18.ltrans.o
 .rodata.str1.1
                0x0000000000000000       0x18 /tmp/ccCWtBvp.ltrans18.ltrans.o
 .rodata.str1.8
                0x0000000000000000       0x53 /tmp/ccCWtBvp.ltrans18.ltrans.o
 .text.DevPathFromTextAcpiAdr
                0x0000000000000000      0x11f /tmp/ccCWtBvp.ltrans18.ltrans.o
 .text.DevPathFromTextMsg
                0x0000000000000000       0x1f /tmp/ccCWtBvp.ltrans18.ltrans.o
 .rodata.str2.2
                0x0000000000000000      0x138 /tmp/ccCWtBvp.ltrans18.ltrans.o
 .text.DevPathFromTextAta
                0x0000000000000000      0x123 /tmp/ccCWtBvp.ltrans18.ltrans.o
 .text.DevPathFromTextScsi
                0x0000000000000000       0x77 /tmp/ccCWtBvp.ltrans18.ltrans.o
 .text.DevPathFromTextFibre
                0x0000000000000000       0x84 /tmp/ccCWtBvp.ltrans18.ltrans.o
 .text.DevPathFromTextFibreEx
                0x0000000000000000       0xc6 /tmp/ccCWtBvp.ltrans18.ltrans.o
 .text.DevPathFromText1394
                0x0000000000000000       0x5d /tmp/ccCWtBvp.ltrans18.ltrans.o
 .text.DevPathFromTextUsb
                0x0000000000000000       0x75 /tmp/ccCWtBvp.ltrans18.ltrans.o
 .text.DevPathFromTextI2O
                0x0000000000000000       0x50 /tmp/ccCWtBvp.ltrans18.ltrans.o
 .text.DevPathFromTextInfiniband
                0x0000000000000000       0xe9 /tmp/ccCWtBvp.ltrans18.ltrans.o
 .text.DevPathFromTextVenMsg
                0x0000000000000000       0x24 /tmp/ccCWtBvp.ltrans18.ltrans.o
 .text.DevPathFromTextVenPcAnsi
                0x0000000000000000       0x42 /tmp/ccCWtBvp.ltrans18.ltrans.o
 .text.DevPathFromTextVenVt100
                0x0000000000000000       0x42 /tmp/ccCWtBvp.ltrans18.ltrans.o
 .text.DevPathFromTextVenVt100Plus
                0x0000000000000000       0x42 /tmp/ccCWtBvp.ltrans18.ltrans.o
 .text.DevPathFromTextVenUtf8
                0x0000000000000000       0x42 /tmp/ccCWtBvp.ltrans18.ltrans.o
 .text.DevPathFromTextUartFlowCtrl
                0x0000000000000000       0xa7 /tmp/ccCWtBvp.ltrans18.ltrans.o
 .text.DevPathFromTextSAS
                0x0000000000000000      0x2a9 /tmp/ccCWtBvp.ltrans18.ltrans.o
 .text.DevPathFromTextSasEx
                0x0000000000000000      0x2a6 /tmp/ccCWtBvp.ltrans18.ltrans.o
 .text.DevPathFromTextNVMe
                0x0000000000000000       0xb4 /tmp/ccCWtBvp.ltrans18.ltrans.o
 .text.DevPathFromTextUfs
                0x0000000000000000       0x75 /tmp/ccCWtBvp.ltrans18.ltrans.o
 .text.DevPathFromTextSd
                0x0000000000000000       0x50 /tmp/ccCWtBvp.ltrans18.ltrans.o
 .text.DevPathFromTextEmmc
                0x0000000000000000       0x50 /tmp/ccCWtBvp.ltrans18.ltrans.o
 .text.DevPathFromTextDebugPort
                0x0000000000000000       0x42 /tmp/ccCWtBvp.ltrans18.ltrans.o
 .text.DevPathFromTextMAC
                0x0000000000000000       0xae /tmp/ccCWtBvp.ltrans18.ltrans.o
 .text.NetworkProtocolFromText
                0x0000000000000000       0x58 /tmp/ccCWtBvp.ltrans18.ltrans.o
 .text.DevPathFromTextIPv4
                0x0000000000000000      0x1ab /tmp/ccCWtBvp.ltrans18.ltrans.o
 .rodata.str2.8
                0x0000000000000000       0x2e /tmp/ccCWtBvp.ltrans18.ltrans.o
 .text.DevPathFromTextIPv6
                0x0000000000000000      0x1b3 /tmp/ccCWtBvp.ltrans18.ltrans.o
 .text.DevPathFromTextUart
                0x0000000000000000      0x1ff /tmp/ccCWtBvp.ltrans18.ltrans.o
 .rodata.DevPathFromTextUart
                0x0000000000000000       0x40 /tmp/ccCWtBvp.ltrans18.ltrans.o
 .text.ConvertFromTextUsbClass
                0x0000000000000000      0x195 /tmp/ccCWtBvp.ltrans18.ltrans.o
 .text.DevPathFromTextUsbClass
                0x0000000000000000       0x29 /tmp/ccCWtBvp.ltrans18.ltrans.o
 .text.DevPathFromTextUsbAudio
                0x0000000000000000       0x2d /tmp/ccCWtBvp.ltrans18.ltrans.o
 .text.DevPathFromTextUsbCDCControl
                0x0000000000000000       0x2d /tmp/ccCWtBvp.ltrans18.ltrans.o
 .text.DevPathFromTextUsbHID
                0x0000000000000000       0x2d /tmp/ccCWtBvp.ltrans18.ltrans.o
 .text.DevPathFromTextUsbImage
                0x0000000000000000       0x2d /tmp/ccCWtBvp.ltrans18.ltrans.o
 .text.DevPathFromTextUsbPrinter
                0x0000000000000000       0x2d /tmp/ccCWtBvp.ltrans18.ltrans.o
 .text.DevPathFromTextUsbMassStorage
                0x0000000000000000       0x2d /tmp/ccCWtBvp.ltrans18.ltrans.o
 .text.DevPathFromTextUsbHub
                0x0000000000000000       0x2d /tmp/ccCWtBvp.ltrans18.ltrans.o
 .text.DevPathFromTextUsbCDCData
                0x0000000000000000       0x2d /tmp/ccCWtBvp.ltrans18.ltrans.o
 .text.DevPathFromTextUsbSmartCard
                0x0000000000000000       0x2d /tmp/ccCWtBvp.ltrans18.ltrans.o
 .text.DevPathFromTextUsbVideo
                0x0000000000000000       0x2d /tmp/ccCWtBvp.ltrans18.ltrans.o
 .text.DevPathFromTextUsbDiagnostic
                0x0000000000000000       0x2d /tmp/ccCWtBvp.ltrans18.ltrans.o
 .text.DevPathFromTextUsbWireless
                0x0000000000000000       0x2d /tmp/ccCWtBvp.ltrans18.ltrans.o
 .text.DevPathFromTextUsbDeviceFirmwareUpdate
                0x0000000000000000       0x31 /tmp/ccCWtBvp.ltrans18.ltrans.o
 .text.DevPathFromTextUsbIrdaBridge
                0x0000000000000000       0x31 /tmp/ccCWtBvp.ltrans18.ltrans.o
 .text.DevPathFromTextUsbTestAndMeasurement
                0x0000000000000000       0x31 /tmp/ccCWtBvp.ltrans18.ltrans.o
 .text.DevPathFromTextUsbWwid
                0x0000000000000000      0x135 /tmp/ccCWtBvp.ltrans18.ltrans.o
 .text.DevPathFromTextUnit
                0x0000000000000000       0x50 /tmp/ccCWtBvp.ltrans18.ltrans.o
 .text.DevPathFromTextiSCSI
                0x0000000000000000      0x1d6 /tmp/ccCWtBvp.ltrans18.ltrans.o
 .text.DevPathFromTextVlan
                0x0000000000000000       0x51 /tmp/ccCWtBvp.ltrans18.ltrans.o
 .text.DevPathFromTextBluetooth
                0x0000000000000000       0x5d /tmp/ccCWtBvp.ltrans18.ltrans.o
 .text.DevPathFromTextWiFi
                0x0000000000000000       0xaa /tmp/ccCWtBvp.ltrans18.ltrans.o
 .debug_info    0x0000000000000000     0x267c /tmp/ccCWtBvp.ltrans18.ltrans.o
 .debug_abbrev  0x0000000000000000      0x10b /tmp/ccCWtBvp.ltrans18.ltrans.o
 .debug_aranges
                0x0000000000000000      0x4b0 /tmp/ccCWtBvp.ltrans18.ltrans.o
 .debug_ranges  0x0000000000000000      0x4a0 /tmp/ccCWtBvp.ltrans18.ltrans.o
 .debug_line    0x0000000000000000      0xb1c /tmp/ccCWtBvp.ltrans18.ltrans.o
 .debug_str     0x0000000000000000     0x13fd /tmp/ccCWtBvp.ltrans18.ltrans.o
 .comment       0x0000000000000000       0x2e /tmp/ccCWtBvp.ltrans18.ltrans.o
 .note.GNU-stack
                0x0000000000000000        0x0 /tmp/ccCWtBvp.ltrans18.ltrans.o
 .debug_frame   0x0000000000000000      0xbb0 /tmp/ccCWtBvp.ltrans18.ltrans.o
 .text          0x0000000000000000        0x0 /tmp/ccCWtBvp.ltrans19.ltrans.o
 .data          0x0000000000000000        0x0 /tmp/ccCWtBvp.ltrans19.ltrans.o
 .bss           0x0000000000000000        0x0 /tmp/ccCWtBvp.ltrans19.ltrans.o
 .text.UefiDevicePathLibConvertDeviceNodeToText
                0x0000000000000000      0x1bc /tmp/ccCWtBvp.ltrans19.ltrans.o
 .text.UefiDevicePathLibStrDuplicate
                0x0000000000000000       0x29 /tmp/ccCWtBvp.ltrans19.ltrans.o
 .text.GetParamByNodeName
                0x0000000000000000      0x101 /tmp/ccCWtBvp.ltrans19.ltrans.o
 .text.SplitStr
                0x0000000000000000       0x81 /tmp/ccCWtBvp.ltrans19.ltrans.o
 .text.GetNextParamStr
                0x0000000000000000       0x1f /tmp/ccCWtBvp.ltrans19.ltrans.o
 .text.GetNextDeviceNodeStr
                0x0000000000000000      0x144 /tmp/ccCWtBvp.ltrans19.ltrans.o
 .text.IsHexStr
                0x0000000000000000       0x74 /tmp/ccCWtBvp.ltrans19.ltrans.o
 .text.Strtoi   0x0000000000000000       0x38 /tmp/ccCWtBvp.ltrans19.ltrans.o
 .text.Strtoi64
                0x0000000000000000       0x50 /tmp/ccCWtBvp.ltrans19.ltrans.o
 .text.StrToAscii
                0x0000000000000000       0x5e /tmp/ccCWtBvp.ltrans19.ltrans.o
 .comment       0x0000000000000000       0x2e /tmp/ccCWtBvp.ltrans19.ltrans.o
 .note.GNU-stack
                0x0000000000000000        0x0 /tmp/ccCWtBvp.ltrans19.ltrans.o
 .text          0x0000000000000000        0x0 /tmp/ccCWtBvp.ltrans20.ltrans.o
 .data          0x0000000000000000        0x0 /tmp/ccCWtBvp.ltrans20.ltrans.o
 .bss           0x0000000000000000        0x0 /tmp/ccCWtBvp.ltrans20.ltrans.o
 .text.AsmFxRestore
                0x0000000000000000       0xa0 /tmp/ccCWtBvp.ltrans20.ltrans.o
 .text.AsmEnablePaging64
                0x0000000000000000       0x8c /tmp/ccCWtBvp.ltrans20.ltrans.o
 .text.AsmEnablePaging32
                0x0000000000000000       0x88 /tmp/ccCWtBvp.ltrans20.ltrans.o
 .text.AsmDisablePaging64
                0x0000000000000000       0x86 /tmp/ccCWtBvp.ltrans20.ltrans.o
 .text.AsmDisablePaging32
                0x0000000000000000       0x88 /tmp/ccCWtBvp.ltrans20.ltrans.o
 .text.AsmRdRand16
                0x0000000000000000       0x3f /tmp/ccCWtBvp.ltrans20.ltrans.o
 .text.AsmRdRand32
                0x0000000000000000       0x3f /tmp/ccCWtBvp.ltrans20.ltrans.o
 .text.AsmRdRand64
                0x0000000000000000       0x3f /tmp/ccCWtBvp.ltrans20.ltrans.o
 .text.PatchInstructionX86
                0x0000000000000000      0x171 /tmp/ccCWtBvp.ltrans20.ltrans.o
 .text.SpeculationBarrier
                0x0000000000000000       0x4b /tmp/ccCWtBvp.ltrans20.ltrans.o
 .text.MemoryFence
                0x0000000000000000        0x6 /tmp/ccCWtBvp.ltrans20.ltrans.o
 .text.AsmReadEflags
                0x0000000000000000       0x14 /tmp/ccCWtBvp.ltrans20.ltrans.o
 .text.InternalX86FxSave
                0x0000000000000000       0x11 /tmp/ccCWtBvp.ltrans20.ltrans.o
 .text.InternalX86FxRestore
                0x0000000000000000       0x11 /tmp/ccCWtBvp.ltrans20.ltrans.o
 .text.AsmReadMm0
                0x0000000000000000       0x16 /tmp/ccCWtBvp.ltrans20.ltrans.o
 .text.AsmReadMm1
                0x0000000000000000       0x16 /tmp/ccCWtBvp.ltrans20.ltrans.o
 .text.AsmReadMm2
                0x0000000000000000       0x16 /tmp/ccCWtBvp.ltrans20.ltrans.o
 .text.AsmReadMm3
                0x0000000000000000       0x16 /tmp/ccCWtBvp.ltrans20.ltrans.o
 .text.AsmReadMm4
                0x0000000000000000       0x16 /tmp/ccCWtBvp.ltrans20.ltrans.o
 .text.AsmReadMm5
                0x0000000000000000       0x16 /tmp/ccCWtBvp.ltrans20.ltrans.o
 .text.AsmReadMm6
                0x0000000000000000       0x16 /tmp/ccCWtBvp.ltrans20.ltrans.o
 .text.AsmReadMm7
                0x0000000000000000       0x16 /tmp/ccCWtBvp.ltrans20.ltrans.o
 .text.AsmWriteMm0
                0x0000000000000000        0xe /tmp/ccCWtBvp.ltrans20.ltrans.o
 .text.AsmWriteMm1
                0x0000000000000000        0xe /tmp/ccCWtBvp.ltrans20.ltrans.o
 .text.AsmWriteMm2
                0x0000000000000000        0xe /tmp/ccCWtBvp.ltrans20.ltrans.o
 .text.AsmWriteMm3
                0x0000000000000000        0xe /tmp/ccCWtBvp.ltrans20.ltrans.o
 .text.AsmWriteMm4
                0x0000000000000000        0xe /tmp/ccCWtBvp.ltrans20.ltrans.o
 .text.AsmWriteMm5
                0x0000000000000000        0xe /tmp/ccCWtBvp.ltrans20.ltrans.o
 .text.AsmWriteMm6
                0x0000000000000000        0xe /tmp/ccCWtBvp.ltrans20.ltrans.o
 .text.AsmWriteMm7
                0x0000000000000000        0xe /tmp/ccCWtBvp.ltrans20.ltrans.o
 .text.AsmReadTsc
                0x0000000000000000       0x22 /tmp/ccCWtBvp.ltrans20.ltrans.o
 .text.EnableInterrupts
                0x0000000000000000        0x7 /tmp/ccCWtBvp.ltrans20.ltrans.o
 .text.DisableInterrupts
                0x0000000000000000        0x7 /tmp/ccCWtBvp.ltrans20.ltrans.o
 .text.AsmReadMsr64
                0x0000000000000000       0x59 /tmp/ccCWtBvp.ltrans20.ltrans.o
 .text.AsmWriteMsr64
                0x0000000000000000       0x59 /tmp/ccCWtBvp.ltrans20.ltrans.o
 .text.AsmReadCr0
                0x0000000000000000       0x15 /tmp/ccCWtBvp.ltrans20.ltrans.o
 .text.AsmReadCr2
                0x0000000000000000       0x15 /tmp/ccCWtBvp.ltrans20.ltrans.o
 .text.AsmReadCr3
                0x0000000000000000       0x15 /tmp/ccCWtBvp.ltrans20.ltrans.o
 .text.AsmReadCr4
                0x0000000000000000       0x15 /tmp/ccCWtBvp.ltrans20.ltrans.o
 .text.AsmWriteCr0
                0x0000000000000000       0x15 /tmp/ccCWtBvp.ltrans20.ltrans.o
 .text.AsmWriteCr2
                0x0000000000000000       0x15 /tmp/ccCWtBvp.ltrans20.ltrans.o
 .text.AsmWriteCr3
                0x0000000000000000       0x15 /tmp/ccCWtBvp.ltrans20.ltrans.o
 .text.AsmWriteCr4
                0x0000000000000000       0x15 /tmp/ccCWtBvp.ltrans20.ltrans.o
 .text.AsmReadDr0
                0x0000000000000000       0x15 /tmp/ccCWtBvp.ltrans20.ltrans.o
 .text.AsmReadDr1
                0x0000000000000000       0x15 /tmp/ccCWtBvp.ltrans20.ltrans.o
 .text.AsmReadDr2
                0x0000000000000000       0x15 /tmp/ccCWtBvp.ltrans20.ltrans.o
 .text.AsmReadDr3
                0x0000000000000000       0x15 /tmp/ccCWtBvp.ltrans20.ltrans.o
 .text.AsmReadDr4
                0x0000000000000000       0x15 /tmp/ccCWtBvp.ltrans20.ltrans.o
 .text.AsmReadDr5
                0x0000000000000000       0x15 /tmp/ccCWtBvp.ltrans20.ltrans.o
 .text.AsmReadDr6
                0x0000000000000000       0x15 /tmp/ccCWtBvp.ltrans20.ltrans.o
 .text.AsmReadDr7
                0x0000000000000000       0x15 /tmp/ccCWtBvp.ltrans20.ltrans.o
 .text.AsmWriteDr0
                0x0000000000000000       0x15 /tmp/ccCWtBvp.ltrans20.ltrans.o
 .text.AsmWriteDr1
                0x0000000000000000       0x15 /tmp/ccCWtBvp.ltrans20.ltrans.o
 .text.AsmWriteDr2
                0x0000000000000000       0x15 /tmp/ccCWtBvp.ltrans20.ltrans.o
 .text.AsmWriteDr3
                0x0000000000000000       0x15 /tmp/ccCWtBvp.ltrans20.ltrans.o
 .text.AsmWriteDr4
                0x0000000000000000       0x15 /tmp/ccCWtBvp.ltrans20.ltrans.o
 .text.AsmWriteDr5
                0x0000000000000000       0x15 /tmp/ccCWtBvp.ltrans20.ltrans.o
 .text.AsmWriteDr6
                0x0000000000000000       0x15 /tmp/ccCWtBvp.ltrans20.ltrans.o
 .text.AsmWriteDr7
                0x0000000000000000       0x15 /tmp/ccCWtBvp.ltrans20.ltrans.o
 .text.AsmReadCs
                0x0000000000000000       0x15 /tmp/ccCWtBvp.ltrans20.ltrans.o
 .text.AsmReadDs
                0x0000000000000000       0x15 /tmp/ccCWtBvp.ltrans20.ltrans.o
 .text.AsmReadEs
                0x0000000000000000       0x15 /tmp/ccCWtBvp.ltrans20.ltrans.o
 .text.AsmReadFs
                0x0000000000000000       0x15 /tmp/ccCWtBvp.ltrans20.ltrans.o
 .text.AsmReadGs
                0x0000000000000000       0x15 /tmp/ccCWtBvp.ltrans20.ltrans.o
 .text.AsmReadSs
                0x0000000000000000       0x15 /tmp/ccCWtBvp.ltrans20.ltrans.o
 .text.AsmReadTr
                0x0000000000000000       0x16 /tmp/ccCWtBvp.ltrans20.ltrans.o
 .text.InternalX86ReadGdtr
                0x0000000000000000       0x11 /tmp/ccCWtBvp.ltrans20.ltrans.o
 .text.InternalX86WriteGdtr
                0x0000000000000000       0x11 /tmp/ccCWtBvp.ltrans20.ltrans.o
 .text.InternalX86ReadIdtr
                0x0000000000000000       0x11 /tmp/ccCWtBvp.ltrans20.ltrans.o
 .text.InternalX86WriteIdtr
                0x0000000000000000       0x11 /tmp/ccCWtBvp.ltrans20.ltrans.o
 .text.AsmReadLdtr
                0x0000000000000000       0x16 /tmp/ccCWtBvp.ltrans20.ltrans.o
 .text.AsmWriteLdtr
                0x0000000000000000       0x10 /tmp/ccCWtBvp.ltrans20.ltrans.o
 .text.AsmReadPmc
                0x0000000000000000       0x2a /tmp/ccCWtBvp.ltrans20.ltrans.o
 .text.AsmMonitor
                0x0000000000000000       0x25 /tmp/ccCWtBvp.ltrans20.ltrans.o
 .text.AsmMwait
                0x0000000000000000       0x20 /tmp/ccCWtBvp.ltrans20.ltrans.o
 .text.AsmWbinvd
                0x0000000000000000        0x8 /tmp/ccCWtBvp.ltrans20.ltrans.o
 .text.AsmInvd  0x0000000000000000        0x8 /tmp/ccCWtBvp.ltrans20.ltrans.o
 .text.AsmFlushCacheLine
                0x0000000000000000       0x15 /tmp/ccCWtBvp.ltrans20.ltrans.o
 .text.__chkstk
                0x0000000000000000        0x6 /tmp/ccCWtBvp.ltrans20.ltrans.o
 .text.IsDevicePathEndInstance
                0x0000000000000000       0x5c /tmp/ccCWtBvp.ltrans20.ltrans.o
 .text.UefiDevicePathLibCreateDeviceNode
                0x0000000000000000       0x67 /tmp/ccCWtBvp.ltrans20.ltrans.o
 .text.UefiDevicePathLibIsDevicePathMultiInstance
                0x0000000000000000       0x7b /tmp/ccCWtBvp.ltrans20.ltrans.o
 .comment       0x0000000000000000       0x2e /tmp/ccCWtBvp.ltrans20.ltrans.o
 .note.GNU-stack
                0x0000000000000000        0x0 /tmp/ccCWtBvp.ltrans20.ltrans.o
 .text          0x0000000000000000        0x0 /tmp/ccCWtBvp.ltrans21.ltrans.o
 .data          0x0000000000000000        0x0 /tmp/ccCWtBvp.ltrans21.ltrans.o
 .bss           0x0000000000000000        0x0 /tmp/ccCWtBvp.ltrans21.ltrans.o
 .text.InternalIsDecimalDigitCharacter
                0x0000000000000000       0x26 /tmp/ccCWtBvp.ltrans21.ltrans.o
 .text.CharToUpper
                0x0000000000000000       0x27 /tmp/ccCWtBvp.ltrans21.ltrans.o
 .text.InternalHexCharToUintn
                0x0000000000000000       0x3d /tmp/ccCWtBvp.ltrans21.ltrans.o
 .text.InternalIsHexaDecimalDigitCharacter
                0x0000000000000000       0x47 /tmp/ccCWtBvp.ltrans21.ltrans.o
 .text.StrDecimalToUintn
                0x0000000000000000       0x27 /tmp/ccCWtBvp.ltrans21.ltrans.o
 .text.StrDecimalToUint64
                0x0000000000000000       0x27 /tmp/ccCWtBvp.ltrans21.ltrans.o
 .text.StrHexToUintn
                0x0000000000000000       0x27 /tmp/ccCWtBvp.ltrans21.ltrans.o
 .text.StrHexToUint64
                0x0000000000000000       0x27 /tmp/ccCWtBvp.ltrans21.ltrans.o
 .text.InternalAsciiIsDecimalDigitCharacter
                0x0000000000000000       0x23 /tmp/ccCWtBvp.ltrans21.ltrans.o
 .text.InternalAsciiIsHexaDecimalDigitCharacter
                0x0000000000000000       0x42 /tmp/ccCWtBvp.ltrans21.ltrans.o
 .text.AsciiCharToUpper
                0x0000000000000000       0x24 /tmp/ccCWtBvp.ltrans21.ltrans.o
 .text.InternalAsciiHexCharToUintn
                0x0000000000000000       0x40 /tmp/ccCWtBvp.ltrans21.ltrans.o
 .text.AsciiStriCmp
                0x0000000000000000       0xfc /tmp/ccCWtBvp.ltrans21.ltrans.o
 .text.AsciiStrStr
                0x0000000000000000       0xfc /tmp/ccCWtBvp.ltrans21.ltrans.o
 .text.AsciiStrDecimalToUintn
                0x0000000000000000       0x27 /tmp/ccCWtBvp.ltrans21.ltrans.o
 .text.AsciiStrDecimalToUint64
                0x0000000000000000       0x27 /tmp/ccCWtBvp.ltrans21.ltrans.o
 .text.AsciiStrHexToUintn
                0x0000000000000000       0x27 /tmp/ccCWtBvp.ltrans21.ltrans.o
 .text.AsciiStrHexToUint64
                0x0000000000000000       0x27 /tmp/ccCWtBvp.ltrans21.ltrans.o
 .text.Base64Encode
                0x0000000000000000      0x350 /tmp/ccCWtBvp.ltrans21.ltrans.o
 .text.Base64Decode
                0x0000000000000000      0x3a9 /tmp/ccCWtBvp.ltrans21.ltrans.o
 .text.DecimalToBcd8
                0x0000000000000000       0x99 /tmp/ccCWtBvp.ltrans21.ltrans.o
 .text.BcdToDecimal8
                0x0000000000000000       0x80 /tmp/ccCWtBvp.ltrans21.ltrans.o
 .text.PathRemoveLastItem
                0x0000000000000000       0xb9 /tmp/ccCWtBvp.ltrans21.ltrans.o
 .rodata.str2.2
                0x0000000000000000       0x1c /tmp/ccCWtBvp.ltrans21.ltrans.o
 .text.PathCleanUpDirectories
                0x0000000000000000      0x1f1 /tmp/ccCWtBvp.ltrans21.ltrans.o
 .text.InternalX86EnablePaging32
                0x0000000000000000       0x3b /tmp/ccCWtBvp.ltrans21.ltrans.o
 .text.InternalX86DisablePaging32
                0x0000000000000000       0x3b /tmp/ccCWtBvp.ltrans21.ltrans.o
 .text.InternalX86EnablePaging64
                0x0000000000000000       0x3d /tmp/ccCWtBvp.ltrans21.ltrans.o
 .text.InternalMathARShiftU64
                0x0000000000000000       0x6b /tmp/ccCWtBvp.ltrans21.ltrans.o
 .text.InternalMathLRotU64
                0x0000000000000000       0x1e /tmp/ccCWtBvp.ltrans21.ltrans.o
 .text.InternalMathRRotU64
                0x0000000000000000       0x1e /tmp/ccCWtBvp.ltrans21.ltrans.o
 .text.InternalMathSwapBytes64
                0x0000000000000000       0x40 /tmp/ccCWtBvp.ltrans21.ltrans.o
 .text.InternalMathMultU64x64
                0x0000000000000000       0x17 /tmp/ccCWtBvp.ltrans21.ltrans.o
 .text.InternalMathDivU64x32
                0x0000000000000000       0x1c /tmp/ccCWtBvp.ltrans21.ltrans.o
 .text.InternalMathModU64x32
                0x0000000000000000       0x1f /tmp/ccCWtBvp.ltrans21.ltrans.o
 .text.InternalMathDivRemU64x64
                0x0000000000000000       0x3a /tmp/ccCWtBvp.ltrans21.ltrans.o
 .text.InternalMathDivRemS64x64
                0x0000000000000000       0x34 /tmp/ccCWtBvp.ltrans21.ltrans.o
 .text.ReadUnaligned24
                0x0000000000000000       0x41 /tmp/ccCWtBvp.ltrans21.ltrans.o
 .text.WriteUnaligned24
                0x0000000000000000       0x62 /tmp/ccCWtBvp.ltrans21.ltrans.o
 .text.AsmWriteIdtr
                0x0000000000000000       0x3f /tmp/ccCWtBvp.ltrans21.ltrans.o
 .text.AsmWriteGdtr
                0x0000000000000000       0x3f /tmp/ccCWtBvp.ltrans21.ltrans.o
 .text.AsmGetThunk16Properties
                0x0000000000000000       0x7c /tmp/ccCWtBvp.ltrans21.ltrans.o
 .text.AsmPrepareThunk16
                0x0000000000000000      0x22b /tmp/ccCWtBvp.ltrans21.ltrans.o
 .text.AsmThunk16
                0x0000000000000000      0x142 /tmp/ccCWtBvp.ltrans21.ltrans.o
 .text.AsmPrepareAndThunk16
                0x0000000000000000       0x20 /tmp/ccCWtBvp.ltrans21.ltrans.o
 .text.AsmReadIdtr
                0x0000000000000000       0x3f /tmp/ccCWtBvp.ltrans21.ltrans.o
 .text.AsmReadGdtr
                0x0000000000000000       0x3f /tmp/ccCWtBvp.ltrans21.ltrans.o
 .text.AsmReadMsr32
                0x0000000000000000       0x15 /tmp/ccCWtBvp.ltrans21.ltrans.o
 .text.AsmWriteMsr32
                0x0000000000000000       0x1e /tmp/ccCWtBvp.ltrans21.ltrans.o
 .text.AsmMsrOr32
                0x0000000000000000       0x1e /tmp/ccCWtBvp.ltrans21.ltrans.o
 .text.AsmMsrAnd32
                0x0000000000000000       0x1e /tmp/ccCWtBvp.ltrans21.ltrans.o
 .text.AsmMsrAndThenOr32
                0x0000000000000000       0x28 /tmp/ccCWtBvp.ltrans21.ltrans.o
 .text.AsmMsrBitFieldRead32
                0x0000000000000000       0x32 /tmp/ccCWtBvp.ltrans21.ltrans.o
 .text.AsmMsrBitFieldWrite32
                0x0000000000000000       0x88 /tmp/ccCWtBvp.ltrans21.ltrans.o
 .text.AsmMsrBitFieldOr32
                0x0000000000000000       0x88 /tmp/ccCWtBvp.ltrans21.ltrans.o
 .text.AsmMsrBitFieldAnd32
                0x0000000000000000       0x88 /tmp/ccCWtBvp.ltrans21.ltrans.o
 .text.AsmMsrBitFieldAndThenOr32
                0x0000000000000000       0x91 /tmp/ccCWtBvp.ltrans21.ltrans.o
 .text.AsmMsrOr64
                0x0000000000000000       0x28 /tmp/ccCWtBvp.ltrans21.ltrans.o
 .text.AsmMsrAnd64
                0x0000000000000000       0x28 /tmp/ccCWtBvp.ltrans21.ltrans.o
 .text.AsmMsrAndThenOr64
                0x0000000000000000       0x30 /tmp/ccCWtBvp.ltrans21.ltrans.o
 .text.AsmMsrBitFieldRead64
                0x0000000000000000       0x33 /tmp/ccCWtBvp.ltrans21.ltrans.o
 .text.AsmMsrBitFieldWrite64
                0x0000000000000000       0x4c /tmp/ccCWtBvp.ltrans21.ltrans.o
 .text.AsmMsrBitFieldOr64
                0x0000000000000000       0x4c /tmp/ccCWtBvp.ltrans21.ltrans.o
 .text.AsmMsrBitFieldAnd64
                0x0000000000000000       0x4c /tmp/ccCWtBvp.ltrans21.ltrans.o
 .text.AsmMsrBitFieldAndThenOr64
                0x0000000000000000       0x55 /tmp/ccCWtBvp.ltrans21.ltrans.o
 .text.GetInterruptState
                0x0000000000000000       0x1f /tmp/ccCWtBvp.ltrans21.ltrans.o
 .text.AsmFxSave
                0x0000000000000000       0x7c /tmp/ccCWtBvp.ltrans21.ltrans.o
 .comment       0x0000000000000000       0x2e /tmp/ccCWtBvp.ltrans21.ltrans.o
 .note.GNU-stack
                0x0000000000000000        0x0 /tmp/ccCWtBvp.ltrans21.ltrans.o
 .text          0x0000000000000000        0x0 /tmp/ccCWtBvp.ltrans22.ltrans.o
 .data          0x0000000000000000        0x0 /tmp/ccCWtBvp.ltrans22.ltrans.o
 .bss           0x0000000000000000        0x0 /tmp/ccCWtBvp.ltrans22.ltrans.o
 .text.AsciiStrHexToUintnS
                0x0000000000000000      0x2d5 /tmp/ccCWtBvp.ltrans22.ltrans.o
 .text.AsciiStrHexToUint64S
                0x0000000000000000      0x2ea /tmp/ccCWtBvp.ltrans22.ltrans.o
 .text.UnicodeStrToAsciiStrS
                0x0000000000000000      0x49e /tmp/ccCWtBvp.ltrans22.ltrans.o
 .text.UnicodeStrnToAsciiStrS
                0x0000000000000000      0x660 /tmp/ccCWtBvp.ltrans22.ltrans.o
 .text.AsciiStrnToUnicodeStrS
                0x0000000000000000      0x634 /tmp/ccCWtBvp.ltrans22.ltrans.o
 .text.AsciiStrToIpv6Address
                0x0000000000000000      0x405 /tmp/ccCWtBvp.ltrans22.ltrans.o
 .text.AsciiStrToIpv4Address
                0x0000000000000000      0x267 /tmp/ccCWtBvp.ltrans22.ltrans.o
 .text.AsciiStrToGuid
                0x0000000000000000      0x2a9 /tmp/ccCWtBvp.ltrans22.ltrans.o
 .text.AsciiStrHexToBytes
                0x0000000000000000      0x35b /tmp/ccCWtBvp.ltrans22.ltrans.o
 .comment       0x0000000000000000       0x2e /tmp/ccCWtBvp.ltrans22.ltrans.o
 .note.GNU-stack
                0x0000000000000000        0x0 /tmp/ccCWtBvp.ltrans22.ltrans.o
 .text          0x0000000000000000        0x0 /tmp/ccCWtBvp.ltrans23.ltrans.o
 .data          0x0000000000000000        0x0 /tmp/ccCWtBvp.ltrans23.ltrans.o
 .bss           0x0000000000000000        0x0 /tmp/ccCWtBvp.ltrans23.ltrans.o
 .text.StrHexToUint64S
                0x0000000000000000      0x321 /tmp/ccCWtBvp.ltrans23.ltrans.o
 .text.StrToIpv6Address
                0x0000000000000000      0x440 /tmp/ccCWtBvp.ltrans23.ltrans.o
 .text.StrToIpv4Address
                0x0000000000000000      0x298 /tmp/ccCWtBvp.ltrans23.ltrans.o
 .text.StrToGuid
                0x0000000000000000      0x2de /tmp/ccCWtBvp.ltrans23.ltrans.o
 .text.StrHexToBytes
                0x0000000000000000      0x397 /tmp/ccCWtBvp.ltrans23.ltrans.o
 .text.AsciiStrnSizeS
                0x0000000000000000       0x34 /tmp/ccCWtBvp.ltrans23.ltrans.o
 .text.AsciiStrCpyS
                0x0000000000000000      0x3b5 /tmp/ccCWtBvp.ltrans23.ltrans.o
 .text.AsciiStrCatS
                0x0000000000000000      0x466 /tmp/ccCWtBvp.ltrans23.ltrans.o
 .text.AsciiStrnCatS
                0x0000000000000000      0x52a /tmp/ccCWtBvp.ltrans23.ltrans.o
 .text.AsciiStrDecimalToUintnS
                0x0000000000000000      0x2a8 /tmp/ccCWtBvp.ltrans23.ltrans.o
 .text.AsciiStrDecimalToUint64S
                0x0000000000000000      0x2a7 /tmp/ccCWtBvp.ltrans23.ltrans.o
 .comment       0x0000000000000000       0x2e /tmp/ccCWtBvp.ltrans23.ltrans.o
 .note.GNU-stack
                0x0000000000000000        0x0 /tmp/ccCWtBvp.ltrans23.ltrans.o
 .text          0x0000000000000000        0x0 /tmp/ccCWtBvp.ltrans24.ltrans.o
 .data          0x0000000000000000        0x0 /tmp/ccCWtBvp.ltrans24.ltrans.o
 .bss           0x0000000000000000        0x0 /tmp/ccCWtBvp.ltrans24.ltrans.o
 .text.SaveAndDisableInterrupts
                0x0000000000000000       0x1b /tmp/ccCWtBvp.ltrans24.ltrans.o
 .text.SetInterruptState
                0x0000000000000000       0x25 /tmp/ccCWtBvp.ltrans24.ltrans.o
 .text.InsertHeadList
                0x0000000000000000       0xba /tmp/ccCWtBvp.ltrans24.ltrans.o
 .text.GetPreviousNode
                0x0000000000000000       0x8a /tmp/ccCWtBvp.ltrans24.ltrans.o
 .text.IsNodeAtEnd
                0x0000000000000000       0xb0 /tmp/ccCWtBvp.ltrans24.ltrans.o
 .text.SwapListEntries
                0x0000000000000000       0xfe /tmp/ccCWtBvp.ltrans24.ltrans.o
 .text.StrnSizeS
                0x0000000000000000       0x37 /tmp/ccCWtBvp.ltrans24.ltrans.o
 .text.StrDecimalToUintnS
                0x0000000000000000      0x2db /tmp/ccCWtBvp.ltrans24.ltrans.o
 .text.StrDecimalToUint64S
                0x0000000000000000      0x2da /tmp/ccCWtBvp.ltrans24.ltrans.o
 .text.StrHexToUintnS
                0x0000000000000000      0x30c /tmp/ccCWtBvp.ltrans24.ltrans.o
 .comment       0x0000000000000000       0x2e /tmp/ccCWtBvp.ltrans24.ltrans.o
 .note.GNU-stack
                0x0000000000000000        0x0 /tmp/ccCWtBvp.ltrans24.ltrans.o
 .text          0x0000000000000000        0x0 /tmp/ccCWtBvp.ltrans25.ltrans.o
 .data          0x0000000000000000        0x0 /tmp/ccCWtBvp.ltrans25.ltrans.o
 .bss           0x0000000000000000        0x0 /tmp/ccCWtBvp.ltrans25.ltrans.o
 .text.CalculateSum8
                0x0000000000000000       0x9a /tmp/ccCWtBvp.ltrans25.ltrans.o
 .text.CalculateCheckSum8
                0x0000000000000000       0x2b /tmp/ccCWtBvp.ltrans25.ltrans.o
 .text.CalculateSum16
                0x0000000000000000      0x106 /tmp/ccCWtBvp.ltrans25.ltrans.o
 .text.CalculateCheckSum16
                0x0000000000000000       0x2c /tmp/ccCWtBvp.ltrans25.ltrans.o
 .text.CalculateSum32
                0x0000000000000000      0x109 /tmp/ccCWtBvp.ltrans25.ltrans.o
 .text.CalculateCheckSum32
                0x0000000000000000       0x2a /tmp/ccCWtBvp.ltrans25.ltrans.o
 .text.CalculateSum64
                0x0000000000000000      0x10d /tmp/ccCWtBvp.ltrans25.ltrans.o
 .text.CalculateCheckSum64
                0x0000000000000000       0x2d /tmp/ccCWtBvp.ltrans25.ltrans.o
 .text.CalculateCrc32
                0x0000000000000000       0xcc /tmp/ccCWtBvp.ltrans25.ltrans.o
 .text.SwitchStack
                0x0000000000000000       0xe7 /tmp/ccCWtBvp.ltrans25.ltrans.o
 .text.SwapBytes64
                0x0000000000000000       0x17 /tmp/ccCWtBvp.ltrans25.ltrans.o
 .text.SwapBytes32
                0x0000000000000000       0x3f /tmp/ccCWtBvp.ltrans25.ltrans.o
 .text.SwapBytes16
                0x0000000000000000       0x1f /tmp/ccCWtBvp.ltrans25.ltrans.o
 .text.LongJump
                0x0000000000000000       0x53 /tmp/ccCWtBvp.ltrans25.ltrans.o
 .text.InternalAssertJumpBuffer
                0x0000000000000000       0x63 /tmp/ccCWtBvp.ltrans25.ltrans.o
 .text.QuickSort
                0x0000000000000000      0x297 /tmp/ccCWtBvp.ltrans25.ltrans.o
 .text.RRotU64  0x0000000000000000       0x4a /tmp/ccCWtBvp.ltrans25.ltrans.o
 .text.RRotU32  0x0000000000000000       0x46 /tmp/ccCWtBvp.ltrans25.ltrans.o
 .text.MultU64x64
                0x0000000000000000       0x2a /tmp/ccCWtBvp.ltrans25.ltrans.o
 .text.MultS64x64
                0x0000000000000000       0x22 /tmp/ccCWtBvp.ltrans25.ltrans.o
 .text.ModU64x32
                0x0000000000000000       0x46 /tmp/ccCWtBvp.ltrans25.ltrans.o
 .text.LRotU64  0x0000000000000000       0x4a /tmp/ccCWtBvp.ltrans25.ltrans.o
 .text.LRotU32  0x0000000000000000       0x46 /tmp/ccCWtBvp.ltrans25.ltrans.o
 .text.LowBitSet64
                0x0000000000000000       0x4f /tmp/ccCWtBvp.ltrans25.ltrans.o
 .text.LowBitSet32
                0x0000000000000000       0x3c /tmp/ccCWtBvp.ltrans25.ltrans.o
 .text.HighBitSet64
                0x0000000000000000       0x46 /tmp/ccCWtBvp.ltrans25.ltrans.o
 .text.HighBitSet32
                0x0000000000000000       0x39 /tmp/ccCWtBvp.ltrans25.ltrans.o
 .text.GetPowerOfTwo64
                0x0000000000000000       0x32 /tmp/ccCWtBvp.ltrans25.ltrans.o
 .text.GetPowerOfTwo32
                0x0000000000000000       0x2f /tmp/ccCWtBvp.ltrans25.ltrans.o
 .text.DivU64x64Remainder
                0x0000000000000000       0x55 /tmp/ccCWtBvp.ltrans25.ltrans.o
 .text.DivU64x32
                0x0000000000000000       0x46 /tmp/ccCWtBvp.ltrans25.ltrans.o
 .text.DivS64x64Remainder
                0x0000000000000000       0x55 /tmp/ccCWtBvp.ltrans25.ltrans.o
 .text.ARShiftU64
                0x0000000000000000       0x4a /tmp/ccCWtBvp.ltrans25.ltrans.o
 .text.InternalBaseLibBitFieldReadUint
                0x0000000000000000       0x35 /tmp/ccCWtBvp.ltrans25.ltrans.o
 .text.InternalBaseLibBitFieldOrUint
                0x0000000000000000       0xa6 /tmp/ccCWtBvp.ltrans25.ltrans.o
 .text.InternalBaseLibBitFieldAndUint
                0x0000000000000000       0xaa /tmp/ccCWtBvp.ltrans25.ltrans.o
 .text.BitFieldRead8
                0x0000000000000000       0x81 /tmp/ccCWtBvp.ltrans25.ltrans.o
 .text.BitFieldWrite8
                0x0000000000000000       0x91 /tmp/ccCWtBvp.ltrans25.ltrans.o
 .text.BitFieldOr8
                0x0000000000000000       0x8f /tmp/ccCWtBvp.ltrans25.ltrans.o
 .text.BitFieldAnd8
                0x0000000000000000       0x8f /tmp/ccCWtBvp.ltrans25.ltrans.o
 .text.BitFieldAndThenOr8
                0x0000000000000000       0xb4 /tmp/ccCWtBvp.ltrans25.ltrans.o
 .text.BitFieldRead16
                0x0000000000000000       0x82 /tmp/ccCWtBvp.ltrans25.ltrans.o
 .text.BitFieldWrite16
                0x0000000000000000       0x93 /tmp/ccCWtBvp.ltrans25.ltrans.o
 .text.BitFieldOr16
                0x0000000000000000       0x91 /tmp/ccCWtBvp.ltrans25.ltrans.o
 .text.BitFieldAnd16
                0x0000000000000000       0x91 /tmp/ccCWtBvp.ltrans25.ltrans.o
 .text.BitFieldAndThenOr16
                0x0000000000000000       0xb7 /tmp/ccCWtBvp.ltrans25.ltrans.o
 .text.BitFieldRead32
                0x0000000000000000       0x7e /tmp/ccCWtBvp.ltrans25.ltrans.o
 .text.BitFieldWrite32
                0x0000000000000000       0x8f /tmp/ccCWtBvp.ltrans25.ltrans.o
 .text.BitFieldOr32
                0x0000000000000000       0x89 /tmp/ccCWtBvp.ltrans25.ltrans.o
 .text.BitFieldAnd32
                0x0000000000000000       0x89 /tmp/ccCWtBvp.ltrans25.ltrans.o
 .text.BitFieldAndThenOr32
                0x0000000000000000       0xa7 /tmp/ccCWtBvp.ltrans25.ltrans.o
 .text.BitFieldRead64
                0x0000000000000000       0x8f /tmp/ccCWtBvp.ltrans25.ltrans.o
 .text.BitFieldWrite64
                0x0000000000000000       0x93 /tmp/ccCWtBvp.ltrans25.ltrans.o
 .text.BitFieldOr64
                0x0000000000000000      0x107 /tmp/ccCWtBvp.ltrans25.ltrans.o
 .text.BitFieldAnd64
                0x0000000000000000      0x110 /tmp/ccCWtBvp.ltrans25.ltrans.o
 .text.BitFieldAndThenOr64
                0x0000000000000000       0xab /tmp/ccCWtBvp.ltrans25.ltrans.o
 .text.BitFieldCountOnes32
                0x0000000000000000       0xd0 /tmp/ccCWtBvp.ltrans25.ltrans.o
 .text.BitFieldCountOnes64
                0x0000000000000000       0xc7 /tmp/ccCWtBvp.ltrans25.ltrans.o
 .comment       0x0000000000000000       0x2e /tmp/ccCWtBvp.ltrans25.ltrans.o
 .note.GNU-stack
                0x0000000000000000        0x0 /tmp/ccCWtBvp.ltrans25.ltrans.o
 .text          0x0000000000000000        0x0 /tmp/ccCWtBvp.ltrans26.ltrans.o
 .data          0x0000000000000000        0x0 /tmp/ccCWtBvp.ltrans26.ltrans.o
 .bss           0x0000000000000000        0x0 /tmp/ccCWtBvp.ltrans26.ltrans.o
 .text.ScanMemN
                0x0000000000000000       0x2d /tmp/ccCWtBvp.ltrans26.ltrans.o
 .text.SetMem64
                0x0000000000000000       0xf8 /tmp/ccCWtBvp.ltrans26.ltrans.o
 .text.SetMem32
                0x0000000000000000       0xf7 /tmp/ccCWtBvp.ltrans26.ltrans.o
 .text.SetMemN  0x0000000000000000       0x2d /tmp/ccCWtBvp.ltrans26.ltrans.o
 .text.InternalMemSetMem32
                0x0000000000000000       0x3c /tmp/ccCWtBvp.ltrans26.ltrans.o
 .text.InternalMemSetMem64
                0x0000000000000000       0x3e /tmp/ccCWtBvp.ltrans26.ltrans.o
 .text.InternalMemScanMem8
                0x0000000000000000       0x48 /tmp/ccCWtBvp.ltrans26.ltrans.o
 .text.InternalMemScanMem16
                0x0000000000000000       0x4a /tmp/ccCWtBvp.ltrans26.ltrans.o
 .text.InternalMemScanMem32
                0x0000000000000000       0x45 /tmp/ccCWtBvp.ltrans26.ltrans.o
 .text.InternalMemScanMem64
                0x0000000000000000       0x47 /tmp/ccCWtBvp.ltrans26.ltrans.o
 .text.ScanGuid
                0x0000000000000000       0xf0 /tmp/ccCWtBvp.ltrans26.ltrans.o
 .text.AllocatePages
                0x0000000000000000       0x8e /tmp/ccCWtBvp.ltrans26.ltrans.o
 .text.AllocateRuntimePages
                0x0000000000000000       0x8e /tmp/ccCWtBvp.ltrans26.ltrans.o
 .text.InternalAllocateAlignedPages
                0x0000000000000000      0x2cf /tmp/ccCWtBvp.ltrans26.ltrans.o
 .text.AllocateAlignedPages
                0x0000000000000000       0x99 /tmp/ccCWtBvp.ltrans26.ltrans.o
 .text.AllocateAlignedRuntimePages
                0x0000000000000000       0x99 /tmp/ccCWtBvp.ltrans26.ltrans.o
 .text.AllocateAlignedReservedPages
                0x0000000000000000       0x99 /tmp/ccCWtBvp.ltrans26.ltrans.o
 .text.FreeAlignedPages
                0x0000000000000000       0xac /tmp/ccCWtBvp.ltrans26.ltrans.o
 .text.AllocateRuntimePool
                0x0000000000000000       0x8e /tmp/ccCWtBvp.ltrans26.ltrans.o
 .text.AllocateReservedPool
                0x0000000000000000       0x8e /tmp/ccCWtBvp.ltrans26.ltrans.o
 .text.AllocateRuntimeZeroPool
                0x0000000000000000       0x8e /tmp/ccCWtBvp.ltrans26.ltrans.o
 .text.AllocateReservedZeroPool
                0x0000000000000000       0x8e /tmp/ccCWtBvp.ltrans26.ltrans.o
 .text.AllocateRuntimeCopyPool
                0x0000000000000000       0x99 /tmp/ccCWtBvp.ltrans26.ltrans.o
 .text.AllocateReservedCopyPool
                0x0000000000000000       0x99 /tmp/ccCWtBvp.ltrans26.ltrans.o
 .text.ReallocateRuntimePool
                0x0000000000000000       0xa4 /tmp/ccCWtBvp.ltrans26.ltrans.o
 .text.ReallocateReservedPool
                0x0000000000000000       0xa4 /tmp/ccCWtBvp.ltrans26.ltrans.o
 .text.CodeTypeToPostCode
                0x0000000000000000       0x7f /tmp/ccCWtBvp.ltrans26.ltrans.o
 .text.ReportStatusCodeExtractAssertInfo
                0x0000000000000000      0x13c /tmp/ccCWtBvp.ltrans26.ltrans.o
 .text.ReportStatusCodeExtractDebugInfo
                0x0000000000000000      0x11a /tmp/ccCWtBvp.ltrans26.ltrans.o
 .text.ReportStatusCodeWithDevicePath
                0x0000000000000000       0x62 /tmp/ccCWtBvp.ltrans26.ltrans.o
 .text.ReportStatusCodeWithExtendedData
                0x0000000000000000       0x9c /tmp/ccCWtBvp.ltrans26.ltrans.o
 .comment       0x0000000000000000       0x2e /tmp/ccCWtBvp.ltrans26.ltrans.o
 .note.GNU-stack
                0x0000000000000000        0x0 /tmp/ccCWtBvp.ltrans26.ltrans.o
 .text          0x0000000000000000        0x0 /tmp/ccCWtBvp.ltrans27.ltrans.o
 .data          0x0000000000000000        0x0 /tmp/ccCWtBvp.ltrans27.ltrans.o
 .bss           0x0000000000000000        0x0 /tmp/ccCWtBvp.ltrans27.ltrans.o
 .text.UnicodeBSPrint
                0x0000000000000000      0x11b /tmp/ccCWtBvp.ltrans27.ltrans.o
 .text.UnicodeVSPrintAsciiFormat
                0x0000000000000000       0xea /tmp/ccCWtBvp.ltrans27.ltrans.o
 .text.UnicodeBSPrintAsciiFormat
                0x0000000000000000       0xee /tmp/ccCWtBvp.ltrans27.ltrans.o
 .text.UnicodeSPrintAsciiFormat
                0x0000000000000000       0x48 /tmp/ccCWtBvp.ltrans27.ltrans.o
 .text.AsciiVSPrint
                0x0000000000000000       0xb5 /tmp/ccCWtBvp.ltrans27.ltrans.o
 .text.AsciiBSPrint
                0x0000000000000000       0xb9 /tmp/ccCWtBvp.ltrans27.ltrans.o
 .text.AsciiSPrint
                0x0000000000000000       0x48 /tmp/ccCWtBvp.ltrans27.ltrans.o
 .text.AsciiVSPrintUnicodeFormat
                0x0000000000000000       0xe4 /tmp/ccCWtBvp.ltrans27.ltrans.o
 .text.AsciiBSPrintUnicodeFormat
                0x0000000000000000       0xe8 /tmp/ccCWtBvp.ltrans27.ltrans.o
 .text.AsciiSPrintUnicodeFormat
                0x0000000000000000       0x48 /tmp/ccCWtBvp.ltrans27.ltrans.o
 .text.AsciiValueToStringS
                0x0000000000000000       0xae /tmp/ccCWtBvp.ltrans27.ltrans.o
 .text.SPrintLengthAsciiFormat
                0x0000000000000000       0xa9 /tmp/ccCWtBvp.ltrans27.ltrans.o
 .text.DebugBPrint
                0x0000000000000000       0xa3 /tmp/ccCWtBvp.ltrans27.ltrans.o
 .text.DebugClearMemory
                0x0000000000000000       0x57 /tmp/ccCWtBvp.ltrans27.ltrans.o
 .text.DebugClearMemoryEnabled
                0x0000000000000000       0x18 /tmp/ccCWtBvp.ltrans27.ltrans.o
 .text.ScanMem64
                0x0000000000000000       0xf9 /tmp/ccCWtBvp.ltrans27.ltrans.o
 .text.ScanMem32
                0x0000000000000000       0xf8 /tmp/ccCWtBvp.ltrans27.ltrans.o
 .text.ScanMem16
                0x0000000000000000       0xfb /tmp/ccCWtBvp.ltrans27.ltrans.o
 .text.ScanMem8
                0x0000000000000000       0x9a /tmp/ccCWtBvp.ltrans27.ltrans.o
 .comment       0x0000000000000000       0x2e /tmp/ccCWtBvp.ltrans27.ltrans.o
 .note.GNU-stack
                0x0000000000000000        0x0 /tmp/ccCWtBvp.ltrans27.ltrans.o
 .text          0x0000000000000000        0x0 /tmp/ccCWtBvp.ltrans28.ltrans.o
 .data          0x0000000000000000        0x0 /tmp/ccCWtBvp.ltrans28.ltrans.o
 .bss           0x0000000000000000        0x0 /tmp/ccCWtBvp.ltrans28.ltrans.o
 .text.LibPcdCancelCallback
                0x0000000000000000       0xb5 /tmp/ccCWtBvp.ltrans28.ltrans.o
 .text.LibPcdGetNextToken
                0x0000000000000000       0x63 /tmp/ccCWtBvp.ltrans28.ltrans.o
 .text.LibPcdGetNextTokenSpace
                0x0000000000000000       0x24 /tmp/ccCWtBvp.ltrans28.ltrans.o
 .text.LibPatchPcdSetPtr
                0x0000000000000000       0xe8 /tmp/ccCWtBvp.ltrans28.ltrans.o
 .text.LibPatchPcdSetPtrS
                0x0000000000000000       0xee /tmp/ccCWtBvp.ltrans28.ltrans.o
 .text.LibPatchPcdSetPtrAndSize
                0x0000000000000000      0x11e /tmp/ccCWtBvp.ltrans28.ltrans.o
 .text.LibPatchPcdSetPtrAndSizeS
                0x0000000000000000      0x124 /tmp/ccCWtBvp.ltrans28.ltrans.o
 .text.LibPcdGetInfo
                0x0000000000000000       0xfe /tmp/ccCWtBvp.ltrans28.ltrans.o
 .text.LibPcdGetInfoEx
                0x0000000000000000      0x109 /tmp/ccCWtBvp.ltrans28.ltrans.o
 .text.LibPcdGetSku
                0x0000000000000000       0x89 /tmp/ccCWtBvp.ltrans28.ltrans.o
 .text.BasePrintLibConvertValueToString
                0x0000000000000000      0x328 /tmp/ccCWtBvp.ltrans28.ltrans.o
 .comment       0x0000000000000000       0x2e /tmp/ccCWtBvp.ltrans28.ltrans.o
 .note.GNU-stack
                0x0000000000000000        0x0 /tmp/ccCWtBvp.ltrans28.ltrans.o
 .text          0x0000000000000000        0x0 /tmp/ccCWtBvp.ltrans29.ltrans.o
 .data          0x0000000000000000        0x0 /tmp/ccCWtBvp.ltrans29.ltrans.o
 .bss           0x0000000000000000        0x0 /tmp/ccCWtBvp.ltrans29.ltrans.o
 .text.ExitDriver
                0x0000000000000000       0x54 /tmp/ccCWtBvp.ltrans29.ltrans.o
 .text.ProcessModuleUnloadList
                0x0000000000000000        0xf /tmp/ccCWtBvp.ltrans29.ltrans.o
 .text.FilterBeforeIoRead
                0x0000000000000000       0x16 /tmp/ccCWtBvp.ltrans29.ltrans.o
 .text.FilterAfterIoRead
                0x0000000000000000       0x11 /tmp/ccCWtBvp.ltrans29.ltrans.o
 .text.FilterBeforeIoWrite
                0x0000000000000000       0x16 /tmp/ccCWtBvp.ltrans29.ltrans.o
 .text.FilterAfterIoWrite
                0x0000000000000000       0x11 /tmp/ccCWtBvp.ltrans29.ltrans.o
 .text.FilterBeforeMmIoRead
                0x0000000000000000       0x16 /tmp/ccCWtBvp.ltrans29.ltrans.o
 .text.FilterAfterMmIoRead
                0x0000000000000000       0x11 /tmp/ccCWtBvp.ltrans29.ltrans.o
 .text.FilterBeforeMmIoWrite
                0x0000000000000000       0x16 /tmp/ccCWtBvp.ltrans29.ltrans.o
 .text.FilterAfterMmIoWrite
                0x0000000000000000       0x11 /tmp/ccCWtBvp.ltrans29.ltrans.o
 .text.FilterBeforeMsrRead
                0x0000000000000000       0x12 /tmp/ccCWtBvp.ltrans29.ltrans.o
 .text.FilterAfterMsrRead
                0x0000000000000000        0xd /tmp/ccCWtBvp.ltrans29.ltrans.o
 .text.FilterBeforeMsrWrite
                0x0000000000000000       0x12 /tmp/ccCWtBvp.ltrans29.ltrans.o
 .text.FilterAfterMsrWrite
                0x0000000000000000        0xd /tmp/ccCWtBvp.ltrans29.ltrans.o
 .text.SetDebugPrintErrorLevel
                0x0000000000000000        0xe /tmp/ccCWtBvp.ltrans29.ltrans.o
 .text.GetPiPcdProtocol
                0x0000000000000000       0xce /tmp/ccCWtBvp.ltrans29.ltrans.o
 .text.GetPiPcdInfoProtocolPointer
                0x0000000000000000       0xce /tmp/ccCWtBvp.ltrans29.ltrans.o
 .text.GetPcdInfoProtocolPointer
                0x0000000000000000       0xce /tmp/ccCWtBvp.ltrans29.ltrans.o
 .text.LibPcdSetSku
                0x0000000000000000       0x20 /tmp/ccCWtBvp.ltrans29.ltrans.o
 .text.LibPcdGet8
                0x0000000000000000       0x1d /tmp/ccCWtBvp.ltrans29.ltrans.o
 .text.LibPcdGet32
                0x0000000000000000       0x1d /tmp/ccCWtBvp.ltrans29.ltrans.o
 .text.LibPcdGet64
                0x0000000000000000       0x1d /tmp/ccCWtBvp.ltrans29.ltrans.o
 .text.LibPcdGetPtr
                0x0000000000000000       0x1d /tmp/ccCWtBvp.ltrans29.ltrans.o
 .text.LibPcdGetSize
                0x0000000000000000       0x1d /tmp/ccCWtBvp.ltrans29.ltrans.o
 .text.LibPcdGetEx8
                0x0000000000000000       0x4d /tmp/ccCWtBvp.ltrans29.ltrans.o
 .text.LibPcdGetEx16
                0x0000000000000000       0x4d /tmp/ccCWtBvp.ltrans29.ltrans.o
 .text.LibPcdGetEx32
                0x0000000000000000       0x4d /tmp/ccCWtBvp.ltrans29.ltrans.o
 .text.LibPcdGetEx64
                0x0000000000000000       0x4d /tmp/ccCWtBvp.ltrans29.ltrans.o
 .text.LibPcdGetExPtr
                0x0000000000000000       0x4d /tmp/ccCWtBvp.ltrans29.ltrans.o
 .text.LibPcdGetExBool
                0x0000000000000000       0x4d /tmp/ccCWtBvp.ltrans29.ltrans.o
 .text.LibPcdGetExSize
                0x0000000000000000       0x4d /tmp/ccCWtBvp.ltrans29.ltrans.o
 .text.LibPcdSet8S
                0x0000000000000000       0x26 /tmp/ccCWtBvp.ltrans29.ltrans.o
 .text.LibPcdSet16S
                0x0000000000000000       0x2a /tmp/ccCWtBvp.ltrans29.ltrans.o
 .text.LibPcdSet64S
                0x0000000000000000       0x28 /tmp/ccCWtBvp.ltrans29.ltrans.o
 .text.LibPcdSetPtrS
                0x0000000000000000       0x8f /tmp/ccCWtBvp.ltrans29.ltrans.o
 .text.LibPcdSetBoolS
                0x0000000000000000       0x29 /tmp/ccCWtBvp.ltrans29.ltrans.o
 .text.LibPcdSetEx8S
                0x0000000000000000       0x5a /tmp/ccCWtBvp.ltrans29.ltrans.o
 .text.LibPcdSetEx16S
                0x0000000000000000       0x5b /tmp/ccCWtBvp.ltrans29.ltrans.o
 .text.LibPcdSetEx32S
                0x0000000000000000       0x57 /tmp/ccCWtBvp.ltrans29.ltrans.o
 .text.LibPcdSetEx64S
                0x0000000000000000       0x58 /tmp/ccCWtBvp.ltrans29.ltrans.o
 .text.LibPcdSetExPtrS
                0x0000000000000000       0xbf /tmp/ccCWtBvp.ltrans29.ltrans.o
 .text.LibPcdSetExBoolS
                0x0000000000000000       0x5a /tmp/ccCWtBvp.ltrans29.ltrans.o
 .text.LibPcdCallbackOnSet
                0x0000000000000000       0xb5 /tmp/ccCWtBvp.ltrans29.ltrans.o
 .comment       0x0000000000000000       0x2e /tmp/ccCWtBvp.ltrans29.ltrans.o
 .note.GNU-stack
                0x0000000000000000        0x0 /tmp/ccCWtBvp.ltrans29.ltrans.o
 .text          0x0000000000000000        0x0 /tmp/ccCWtBvp.ltrans30.ltrans.o
 .data          0x0000000000000000        0x0 /tmp/ccCWtBvp.ltrans30.ltrans.o
 .bss           0x0000000000000000        0x0 /tmp/ccCWtBvp.ltrans30.ltrans.o
 .comment       0x0000000000000000       0x2e /tmp/ccCWtBvp.ltrans30.ltrans.o
 .note.GNU-stack
                0x0000000000000000        0x0 /tmp/ccCWtBvp.ltrans30.ltrans.o
 .text          0x0000000000000000        0x0 /tmp/ccCWtBvp.ltrans31.ltrans.o
 .data          0x0000000000000000        0x0 /tmp/ccCWtBvp.ltrans31.ltrans.o
 .bss           0x0000000000000000        0x0 /tmp/ccCWtBvp.ltrans31.ltrans.o
 .data.gEdkiiDscPlatformGuid
                0x0000000000000000       0x10 /tmp/ccCWtBvp.ltrans31.ltrans.o
 .data.gEfiMdePkgTokenSpaceGuid
                0x0000000000000000       0x10 /tmp/ccCWtBvp.ltrans31.ltrans.o
 .data.gEfiMdeModulePkgTokenSpaceGuid
                0x0000000000000000       0x10 /tmp/ccCWtBvp.ltrans31.ltrans.o
 .data.gEfiAcpi20TableGuid
                0x0000000000000000       0x10 /tmp/ccCWtBvp.ltrans31.ltrans.o
 .data.gEfiAcpi10TableGuid
                0x0000000000000000       0x10 /tmp/ccCWtBvp.ltrans31.ltrans.o
 .data.gEdkiiIfrBitVarstoreGuid
                0x0000000000000000       0x10 /tmp/ccCWtBvp.ltrans31.ltrans.o
 .data.gEfiPcdProtocolGuid
                0x0000000000000000       0x10 /tmp/ccCWtBvp.ltrans31.ltrans.o
 .data.gGetPcdInfoProtocolGuid
                0x0000000000000000       0x10 /tmp/ccCWtBvp.ltrans31.ltrans.o
 .data.gEfiGetPcdInfoProtocolGuid
                0x0000000000000000       0x10 /tmp/ccCWtBvp.ltrans31.ltrans.o
 .data.gEfiDriverBindingProtocolGuid
                0x0000000000000000       0x10 /tmp/ccCWtBvp.ltrans31.ltrans.o
 .data.gEfiUgaDrawProtocolGuid
                0x0000000000000000       0x10 /tmp/ccCWtBvp.ltrans31.ltrans.o
 .data.gEfiDriverConfigurationProtocolGuid
                0x0000000000000000       0x10 /tmp/ccCWtBvp.ltrans31.ltrans.o
 .data.gEfiDriverConfiguration2ProtocolGuid
                0x0000000000000000       0x10 /tmp/ccCWtBvp.ltrans31.ltrans.o
 .data.gEfiDriverDiagnosticsProtocolGuid
                0x0000000000000000       0x10 /tmp/ccCWtBvp.ltrans31.ltrans.o
 .data.gEfiDriverDiagnostics2ProtocolGuid
                0x0000000000000000       0x10 /tmp/ccCWtBvp.ltrans31.ltrans.o
 .data.gEfiPciRootBridgeIoProtocolGuid
                0x0000000000000000       0x10 /tmp/ccCWtBvp.ltrans31.ltrans.o
 .data.gEfiSimpleNetworkProtocolGuid
                0x0000000000000000       0x10 /tmp/ccCWtBvp.ltrans31.ltrans.o
 .data.gEfiDeferredImageLoadProtocolGuid
                0x0000000000000000       0x10 /tmp/ccCWtBvp.ltrans31.ltrans.o
 .bss._gPcd_SkuId_Array
                0x0000000000000000        0x8 /tmp/ccCWtBvp.ltrans31.ltrans.o
 .rodata._gPcd_FixedAtBuild_Size_PcdUefiVariableDefaultPlatformLangCodes
                0x0000000000000000        0x8 /tmp/ccCWtBvp.ltrans31.ltrans.o
 .data._gPcd_BinaryPatch_Size_PcdVideoHorizontalResolution
                0x0000000000000000        0x8 /tmp/ccCWtBvp.ltrans31.ltrans.o
 .data._gPcd_BinaryPatch_Size_PcdVideoVerticalResolution
                0x0000000000000000        0x8 /tmp/ccCWtBvp.ltrans31.ltrans.o
 .data._gPcd_BinaryPatch_Size_PcdSetupConOutColumn
                0x0000000000000000        0x8 /tmp/ccCWtBvp.ltrans31.ltrans.o
 .data._gPcd_BinaryPatch_Size_PcdSetupConOutRow
                0x0000000000000000        0x8 /tmp/ccCWtBvp.ltrans31.ltrans.o
 .data._gPcd_BinaryPatch_Size_PcdSetupVideoHorizontalResolution
                0x0000000000000000        0x8 /tmp/ccCWtBvp.ltrans31.ltrans.o
 .data._gPcd_BinaryPatch_Size_PcdSetupVideoVerticalResolution
                0x0000000000000000        0x8 /tmp/ccCWtBvp.ltrans31.ltrans.o
 .rodata._gPcd_FixedAtBuild_Size_PcdFirmwareVersionString
                0x0000000000000000        0x8 /tmp/ccCWtBvp.ltrans31.ltrans.o
 .rodata._gPcd_FixedAtBuild_PcdDebugClearMemoryValue
                0x0000000000000000        0x1 /tmp/ccCWtBvp.ltrans31.ltrans.o
 .rodata._gPcd_FixedAtBuild_PcdControlFlowEnforcementPropertyMask
                0x0000000000000000        0x4 /tmp/ccCWtBvp.ltrans31.ltrans.o
 .rodata._gPcd_FixedAtBuild_PcdSpeculationBarrierType
                0x0000000000000000        0x1 /tmp/ccCWtBvp.ltrans31.ltrans.o
 .rodata._gPcd_FixedAtBuild_PcdDriverDiagnosticsDisable
                0x0000000000000000        0x1 /tmp/ccCWtBvp.ltrans31.ltrans.o
 .rodata._gPcd_FixedAtBuild_PcdComponentNameDisable
                0x0000000000000000        0x1 /tmp/ccCWtBvp.ltrans31.ltrans.o
 .rodata._gPcd_FixedAtBuild_PcdDriverDiagnostics2Disable
                0x0000000000000000        0x1 /tmp/ccCWtBvp.ltrans31.ltrans.o
 .rodata._gPcd_FixedAtBuild_PcdComponentName2Disable
                0x0000000000000000        0x1 /tmp/ccCWtBvp.ltrans31.ltrans.o
 .rodata._gPcd_FixedAtBuild_PcdUgaConsumeSupport
                0x0000000000000000        0x1 /tmp/ccCWtBvp.ltrans31.ltrans.o
 .rodata._gPcd_FixedAtBuild_Size_PcdBootManagerMenuFile
                0x0000000000000000        0x8 /tmp/ccCWtBvp.ltrans31.ltrans.o
 .rodata._gPcd_FixedAtBuild_Size_PcdDriverHealthConfigureForm
                0x0000000000000000        0x8 /tmp/ccCWtBvp.ltrans31.ltrans.o
 .rodata._gDriverUnloadImageCount
                0x0000000000000000        0x1 /tmp/ccCWtBvp.ltrans31.ltrans.o
 .bss.mPiPcd    0x0000000000000000        0x8 /tmp/ccCWtBvp.ltrans31.ltrans.o
 .bss.mPcdInfo  0x0000000000000000        0x8 /tmp/ccCWtBvp.ltrans31.ltrans.o
 .bss.mPiPcdInfo
                0x0000000000000000        0x8 /tmp/ccCWtBvp.ltrans31.ltrans.o
 .bss.gNullVaList
                0x0000000000000000        0x8 /tmp/ccCWtBvp.ltrans31.ltrans.o
 .bss.mVaListNull
                0x0000000000000000        0x8 /tmp/ccCWtBvp.ltrans31.ltrans.o
 .rodata.mCrcTable
                0x0000000000000000      0x400 /tmp/ccCWtBvp.ltrans31.ltrans.o
 .rodata.__FUNCTION__.2890.lto_priv.27
                0x0000000000000000       0x13 /tmp/ccCWtBvp.ltrans31.ltrans.o
 .rodata.__FUNCTION__.2905.lto_priv.26
                0x0000000000000000       0x14 /tmp/ccCWtBvp.ltrans31.ltrans.o
 .rodata.__FUNCTION__.2920.lto_priv.25
                0x0000000000000000        0xf /tmp/ccCWtBvp.ltrans31.ltrans.o
 .rodata.__FUNCTION__.2935.lto_priv.24
                0x0000000000000000       0x10 /tmp/ccCWtBvp.ltrans31.ltrans.o
 .rodata.__FUNCTION__.2960.lto_priv.23
                0x0000000000000000       0x11 /tmp/ccCWtBvp.ltrans31.ltrans.o
 .rodata.__FUNCTION__.2976.lto_priv.22
                0x0000000000000000       0x11 /tmp/ccCWtBvp.ltrans31.ltrans.o
 .rodata.__FUNCTION__.2986.lto_priv.21
                0x0000000000000000        0xa /tmp/ccCWtBvp.ltrans31.ltrans.o
 .rodata.__FUNCTION__.2994.lto_priv.20
                0x0000000000000000        0xe /tmp/ccCWtBvp.ltrans31.ltrans.o
 .rodata.__FUNCTION__.3019.lto_priv.19
                0x0000000000000000        0xd /tmp/ccCWtBvp.ltrans31.ltrans.o
 .rodata.__FUNCTION__.3042.lto_priv.17
                0x0000000000000000        0xd /tmp/ccCWtBvp.ltrans31.ltrans.o
 .rodata.__FUNCTION__.3055.lto_priv.16
                0x0000000000000000        0xe /tmp/ccCWtBvp.ltrans31.ltrans.o
 .rodata.__FUNCTION__.3064.lto_priv.15
                0x0000000000000000       0x18 /tmp/ccCWtBvp.ltrans31.ltrans.o
 .rodata.__FUNCTION__.3079.lto_priv.14
                0x0000000000000000       0x19 /tmp/ccCWtBvp.ltrans31.ltrans.o
 .rodata.__FUNCTION__.3094.lto_priv.13
                0x0000000000000000       0x14 /tmp/ccCWtBvp.ltrans31.ltrans.o
 .rodata.__FUNCTION__.3109.lto_priv.12
                0x0000000000000000       0x15 /tmp/ccCWtBvp.ltrans31.ltrans.o
 .rodata.__FUNCTION__.3125.lto_priv.11
                0x0000000000000000       0x16 /tmp/ccCWtBvp.ltrans31.ltrans.o
 .rodata.__FUNCTION__.3137.lto_priv.10
                0x0000000000000000       0x17 /tmp/ccCWtBvp.ltrans31.ltrans.o
 .rodata.__FUNCTION__.3159.lto_priv.8
                0x0000000000000000       0x17 /tmp/ccCWtBvp.ltrans31.ltrans.o
 .rodata.__FUNCTION__.3178.lto_priv.7
                0x0000000000000000       0x16 /tmp/ccCWtBvp.ltrans31.ltrans.o
 .rodata.__FUNCTION__.3194.lto_priv.6
                0x0000000000000000       0x16 /tmp/ccCWtBvp.ltrans31.ltrans.o
 .rodata.__FUNCTION__.3204.lto_priv.5
                0x0000000000000000        0xf /tmp/ccCWtBvp.ltrans31.ltrans.o
 .rodata.__FUNCTION__.3212.lto_priv.4
                0x0000000000000000       0x13 /tmp/ccCWtBvp.ltrans31.ltrans.o
 .data.EncodingTable.lto_priv.3
                0x0000000000000000       0x41 /tmp/ccCWtBvp.ltrans31.ltrans.o
 .data.rel.local.mUefiDevicePathLibDevPathFromTextTable
                0x0000000000000000      0x570 /tmp/ccCWtBvp.ltrans31.ltrans.o
 .data.mEfiColors
                0x0000000000000000       0x40 /tmp/ccCWtBvp.ltrans31.ltrans.o
 .rodata.mUnicodeWidthTable
                0x0000000000000000       0x90 /tmp/ccCWtBvp.ltrans31.ltrans.o
 .rodata.mBmUsbLangId
                0x0000000000000000        0x2 /tmp/ccCWtBvp.ltrans31.ltrans.o
 .bss.mBmHotkeyServiceStarted
                0x0000000000000000        0x1 /tmp/ccCWtBvp.ltrans31.ltrans.o
 .bss.mBmHotkeySupportCount
                0x0000000000000000        0x8 /tmp/ccCWtBvp.ltrans31.ltrans.o
 .bss.mBmContinueKeyOption
                0x0000000000000000        0x8 /tmp/ccCWtBvp.ltrans31.ltrans.o
 .bss.mBmTxtInExRegistration
                0x0000000000000000        0x8 /tmp/ccCWtBvp.ltrans31.ltrans.o
 .data.EndDevicePath
                0x0000000000000000        0x4 /tmp/ccCWtBvp.ltrans31.ltrans.o
 .comment       0x0000000000000000       0x2e /tmp/ccCWtBvp.ltrans31.ltrans.o
 .note.GNU-stack
                0x0000000000000000        0x0 /tmp/ccCWtBvp.ltrans31.ltrans.o
 .text          0x0000000000000000      0x204 /home/hcj/UEFIWorkspace/Build/EmulatorX64/DEBUG_GCC5/X64/MdePkg/Library/BaseLib/BaseLib/OUTPUT/BaseLib.lib(Thunk16.obj)
 .data          0x0000000000000000        0xa /home/hcj/UEFIWorkspace/Build/EmulatorX64/DEBUG_GCC5/X64/MdePkg/Library/BaseLib/BaseLib/OUTPUT/BaseLib.lib(Thunk16.obj)
 .text          0x0000000000000000       0x2f /home/hcj/UEFIWorkspace/Build/EmulatorX64/DEBUG_GCC5/X64/MdePkg/Library/BaseLib/BaseLib/OUTPUT/BaseLib.lib(CpuIdEx.obj)
 .text          0x0000000000000000       0x27 /home/hcj/UEFIWorkspace/Build/EmulatorX64/DEBUG_GCC5/X64/MdePkg/Library/BaseLib/BaseLib/OUTPUT/BaseLib.lib(CpuId.obj)
 .text          0x0000000000000000       0xac /home/hcj/UEFIWorkspace/Build/EmulatorX64/DEBUG_GCC5/X64/MdePkg/Library/BaseLib/BaseLib/OUTPUT/BaseLib.lib(LongJump.obj)
 .text          0x0000000000000000       0xc2 /home/hcj/UEFIWorkspace/Build/EmulatorX64/DEBUG_GCC5/X64/MdePkg/Library/BaseLib/BaseLib/OUTPUT/BaseLib.lib(SetJump.obj)
 .text          0x0000000000000000        0xf /home/hcj/UEFIWorkspace/Build/EmulatorX64/DEBUG_GCC5/X64/MdePkg/Library/BaseLib/BaseLib/OUTPUT/BaseLib.lib(SwitchStack.obj)
 .text          0x0000000000000000       0x13 /home/hcj/UEFIWorkspace/Build/EmulatorX64/DEBUG_GCC5/X64/MdePkg/Library/BaseLib/BaseLib/OUTPUT/BaseLib.lib(EnableCache.obj)
 .text          0x0000000000000000       0x13 /home/hcj/UEFIWorkspace/Build/EmulatorX64/DEBUG_GCC5/X64/MdePkg/Library/BaseLib/BaseLib/OUTPUT/BaseLib.lib(DisableCache.obj)
 .text          0x0000000000000000        0x6 /home/hcj/UEFIWorkspace/Build/EmulatorX64/DEBUG_GCC5/X64/MdePkg/Library/BaseLib/BaseLib/OUTPUT/BaseLib.lib(WriteTr.obj)
 .text          0x0000000000000000        0x4 /home/hcj/UEFIWorkspace/Build/EmulatorX64/DEBUG_GCC5/X64/MdePkg/Library/BaseLib/BaseLib/OUTPUT/BaseLib.lib(Lfence.obj)
 .text          0x0000000000000000        0x3 /home/hcj/UEFIWorkspace/Build/EmulatorX64/DEBUG_GCC5/X64/MdePkg/Library/BaseLib/BaseLib/OUTPUT/BaseLib.lib(EnableDisableInterrupts.obj)
 .text          0x0000000000000000       0x61 /home/hcj/UEFIWorkspace/Build/EmulatorX64/DEBUG_GCC5/X64/MdePkg/Library/BaseLib/BaseLib/OUTPUT/BaseLib.lib(DisablePaging64.obj)
 .text          0x0000000000000000       0x1b /home/hcj/UEFIWorkspace/Build/EmulatorX64/DEBUG_GCC5/X64/MdePkg/Library/BaseLib/BaseLib/OUTPUT/BaseLib.lib(Pvalidate.obj)
 .text          0x0000000000000000       0x36 /home/hcj/UEFIWorkspace/Build/EmulatorX64/DEBUG_GCC5/X64/MdePkg/Library/BaseLib/BaseLib/OUTPUT/BaseLib.lib(RdRand.obj)
 .text          0x0000000000000000        0xe /home/hcj/UEFIWorkspace/Build/EmulatorX64/DEBUG_GCC5/X64/MdePkg/Library/BaseLib/BaseLib/OUTPUT/BaseLib.lib(RmpAdjust.obj)
 .text          0x0000000000000000        0xb /home/hcj/UEFIWorkspace/Build/EmulatorX64/DEBUG_GCC5/X64/MdePkg/Library/BaseLib/BaseLib/OUTPUT/BaseLib.lib(XGetBv.obj)
 .text          0x0000000000000000        0xb /home/hcj/UEFIWorkspace/Build/EmulatorX64/DEBUG_GCC5/X64/MdePkg/Library/BaseLib/BaseLib/OUTPUT/BaseLib.lib(XSetBv.obj)
 .text          0x0000000000000000        0x5 /home/hcj/UEFIWorkspace/Build/EmulatorX64/DEBUG_GCC5/X64/MdePkg/Library/BaseLib/BaseLib/OUTPUT/BaseLib.lib(VmgExit.obj)

Memory Configuration

Name             Origin             Length             Attributes
*default*        0x0000000000000000 0xffffffffffffffff

Linker script and memory map

LOAD /tmp/ccCWtBvp.ltrans0.ltrans.o
LOAD /tmp/ccCWtBvp.ltrans1.ltrans.o
LOAD /tmp/ccCWtBvp.ltrans2.ltrans.o
LOAD /tmp/ccCWtBvp.ltrans3.ltrans.o
LOAD /tmp/ccCWtBvp.ltrans4.ltrans.o
LOAD /tmp/ccCWtBvp.ltrans5.ltrans.o
LOAD /tmp/ccCWtBvp.ltrans6.ltrans.o
LOAD /tmp/ccCWtBvp.ltrans7.ltrans.o
LOAD /tmp/ccCWtBvp.ltrans8.ltrans.o
LOAD /tmp/ccCWtBvp.ltrans9.ltrans.o
LOAD /tmp/ccCWtBvp.ltrans10.ltrans.o
LOAD /tmp/ccCWtBvp.ltrans11.ltrans.o
LOAD /tmp/ccCWtBvp.ltrans12.ltrans.o
LOAD /tmp/ccCWtBvp.ltrans13.ltrans.o
LOAD /tmp/ccCWtBvp.ltrans14.ltrans.o
LOAD /tmp/ccCWtBvp.ltrans15.ltrans.o
LOAD /tmp/ccCWtBvp.ltrans16.ltrans.o
LOAD /tmp/ccCWtBvp.ltrans17.ltrans.o
LOAD /tmp/ccCWtBvp.ltrans18.ltrans.o
LOAD /tmp/ccCWtBvp.ltrans19.ltrans.o
LOAD /tmp/ccCWtBvp.ltrans20.ltrans.o
LOAD /tmp/ccCWtBvp.ltrans21.ltrans.o
LOAD /tmp/ccCWtBvp.ltrans22.ltrans.o
LOAD /tmp/ccCWtBvp.ltrans23.ltrans.o
LOAD /tmp/ccCWtBvp.ltrans24.ltrans.o
LOAD /tmp/ccCWtBvp.ltrans25.ltrans.o
LOAD /tmp/ccCWtBvp.ltrans26.ltrans.o
LOAD /tmp/ccCWtBvp.ltrans27.ltrans.o
LOAD /tmp/ccCWtBvp.ltrans28.ltrans.o
LOAD /tmp/ccCWtBvp.ltrans29.ltrans.o
LOAD /tmp/ccCWtBvp.ltrans30.ltrans.o
LOAD /tmp/ccCWtBvp.ltrans31.ltrans.o
START GROUP
LOAD /home/hcj/UEFIWorkspace/Build/EmulatorX64/DEBUG_GCC5/X64/MdeModulePkg/Application/UiApp/UiApp/OUTPUT/UiApp.lib
LOAD /home/hcj/UEFIWorkspace/Build/EmulatorX64/DEBUG_GCC5/X64/MdePkg/Library/RegisterFilterLibNull/RegisterFilterLibNull/OUTPUT/FilterLibNull.lib
LOAD /home/hcj/UEFIWorkspace/Build/EmulatorX64/DEBUG_GCC5/X64/MdePkg/Library/BaseDebugPrintErrorLevelLib/BaseDebugPrintErrorLevelLib/OUTPUT/BaseDebugPrintErrorLevelLib.lib
LOAD /home/hcj/UEFIWorkspace/Build/EmulatorX64/DEBUG_GCC5/X64/MdePkg/Library/DxePcdLib/DxePcdLib/OUTPUT/DxePcdLib.lib
LOAD /home/hcj/UEFIWorkspace/Build/EmulatorX64/DEBUG_GCC5/X64/MdePkg/Library/BasePrintLib/BasePrintLib/OUTPUT/BasePrintLib.lib
LOAD /home/hcj/UEFIWorkspace/Build/EmulatorX64/DEBUG_GCC5/X64/MdeModulePkg/Library/PeiDxeDebugLibReportStatusCode/PeiDxeDebugLibReportStatusCode/OUTPUT/PeiDxeDebugLibReportStatusCode.lib
LOAD /home/hcj/UEFIWorkspace/Build/EmulatorX64/DEBUG_GCC5/X64/MdePkg/Library/BaseMemoryLib/BaseMemoryLib/OUTPUT/BaseMemoryLib.lib
LOAD /home/hcj/UEFIWorkspace/Build/EmulatorX64/DEBUG_GCC5/X64/MdePkg/Library/UefiMemoryAllocationLib/UefiMemoryAllocationLib/OUTPUT/UefiMemoryAllocationLib.lib
LOAD /home/hcj/UEFIWorkspace/Build/EmulatorX64/DEBUG_GCC5/X64/MdeModulePkg/Library/DxeReportStatusCodeLib/DxeReportStatusCodeLib/OUTPUT/DxeReportStatusCodeLib.lib
LOAD /home/hcj/UEFIWorkspace/Build/EmulatorX64/DEBUG_GCC5/X64/MdePkg/Library/BaseLib/BaseLib/OUTPUT/BaseLib.lib
LOAD /home/hcj/UEFIWorkspace/Build/EmulatorX64/DEBUG_GCC5/X64/MdePkg/Library/UefiDevicePathLib/UefiDevicePathLib/OUTPUT/UefiDevicePathLib.lib
LOAD /home/hcj/UEFIWorkspace/Build/EmulatorX64/DEBUG_GCC5/X64/MdePkg/Library/UefiBootServicesTableLib/UefiBootServicesTableLib/OUTPUT/UefiBootServicesTableLib.lib
LOAD /home/hcj/UEFIWorkspace/Build/EmulatorX64/DEBUG_GCC5/X64/MdePkg/Library/UefiRuntimeServicesTableLib/UefiRuntimeServicesTableLib/OUTPUT/UefiRuntimeServicesTableLib.lib
LOAD /home/hcj/UEFIWorkspace/Build/EmulatorX64/DEBUG_GCC5/X64/MdePkg/Library/UefiLib/UefiLib/OUTPUT/UefiLib.lib
LOAD /home/hcj/UEFIWorkspace/Build/EmulatorX64/DEBUG_GCC5/X64/MdePkg/Library/DxeHobLib/DxeHobLib/OUTPUT/DxeHobLib.lib
LOAD /home/hcj/UEFIWorkspace/Build/EmulatorX64/DEBUG_GCC5/X64/MdeModulePkg/Library/UefiHiiServicesLib/UefiHiiServicesLib/OUTPUT/UefiHiiServicesLib.lib
LOAD /home/hcj/UEFIWorkspace/Build/EmulatorX64/DEBUG_GCC5/X64/MdeModulePkg/Library/BaseSortLib/BaseSortLib/OUTPUT/BaseSortLib.lib
LOAD /home/hcj/UEFIWorkspace/Build/EmulatorX64/DEBUG_GCC5/X64/MdePkg/Library/DxeServicesLib/DxeServicesLib/OUTPUT/DxeServicesLib.lib
LOAD /home/hcj/UEFIWorkspace/Build/EmulatorX64/DEBUG_GCC5/X64/MdePkg/Library/DxeServicesTableLib/DxeServicesTableLib/OUTPUT/DxeServicesTableLib.lib
LOAD /home/hcj/UEFIWorkspace/Build/EmulatorX64/DEBUG_GCC5/X64/MdePkg/Library/BasePeCoffGetEntryPointLib/BasePeCoffGetEntryPointLib/OUTPUT/BasePeCoffGetEntryPointLib.lib
LOAD /home/hcj/UEFIWorkspace/Build/EmulatorX64/DEBUG_GCC5/X64/MdePkg/Library/BasePerformanceLibNull/BasePerformanceLibNull/OUTPUT/BasePerformanceLibNull.lib
LOAD /home/hcj/UEFIWorkspace/Build/EmulatorX64/DEBUG_GCC5/X64/MdeModulePkg/Library/UefiHiiLib/UefiHiiLib/OUTPUT/UefiHiiLib.lib
LOAD /home/hcj/UEFIWorkspace/Build/EmulatorX64/DEBUG_GCC5/X64/MdeModulePkg/Library/UefiBootManagerLib/UefiBootManagerLib/OUTPUT/UefiBootManagerLib.lib
LOAD /home/hcj/UEFIWorkspace/Build/EmulatorX64/DEBUG_GCC5/X64/MdeModulePkg/Library/FileExplorerLib/FileExplorerLib/OUTPUT/FileExplorerLib.lib
LOAD /home/hcj/UEFIWorkspace/Build/EmulatorX64/DEBUG_GCC5/X64/MdePkg/Library/UefiApplicationEntryPoint/UefiApplicationEntryPoint/OUTPUT/UefiApplicationEntryPoint.lib
LOAD /home/hcj/UEFIWorkspace/Build/EmulatorX64/DEBUG_GCC5/X64/MdeModulePkg/Library/DeviceManagerUiLib/DeviceManagerUiLib/OUTPUT/DeviceManagerUiLib.lib
LOAD /home/hcj/UEFIWorkspace/Build/EmulatorX64/DEBUG_GCC5/X64/MdeModulePkg/Library/BootManagerUiLib/BootManagerUiLib/OUTPUT/BootManagerUiLib.lib
LOAD /home/hcj/UEFIWorkspace/Build/EmulatorX64/DEBUG_GCC5/X64/MdeModulePkg/Library/BootMaintenanceManagerUiLib/BootMaintenanceManagerUiLib/OUTPUT/BootMaintenanceManagerUiLib.lib
END GROUP
                0x0000000000000228                PECOFF_HEADER_SIZE = 0x228
                0x0000000000000228                . = PECOFF_HEADER_SIZE

.text           0x0000000000000240    0x35857
 *(.text .text.* .stub .gnu.linkonce.t.*)
 .text.CleanUpPage
                0x0000000000000240       0x5c /tmp/ccCWtBvp.ltrans0.ltrans.o
                0x0000000000000240                CleanUpPage
 .text.UpdateConCOMPage
                0x000000000000029c       0xa7 /tmp/ccCWtBvp.ltrans0.ltrans.o
                0x000000000000029c                UpdateConCOMPage
 .text.UpdateBootDelPage
                0x0000000000000343      0x179 /tmp/ccCWtBvp.ltrans0.ltrans.o
                0x0000000000000343                UpdateBootDelPage
 .text.UpdateDrvAddHandlePage
                0x00000000000004bc       0xa7 /tmp/ccCWtBvp.ltrans0.ltrans.o
                0x00000000000004bc                UpdateDrvAddHandlePage
 .text.UpdateDrvDelPage
                0x0000000000000563      0x166 /tmp/ccCWtBvp.ltrans0.ltrans.o
                0x0000000000000563                UpdateDrvDelPage
 .text.UpdateDriverAddHandleDescPage
                0x00000000000006c9      0x179 /tmp/ccCWtBvp.ltrans0.ltrans.o
                0x00000000000006c9                UpdateDriverAddHandleDescPage
 .text.UpdateConsolePage
                0x0000000000000842      0x325 /tmp/ccCWtBvp.ltrans0.ltrans.o
 .text.UpdateOrderPage
                0x0000000000000b67      0x2c8 /tmp/ccCWtBvp.ltrans0.ltrans.o
 .text.UpdateConModePage
                0x0000000000000e2f      0x385 /tmp/ccCWtBvp.ltrans0.ltrans.o
                0x0000000000000e2f                UpdateConModePage
 .text.UpdateTerminalPage
                0x00000000000011b4      0x6c2 /tmp/ccCWtBvp.ltrans0.ltrans.o
                0x00000000000011b4                UpdateTerminalPage
 .text.UpdateOptionPage
                0x0000000000001876      0x215 /tmp/ccCWtBvp.ltrans0.ltrans.o
                0x0000000000001876                UpdateOptionPage
 .text.UpdatePageBody
                0x0000000000001a8b       0xd1 /tmp/ccCWtBvp.ltrans0.ltrans.o
                0x0000000000001a8b                UpdatePageBody
 .text.UpdatePageId
                0x0000000000001b5c       0x86 /tmp/ccCWtBvp.ltrans0.ltrans.o
                0x0000000000001b5c                UpdatePageId
 .text.EfiLibDeleteVariable
                0x0000000000001be2       0x3c /tmp/ccCWtBvp.ltrans0.ltrans.o
                0x0000000000001be2                EfiLibDeleteVariable
 .text.EfiDevicePathInstanceCount
                0x0000000000001c1e       0x36 /tmp/ccCWtBvp.ltrans0.ltrans.o
                0x0000000000001c1e                EfiDevicePathInstanceCount
 .text.EfiLibStrFromDatahub
                0x0000000000001c54       0x13 /tmp/ccCWtBvp.ltrans0.ltrans.o
                0x0000000000001c54                EfiLibStrFromDatahub
 .text.UiCustomizeBMMPage
                0x0000000000001c67       0xb6 /tmp/ccCWtBvp.ltrans0.ltrans.o
                0x0000000000001c67                UiCustomizeBMMPage
 .text.BmmCreateBootNextMenu
                0x0000000000001d1d      0x1c5 /tmp/ccCWtBvp.ltrans0.ltrans.o
 .text.BmmCreateTimeOutMenu
                0x0000000000001ee2       0x73 /tmp/ccCWtBvp.ltrans0.ltrans.o
 .text.BmmCreateBootOptionMenu
                0x0000000000001f55       0x3f /tmp/ccCWtBvp.ltrans0.ltrans.o
 .text.BmmCreateDriverOptionMenu
                0x0000000000001f94       0x3f /tmp/ccCWtBvp.ltrans0.ltrans.o
 .text.BmmCreateComOptionMenu
                0x0000000000001fd3       0x3f /tmp/ccCWtBvp.ltrans0.ltrans.o
 .text.BmmCreateBootFromFileMenu
                0x0000000000002012       0x3f /tmp/ccCWtBvp.ltrans0.ltrans.o
 .text.BmmCreateEmptyLine
                0x0000000000002051       0x37 /tmp/ccCWtBvp.ltrans0.ltrans.o
 .text.ExtractDevicePathFromHandle
                0x0000000000002088       0x96 /tmp/ccCWtBvp.ltrans0.ltrans.o
 .text.IsRequiredDriver
                0x000000000000211e      0x13f /tmp/ccCWtBvp.ltrans0.ltrans.o
 .text.BmmListThirdPartyDrivers
                0x000000000000225d      0x5be /tmp/ccCWtBvp.ltrans0.ltrans.o
 .text.BootFromFile
                0x000000000000281b      0x167 /tmp/ccCWtBvp.ltrans1.ltrans.o
                0x000000000000281b                BootFromFile
 .text.ReSendForm
                0x0000000000002982       0x7f /tmp/ccCWtBvp.ltrans1.ltrans.o
 .text.CreateBootOptionFromFile
                0x0000000000002a01       0x8e /tmp/ccCWtBvp.ltrans1.ltrans.o
                0x0000000000002a01                CreateBootOptionFromFile
 .text.CreateDriverOptionFromFile
                0x0000000000002a8f       0x8e /tmp/ccCWtBvp.ltrans1.ltrans.o
                0x0000000000002a8f                CreateDriverOptionFromFile
 .text.MatchDevicePaths
                0x0000000000002b1d       0xa0 /tmp/ccCWtBvp.ltrans1.ltrans.o
 .text.IsIsaSerialNode
                0x0000000000002bbd       0x51 /tmp/ccCWtBvp.ltrans1.ltrans.o
 .text.ChangeTerminalDevicePath
                0x0000000000002c0e      0x24d /tmp/ccCWtBvp.ltrans1.ltrans.o
                0x0000000000002c0e                ChangeTerminalDevicePath
 .text.RetrieveUartUid
                0x0000000000002e5b       0xe1 /tmp/ccCWtBvp.ltrans1.ltrans.o
 .text.SortedUartHandle
                0x0000000000002f3c      0x14d /tmp/ccCWtBvp.ltrans1.ltrans.o
 .text.LocateSerialIo
                0x0000000000003089      0x5be /tmp/ccCWtBvp.ltrans1.ltrans.o
                0x0000000000003089                LocateSerialIo
 .text.UpdateComAttributeFromVariable
                0x0000000000003647      0x26c /tmp/ccCWtBvp.ltrans1.ltrans.o
 .text.GetConsoleMenu
                0x00000000000038b3      0x37a /tmp/ccCWtBvp.ltrans1.ltrans.o
 .text.GetAllConsoles
                0x0000000000003c2d       0x29 /tmp/ccCWtBvp.ltrans1.ltrans.o
                0x0000000000003c2d                GetAllConsoles
 .text.FreeAllConsoles
                0x0000000000003c56       0x3b /tmp/ccCWtBvp.ltrans1.ltrans.o
                0x0000000000003c56                FreeAllConsoles
 .text.IsTerminalDevicePath
                0x0000000000003c91      0x179 /tmp/ccCWtBvp.ltrans1.ltrans.o
 .text.GetConsoleOutMode
                0x0000000000003e0a       0xb2 /tmp/ccCWtBvp.ltrans1.ltrans.o
                0x0000000000003e0a                GetConsoleOutMode
 .text.GetConsoleInCheck
                0x0000000000003ebc      0x146 /tmp/ccCWtBvp.ltrans1.ltrans.o
                0x0000000000003ebc                GetConsoleInCheck
 .text.GetConsoleOutCheck
                0x0000000000004002      0x146 /tmp/ccCWtBvp.ltrans1.ltrans.o
                0x0000000000004002                GetConsoleOutCheck
 .text.GetConsoleErrCheck
                0x0000000000004148      0x146 /tmp/ccCWtBvp.ltrans1.ltrans.o
                0x0000000000004148                GetConsoleErrCheck
 .text.GetTerminalAttribute
                0x000000000000428e      0x25a /tmp/ccCWtBvp.ltrans1.ltrans.o
                0x000000000000428e                GetTerminalAttribute
 .text.Var_DelBootOption
                0x00000000000044e8      0x107 /tmp/ccCWtBvp.ltrans1.ltrans.o
                0x00000000000044e8                Var_DelBootOption
 .text.Var_DelDriverOption
                0x00000000000045ef       0xe9 /tmp/ccCWtBvp.ltrans1.ltrans.o
                0x00000000000045ef                Var_DelDriverOption
 .text.Var_UpdateConsoleOption
                0x00000000000046d8      0x297 /tmp/ccCWtBvp.ltrans1.ltrans.o
 .text.Var_UpdateConsoleInpOption
                0x000000000000496f       0x1e /tmp/ccCWtBvp.ltrans1.ltrans.o
                0x000000000000496f                Var_UpdateConsoleInpOption
 .text.Var_UpdateConsoleOutOption
                0x000000000000498d       0x1e /tmp/ccCWtBvp.ltrans1.ltrans.o
                0x000000000000498d                Var_UpdateConsoleOutOption
 .text.Var_UpdateErrorOutOption
                0x00000000000049ab       0x1e /tmp/ccCWtBvp.ltrans1.ltrans.o
                0x00000000000049ab                Var_UpdateErrorOutOption
 .text.Var_UpdateDriverOption
                0x00000000000049c9      0x41b /tmp/ccCWtBvp.ltrans1.ltrans.o
                0x00000000000049c9                Var_UpdateDriverOption
 .text.Var_UpdateBootOption
                0x0000000000004de4      0x41e /tmp/ccCWtBvp.ltrans1.ltrans.o
                0x0000000000004de4                Var_UpdateBootOption
 .text.Var_UpdateBootNext
                0x0000000000005202      0x166 /tmp/ccCWtBvp.ltrans1.ltrans.o
                0x0000000000005202                Var_UpdateBootNext
 .text.Var_UpdateBootOrder
                0x0000000000005368      0x1db /tmp/ccCWtBvp.ltrans1.ltrans.o
                0x0000000000005368                Var_UpdateBootOrder
 .text.Var_UpdateDriverOrder
                0x0000000000005543      0x163 /tmp/ccCWtBvp.ltrans1.ltrans.o
                0x0000000000005543                Var_UpdateDriverOrder
 .text.Var_UpdateConMode
                0x00000000000056a6       0x90 /tmp/ccCWtBvp.ltrans1.ltrans.o
                0x00000000000056a6                Var_UpdateConMode
 .text.CreateUpdateData
                0x0000000000005736       0xf1 /tmp/ccCWtBvp.ltrans1.ltrans.o
                0x0000000000005736                CreateUpdateData
 .text.RefreshUpdateData
                0x0000000000005827       0x65 /tmp/ccCWtBvp.ltrans1.ltrans.o
                0x0000000000005827                RefreshUpdateData
 .text.UpdatePageStart
                0x000000000000588c       0x62 /tmp/ccCWtBvp.ltrans1.ltrans.o
                0x000000000000588c                UpdatePageStart
 .text.UpdatePageEnd
                0x00000000000058ee       0xdd /tmp/ccCWtBvp.ltrans1.ltrans.o
                0x00000000000058ee                UpdatePageEnd
 .text.DiscardChangeHandler
                0x00000000000059cb      0x1a9 /tmp/ccCWtBvp.ltrans2.ltrans.o
                0x00000000000059cb                DiscardChangeHandler
 .text.CleanUselessBeforeSubmit
                0x0000000000005b74      0x110 /tmp/ccCWtBvp.ltrans2.ltrans.o
                0x0000000000005b74                CleanUselessBeforeSubmit
 .text.CustomizeMenus
                0x0000000000005c84      0x138 /tmp/ccCWtBvp.ltrans2.ltrans.o
                0x0000000000005c84                CustomizeMenus
 .text.InitializeBmmConfig
                0x0000000000005dbc      0x132 /tmp/ccCWtBvp.ltrans2.ltrans.o
 .text.InitAllMenu
                0x0000000000005eee       0x84 /tmp/ccCWtBvp.ltrans2.ltrans.o
 .text.FreeAllMenu
                0x0000000000005f72       0x41 /tmp/ccCWtBvp.ltrans2.ltrans.o
 .text.BmmInitialBootModeInfo
                0x0000000000005fb3      0x14d /tmp/ccCWtBvp.ltrans2.ltrans.o
 .text.BootMaintenanceManagerUiLibConstructor
                0x0000000000006100      0x324 /tmp/ccCWtBvp.ltrans2.ltrans.o
                0x0000000000006100                BootMaintenanceManagerUiLibConstructor
 .text.BootMaintenanceManagerUiLibDestructor
                0x0000000000006424      0x144 /tmp/ccCWtBvp.ltrans2.ltrans.o
                0x0000000000006424                BootMaintenanceManagerUiLibDestructor
 .text.BmmSetupResetReminder
                0x0000000000006568      0x159 /tmp/ccCWtBvp.ltrans2.ltrans.o
                0x0000000000006568                BmmSetupResetReminder
 .text.BOpt_CreateMenuEntry
                0x00000000000066c1       0xf0 /tmp/ccCWtBvp.ltrans2.ltrans.o
                0x00000000000066c1                BOpt_CreateMenuEntry
 .text.BOpt_DestroyMenuEntry
                0x00000000000067b1      0x1c8 /tmp/ccCWtBvp.ltrans2.ltrans.o
                0x00000000000067b1                BOpt_DestroyMenuEntry
 .text.BOpt_GetMenuEntry
                0x0000000000006979       0xbb /tmp/ccCWtBvp.ltrans2.ltrans.o
                0x0000000000006979                BOpt_GetMenuEntry
 .text.BOpt_FreeMenu
                0x0000000000006a34       0xa2 /tmp/ccCWtBvp.ltrans2.ltrans.o
                0x0000000000006a34                BOpt_FreeMenu
 .text.BOpt_GetBootOptions
                0x0000000000006ad6      0x627 /tmp/ccCWtBvp.ltrans2.ltrans.o
                0x0000000000006ad6                BOpt_GetBootOptions
 .text.BOpt_FindDrivers
                0x00000000000070fd      0x229 /tmp/ccCWtBvp.ltrans2.ltrans.o
 .text.BOpt_GetOptionNumber
                0x0000000000007326      0x142 /tmp/ccCWtBvp.ltrans2.ltrans.o
 .text.BOpt_GetBootOptionNumber
                0x0000000000007468       0x12 /tmp/ccCWtBvp.ltrans2.ltrans.o
                0x0000000000007468                BOpt_GetBootOptionNumber
 .text.BOpt_GetDriverOptionNumber
                0x000000000000747a       0x12 /tmp/ccCWtBvp.ltrans2.ltrans.o
                0x000000000000747a                BOpt_GetDriverOptionNumber
 .text.BOpt_GetDriverOptions
                0x000000000000748c      0x3e7 /tmp/ccCWtBvp.ltrans2.ltrans.o
                0x000000000000748c                BOpt_GetDriverOptions
 .text.GetBootOrder
                0x0000000000007873      0x11d /tmp/ccCWtBvp.ltrans2.ltrans.o
                0x0000000000007873                GetBootOrder
 .text.GetDriverOrder
                0x0000000000007990      0x11d /tmp/ccCWtBvp.ltrans2.ltrans.o
                0x0000000000007990                GetDriverOrder
 .text.BootManagerCallback
                0x0000000000007aad      0x233 /tmp/ccCWtBvp.ltrans3.ltrans.o
                0x0000000000007aad                BootManagerCallback
 .text.BootManagerUiLibConstructor
                0x0000000000007ce0      0x1a3 /tmp/ccCWtBvp.ltrans3.ltrans.o
                0x0000000000007ce0                BootManagerUiLibConstructor
 .text.BootManagerUiLibDestructor
                0x0000000000007e83       0xc4 /tmp/ccCWtBvp.ltrans3.ltrans.o
                0x0000000000007e83                BootManagerUiLibDestructor
 .text.BmmSetConsoleMode
                0x0000000000007f47      0x76a /tmp/ccCWtBvp.ltrans3.ltrans.o
                0x0000000000007f47                BmmSetConsoleMode
 .text.UiDevicePathToStr
                0x00000000000086b1       0xe8 /tmp/ccCWtBvp.ltrans3.ltrans.o
                0x00000000000086b1                UiDevicePathToStr
 .text.ExtractFileNameFromDevicePath
                0x0000000000008799       0xe1 /tmp/ccCWtBvp.ltrans3.ltrans.o
                0x0000000000008799                ExtractFileNameFromDevicePath
 .text.HiiToLower
                0x000000000000887a       0xac /tmp/ccCWtBvp.ltrans3.ltrans.o
 .text.UpdateProgress
                0x0000000000008926       0xc1 /tmp/ccCWtBvp.ltrans3.ltrans.o
 .text.UpdateTerminalContent
                0x00000000000089e7      0x2d0 /tmp/ccCWtBvp.ltrans3.ltrans.o
 .text.UpdateConsoleContent
                0x0000000000008cb7      0x3e1 /tmp/ccCWtBvp.ltrans3.ltrans.o
 .text.BootMaintExtractConfig
                0x0000000000009098      0x258 /tmp/ccCWtBvp.ltrans3.ltrans.o
                0x0000000000009098                BootMaintExtractConfig
 .text.BootMaintRouteConfig
                0x00000000000092f0      0xec9 /tmp/ccCWtBvp.ltrans3.ltrans.o
                0x00000000000092f0                BootMaintRouteConfig
 .text.BootMaintCallback
                0x000000000000a1b9      0x982 /tmp/ccCWtBvp.ltrans3.ltrans.o
                0x000000000000a1b9                BootMaintCallback
 .text.FileExplorerLibConstructor
                0x000000000000ab3b      0x1d9 /tmp/ccCWtBvp.ltrans4.ltrans.o
                0x000000000000ab3b                FileExplorerLibConstructor
 .text.FileExplorerLibDestructor
                0x000000000000ad14      0x11b /tmp/ccCWtBvp.ltrans4.ltrans.o
                0x000000000000ad14                FileExplorerLibDestructor
 .text._ModuleEntryPoint
                0x000000000000ae2f       0x71 /tmp/ccCWtBvp.ltrans4.ltrans.o
                0x000000000000ae2f                _ModuleEntryPoint
 .text.DmExtractDevicePathFromHiiHandle
                0x000000000000aea0       0x96 /tmp/ccCWtBvp.ltrans4.ltrans.o
 .text.GetMacAddressString
                0x000000000000af36      0x27e /tmp/ccCWtBvp.ltrans4.ltrans.o
 .text.AddIdToMacDeviceList
                0x000000000000b1b4      0x1f4 /tmp/ccCWtBvp.ltrans4.ltrans.o
 .text.IsMacAddressDevicePath
                0x000000000000b3a8      0x140 /tmp/ccCWtBvp.ltrans4.ltrans.o
 .text.IsNeedAddNetworkMenu
                0x000000000000b4e8      0x2aa /tmp/ccCWtBvp.ltrans4.ltrans.o
 .text.CreateDeviceManagerForm
                0x000000000000b792      0x84b /tmp/ccCWtBvp.ltrans4.ltrans.o
 .text.DeviceManagerExtractConfig
                0x000000000000bfdd       0x45 /tmp/ccCWtBvp.ltrans4.ltrans.o
                0x000000000000bfdd                DeviceManagerExtractConfig
 .text.DeviceManagerRouteConfig
                0x000000000000c022       0x41 /tmp/ccCWtBvp.ltrans4.ltrans.o
                0x000000000000c022                DeviceManagerRouteConfig
 .text.DeviceManagerCallback
                0x000000000000c063      0x17c /tmp/ccCWtBvp.ltrans4.ltrans.o
                0x000000000000c063                DeviceManagerCallback
 .text.DeviceManagerUiLibConstructor
                0x000000000000c1df      0x1ad /tmp/ccCWtBvp.ltrans4.ltrans.o
                0x000000000000c1df                DeviceManagerUiLibConstructor
 .text.DeviceManagerUiLibDestructor
                0x000000000000c38c       0xc4 /tmp/ccCWtBvp.ltrans4.ltrans.o
                0x000000000000c38c                DeviceManagerUiLibDestructor
 .text.BmSetConsoleMode
                0x000000000000c450      0x76a /tmp/ccCWtBvp.ltrans4.ltrans.o
                0x000000000000c450                BmSetConsoleMode
 .text.BmSetupResetReminder
                0x000000000000cbba      0x159 /tmp/ccCWtBvp.ltrans4.ltrans.o
                0x000000000000cbba                BmSetupResetReminder
 .text.GroupMultipleLegacyBootOption4SameType
                0x000000000000cd13      0x2ff /tmp/ccCWtBvp.ltrans4.ltrans.o
 .text.BmDevicePathToStr
                0x000000000000d012       0xe8 /tmp/ccCWtBvp.ltrans4.ltrans.o
 .text.UpdateBootManager
                0x000000000000d0fa      0x51a /tmp/ccCWtBvp.ltrans4.ltrans.o
                0x000000000000d0fa                UpdateBootManager
 .text.BootManagerExtractConfig
                0x000000000000d614       0x45 /tmp/ccCWtBvp.ltrans4.ltrans.o
                0x000000000000d614                BootManagerExtractConfig
 .text.BootManagerRouteConfig
                0x000000000000d659       0x41 /tmp/ccCWtBvp.ltrans4.ltrans.o
                0x000000000000d659                BootManagerRouteConfig
 .text.BmInitialBootModeInfo
                0x000000000000d69a      0x14d /tmp/ccCWtBvp.ltrans4.ltrans.o
                0x000000000000d69a                BmInitialBootModeInfo
 .text.BmRepairNotify
                0x000000000000d7e7       0x61 /tmp/ccCWtBvp.ltrans5.ltrans.o
 .text.BmGetSingleControllerHealthStatus
                0x000000000000d848      0x451 /tmp/ccCWtBvp.ltrans5.ltrans.o
 .text.EfiBootManagerGetDriverHealthInfo
                0x000000000000dc99      0x458 /tmp/ccCWtBvp.ltrans5.ltrans.o
 .text.EfiBootManagerFreeDriverHealthInfo
                0x000000000000e0f1       0x85 /tmp/ccCWtBvp.ltrans5.ltrans.o
 .text.BmRepairAllControllers
                0x000000000000e176      0x6d9 /tmp/ccCWtBvp.ltrans5.ltrans.o
                0x000000000000e176                BmRepairAllControllers
 .text.LibExtractConfig
                0x000000000000e84f       0x45 /tmp/ccCWtBvp.ltrans5.ltrans.o
                0x000000000000e84f                LibExtractConfig
 .text.LibRouteConfig
                0x000000000000e894       0x41 /tmp/ccCWtBvp.ltrans5.ltrans.o
                0x000000000000e894                LibRouteConfig
 .text.LibCallback
                0x000000000000e8d5      0x389 /tmp/ccCWtBvp.ltrans5.ltrans.o
                0x000000000000e8d5                LibCallback
 .text.LibCreateMenuEntry
                0x000000000000ec5e       0x6a /tmp/ccCWtBvp.ltrans5.ltrans.o
 .text.LibGetMenuEntry
                0x000000000000ecc8       0xbb /tmp/ccCWtBvp.ltrans5.ltrans.o
 .text.LibDestroyMenuEntry
                0x000000000000ed83       0xdd /tmp/ccCWtBvp.ltrans5.ltrans.o
 .text.LibFreeMenu
                0x000000000000ee60       0xa2 /tmp/ccCWtBvp.ltrans5.ltrans.o
 .text.LibOpenRoot
                0x000000000000ef02       0x6f /tmp/ccCWtBvp.ltrans5.ltrans.o
 .text.LibDevicePathToStr
                0x000000000000ef71       0xe8 /tmp/ccCWtBvp.ltrans5.ltrans.o
 .text.LibStrDuplicate
                0x000000000000f059       0x78 /tmp/ccCWtBvp.ltrans5.ltrans.o
 .text.LibFileInfo
                0x000000000000f0d1       0xb6 /tmp/ccCWtBvp.ltrans5.ltrans.o
 .text.LibGetTypeFromName
                0x000000000000f187       0x65 /tmp/ccCWtBvp.ltrans5.ltrans.o
 .text.LibToLowerString
                0x000000000000f1ec       0x54 /tmp/ccCWtBvp.ltrans5.ltrans.o
 .text.LibIsSupportedFileType
                0x000000000000f240       0xc1 /tmp/ccCWtBvp.ltrans5.ltrans.o
 .text.LibAppendFileName
                0x000000000000f301      0x2c9 /tmp/ccCWtBvp.ltrans5.ltrans.o
 .text.LibFindFileSystem
                0x000000000000f5ca      0x2bc /tmp/ccCWtBvp.ltrans5.ltrans.o
 .text.LibGetFileHandleFromMenu
                0x000000000000f886       0x96 /tmp/ccCWtBvp.ltrans5.ltrans.o
 .text.LibGetFileHandleFromDevicePath
                0x000000000000f91c      0x2ff /tmp/ccCWtBvp.ltrans5.ltrans.o
 .text.LibCreateNewFile
                0x000000000000fc1b      0x13e /tmp/ccCWtBvp.ltrans5.ltrans.o
 .text.LibFindFiles
                0x000000000000fd59      0x30a /tmp/ccCWtBvp.ltrans5.ltrans.o
 .text.LibRefreshUpdateData
                0x0000000000010063       0xda /tmp/ccCWtBvp.ltrans5.ltrans.o
 .text.LibUpdateFileExplorePage
                0x000000000001013d      0x21a /tmp/ccCWtBvp.ltrans5.ltrans.o
 .text.LibUpdateFileExplorer
                0x0000000000010357       0xf7 /tmp/ccCWtBvp.ltrans5.ltrans.o
 .text.LibGetDevicePath
                0x000000000001044e       0x81 /tmp/ccCWtBvp.ltrans5.ltrans.o
 .text.ChooseFile
                0x00000000000104cf      0x295 /tmp/ccCWtBvp.ltrans5.ltrans.o
                0x00000000000104cf                ChooseFile
 .text.EfiBootManagerFreeLoadOption
                0x0000000000010764       0x7d /tmp/ccCWtBvp.ltrans6.ltrans.o
                0x0000000000010764                EfiBootManagerFreeLoadOption
 .text.EfiBootManagerFreeLoadOptions
                0x00000000000107e1       0x76 /tmp/ccCWtBvp.ltrans6.ltrans.o
                0x00000000000107e1                EfiBootManagerFreeLoadOptions
 .text.BmIsLoadOptionPeHeaderValid
                0x0000000000010857      0x127 /tmp/ccCWtBvp.ltrans6.ltrans.o
 .text.BmGetNextLoadOptionBuffer
                0x000000000001097e      0x1d0 /tmp/ccCWtBvp.ltrans6.ltrans.o
                0x000000000001097e                BmGetNextLoadOptionBuffer
 .text.BmHotkeyCallback
                0x0000000000010b4e      0x33c /tmp/ccCWtBvp.ltrans6.ltrans.o
 .text.BmGetActiveConsoleIn
                0x0000000000010e8a       0xf4 /tmp/ccCWtBvp.ltrans6.ltrans.o
 .text.BmUnregisterHotkeyNotify
                0x0000000000010f7e      0x1eb /tmp/ccCWtBvp.ltrans6.ltrans.o
 .text.BmStopHotkeyService
                0x0000000000011169      0x191 /tmp/ccCWtBvp.ltrans6.ltrans.o
                0x0000000000011169                BmStopHotkeyService
 .text.BmGetControllerName
                0x00000000000112fa      0x1ac /tmp/ccCWtBvp.ltrans6.ltrans.o
                0x00000000000112fa                BmGetControllerName
 .text.BmDisplayMessages
                0x00000000000114a6      0x194 /tmp/ccCWtBvp.ltrans6.ltrans.o
                0x00000000000114a6                BmDisplayMessages
 .text.BmGetNetworkDescription
                0x000000000001163a      0x3bc /tmp/ccCWtBvp.ltrans7.ltrans.o
                0x000000000001163a                BmGetNetworkDescription
 .text.BmGetLoadFileDescription
                0x00000000000119f6       0xf6 /tmp/ccCWtBvp.ltrans7.ltrans.o
                0x00000000000119f6                BmGetLoadFileDescription
 .text.BmGetNvmeDescription
                0x0000000000011aec      0x2f0 /tmp/ccCWtBvp.ltrans7.ltrans.o
                0x0000000000011aec                BmGetNvmeDescription
 .text.BmGetMiscDescription
                0x0000000000011ddc      0x1ea /tmp/ccCWtBvp.ltrans7.ltrans.o
                0x0000000000011ddc                BmGetMiscDescription
 .text.BmGetBootDescription
                0x0000000000011fc6      0x1f4 /tmp/ccCWtBvp.ltrans7.ltrans.o
                0x0000000000011fc6                BmGetBootDescription
 .text.BmMakeBootOptionDescriptionUnique
                0x00000000000121ba      0x2aa /tmp/ccCWtBvp.ltrans7.ltrans.o
                0x00000000000121ba                BmMakeBootOptionDescriptionUnique
 .text.BmForEachVariable
                0x0000000000012464      0x184 /tmp/ccCWtBvp.ltrans7.ltrans.o
                0x0000000000012464                BmForEachVariable
 .text.BmGetFreeOptionNumber
                0x00000000000125e8      0x215 /tmp/ccCWtBvp.ltrans7.ltrans.o
                0x00000000000125e8                BmGetFreeOptionNumber
 .text.EfiBootManagerLoadOptionToVariable
                0x00000000000127fd      0x2f8 /tmp/ccCWtBvp.ltrans7.ltrans.o
                0x00000000000127fd                EfiBootManagerLoadOptionToVariable
 .text.BmAddOptionNumberToOrderVariable
                0x0000000000012af5      0x1f3 /tmp/ccCWtBvp.ltrans7.ltrans.o
 .text.EfiBootManagerAddLoadOptionVariable
                0x0000000000012ce8      0x1c3 /tmp/ccCWtBvp.ltrans7.ltrans.o
                0x0000000000012ce8                EfiBootManagerAddLoadOptionVariable
 .text.EfiBootManagerInitializeLoadOption
                0x0000000000012eab      0x116 /tmp/ccCWtBvp.ltrans7.ltrans.o
                0x0000000000012eab                EfiBootManagerInitializeLoadOption
 .text.EfiBootManagerFindLoadOption
                0x0000000000012fc1      0x1b2 /tmp/ccCWtBvp.ltrans7.ltrans.o
                0x0000000000012fc1                EfiBootManagerFindLoadOption
 .text.EfiBootManagerDeleteLoadOptionVariable
                0x0000000000013173      0x1f8 /tmp/ccCWtBvp.ltrans7.ltrans.o
                0x0000000000013173                EfiBootManagerDeleteLoadOptionVariable
 .text.BmGetDevicePathSizeEx
                0x000000000001336b       0xa9 /tmp/ccCWtBvp.ltrans7.ltrans.o
 .text.BmStrSizeEx
                0x0000000000013414       0xbd /tmp/ccCWtBvp.ltrans7.ltrans.o
 .text.BmValidateOption
                0x00000000000134d1       0xb2 /tmp/ccCWtBvp.ltrans7.ltrans.o
 .text.EfiBootManagerIsValidLoadOptionVariableName
                0x0000000000013583      0x220 /tmp/ccCWtBvp.ltrans7.ltrans.o
 .text.EfiBootManagerVariableToLoadOptionEx
                0x00000000000137a3      0x310 /tmp/ccCWtBvp.ltrans7.ltrans.o
 .text.EfiBootManagerVariableToLoadOption
                0x0000000000013ab3       0x29 /tmp/ccCWtBvp.ltrans7.ltrans.o
                0x0000000000013ab3                EfiBootManagerVariableToLoadOption
 .text.BmCollectLoadOptions
                0x0000000000013adc      0x258 /tmp/ccCWtBvp.ltrans7.ltrans.o
 .text.EfiBootManagerGetLoadOptions
                0x0000000000013d34      0x41e /tmp/ccCWtBvp.ltrans7.ltrans.o
                0x0000000000013d34                EfiBootManagerGetLoadOptions
 .text.BmGetNextLoadOptionDevicePath
                0x0000000000014152      0x2cb /tmp/ccCWtBvp.ltrans8.ltrans.o
                0x0000000000014152                BmGetNextLoadOptionDevicePath
 .text.BmIsBootManagerMenuFilePath
                0x000000000001441d       0x6e /tmp/ccCWtBvp.ltrans8.ltrans.o
 .text.BmReportLoadFailure
                0x000000000001448b       0xc0 /tmp/ccCWtBvp.ltrans8.ltrans.o
 .text.EfiBootManagerBoot
                0x000000000001454b      0xa36 /tmp/ccCWtBvp.ltrans8.ltrans.o
                0x000000000001454b                EfiBootManagerBoot
 .text.BmMatchPartitionDevicePathNode
                0x0000000000014f81       0xe3 /tmp/ccCWtBvp.ltrans8.ltrans.o
                0x0000000000014f81                BmMatchPartitionDevicePathNode
 .text.BmEnumerateBootOptions
                0x0000000000015064      0x738 /tmp/ccCWtBvp.ltrans8.ltrans.o
 .text.EfiBootManagerRefreshAllBootOption
                0x000000000001579c      0x4a4 /tmp/ccCWtBvp.ltrans8.ltrans.o
                0x000000000001579c                EfiBootManagerRefreshAllBootOption
 .text.BmDevicePathType
                0x0000000000015c40      0x15d /tmp/ccCWtBvp.ltrans8.ltrans.o
                0x0000000000015c40                BmDevicePathType
 .text.BmEliminateExtraSpaces
                0x0000000000015d9d       0xba /tmp/ccCWtBvp.ltrans8.ltrans.o
                0x0000000000015d9d                BmEliminateExtraSpaces
 .text.BmGetDescriptionFromDiskInfo
                0x0000000000015e57      0x498 /tmp/ccCWtBvp.ltrans8.ltrans.o
                0x0000000000015e57                BmGetDescriptionFromDiskInfo
 .text.BmGetUsbDescription
                0x00000000000162ef      0x2bc /tmp/ccCWtBvp.ltrans8.ltrans.o
                0x00000000000162ef                BmGetUsbDescription
 .text.EfiBootManagerConnectAllDefaultConsoles
                0x00000000000165ab      0x2ae /tmp/ccCWtBvp.ltrans9.ltrans.o
                0x00000000000165ab                EfiBootManagerConnectAllDefaultConsoles
 .text.BmEndOfBdsPerfCode
                0x0000000000016859       0x46 /tmp/ccCWtBvp.ltrans9.ltrans.o
                0x0000000000016859                BmEndOfBdsPerfCode
 .text.BmIsAutoCreateBootOption
                0x000000000001689f       0x41 /tmp/ccCWtBvp.ltrans9.ltrans.o
                0x000000000001689f                BmIsAutoCreateBootOption
 .text.BmFindBootOptionInVariable
                0x00000000000168e0      0x21c /tmp/ccCWtBvp.ltrans9.ltrans.o
                0x00000000000168e0                BmFindBootOptionInVariable
 .text.BmAdjustFvFilePath
                0x0000000000016afc      0x1ea /tmp/ccCWtBvp.ltrans9.ltrans.o
                0x0000000000016afc                BmAdjustFvFilePath
 .text.BmIsFvFilePath
                0x0000000000016ce6       0xb7 /tmp/ccCWtBvp.ltrans9.ltrans.o
                0x0000000000016ce6                BmIsFvFilePath
 .text.BmMatchUsbClass
                0x0000000000016d9d      0x172 /tmp/ccCWtBvp.ltrans9.ltrans.o
 .text.BmMatchUsbWwid
                0x0000000000016f0f      0x267 /tmp/ccCWtBvp.ltrans9.ltrans.o
 .text.BmFindUsbDevice
                0x0000000000017176      0x1d9 /tmp/ccCWtBvp.ltrans9.ltrans.o
 .text.BmExpandUsbDevicePath
                0x000000000001734f      0x148 /tmp/ccCWtBvp.ltrans9.ltrans.o
                0x000000000001734f                BmExpandUsbDevicePath
 .text.BmExpandFileDevicePath
                0x0000000000017497      0x1dd /tmp/ccCWtBvp.ltrans9.ltrans.o
                0x0000000000017497                BmExpandFileDevicePath
 .text.BmExpandUriDevicePath
                0x0000000000017674      0x159 /tmp/ccCWtBvp.ltrans9.ltrans.o
                0x0000000000017674                BmExpandUriDevicePath
 .text.BmCachePartitionDevicePath
                0x00000000000177cd      0x136 /tmp/ccCWtBvp.ltrans9.ltrans.o
 .text.BmExpandPartitionDevicePath
                0x0000000000017903      0x3e1 /tmp/ccCWtBvp.ltrans9.ltrans.o
                0x0000000000017903                BmExpandPartitionDevicePath
 .text.BmExpandMediaDevicePath
                0x0000000000017ce4      0x3aa /tmp/ccCWtBvp.ltrans9.ltrans.o
                0x0000000000017ce4                BmExpandMediaDevicePath
 .text.BmMatchHttpBootDevicePath
                0x000000000001808e      0x183 /tmp/ccCWtBvp.ltrans9.ltrans.o
 .text.BmExpandNetworkFileSystem
                0x0000000000018211      0x173 /tmp/ccCWtBvp.ltrans9.ltrans.o
 .text.BmGetRamDiskDevicePath
                0x0000000000018384       0xd9 /tmp/ccCWtBvp.ltrans9.ltrans.o
                0x0000000000018384                BmGetRamDiskDevicePath
 .text.BmGetRamDiskMemoryInfo
                0x000000000001845d      0x172 /tmp/ccCWtBvp.ltrans9.ltrans.o
 .text.BmDestroyRamDisk
                0x00000000000185cf      0x15e /tmp/ccCWtBvp.ltrans9.ltrans.o
                0x00000000000185cf                BmDestroyRamDisk
 .text.BmExpandLoadFile
                0x000000000001872d      0x30e /tmp/ccCWtBvp.ltrans9.ltrans.o
 .text.BmExpandLoadFiles
                0x0000000000018a3b      0x152 /tmp/ccCWtBvp.ltrans9.ltrans.o
                0x0000000000018a3b                BmExpandLoadFiles
 .text.HiiUpdateForm
                0x0000000000018b8d      0x377 /tmp/ccCWtBvp.ltrans10.ltrans.o
                0x0000000000018b8d                HiiUpdateForm
 .text.HiiSetString
                0x0000000000018f04      0x1ff /tmp/ccCWtBvp.ltrans10.ltrans.o
                0x0000000000018f04                HiiSetString
 .text.HiiGetString
                0x0000000000019103       0x34 /tmp/ccCWtBvp.ltrans10.ltrans.o
                0x0000000000019103                HiiGetString
 .text.HiiGetStringEx
                0x0000000000019137      0x26c /tmp/ccCWtBvp.ltrans10.ltrans.o
 .text.HiiGetSupportedLanguages
                0x00000000000193a3       0xe7 /tmp/ccCWtBvp.ltrans10.ltrans.o
 .text.BmConnectAllDriversToAllControllers
                0x000000000001948a       0xbc /tmp/ccCWtBvp.ltrans10.ltrans.o
 .text.EfiBootManagerConnectAll
                0x0000000000019546       0x8d /tmp/ccCWtBvp.ltrans10.ltrans.o
                0x0000000000019546                EfiBootManagerConnectAll
 .text.EfiBootManagerConnectDevicePath
                0x00000000000195d3      0x169 /tmp/ccCWtBvp.ltrans10.ltrans.o
                0x00000000000195d3                EfiBootManagerConnectDevicePath
 .text.BmConnectUsbShortFormDevicePath
                0x000000000001973c      0x1c1 /tmp/ccCWtBvp.ltrans10.ltrans.o
                0x000000000001973c                BmConnectUsbShortFormDevicePath
 .text.BmDelPartMatchInstance
                0x00000000000198fd      0x108 /tmp/ccCWtBvp.ltrans10.ltrans.o
                0x00000000000198fd                BmDelPartMatchInstance
 .text.BmMatchDevicePaths
                0x0000000000019a05       0xa0 /tmp/ccCWtBvp.ltrans10.ltrans.o
                0x0000000000019a05                BmMatchDevicePaths
 .text.BmSetMemoryTypeInformationVariable
                0x0000000000019aa5      0x436 /tmp/ccCWtBvp.ltrans10.ltrans.o
                0x0000000000019aa5                BmSetMemoryTypeInformationVariable
 .text.BmSetVariableAndReportStatusCodeOnError
                0x0000000000019edb      0x17a /tmp/ccCWtBvp.ltrans10.ltrans.o
                0x0000000000019edb                BmSetVariableAndReportStatusCodeOnError
 .text.BmPrintDp
                0x000000000001a055       0x6b /tmp/ccCWtBvp.ltrans10.ltrans.o
                0x000000000001a055                BmPrintDp
 .text.BmCharToUint
                0x000000000001a0c0       0x49 /tmp/ccCWtBvp.ltrans10.ltrans.o
                0x000000000001a0c0                BmCharToUint
 .text.BmUpdateSystemTableConsole
                0x000000000001a109      0x29c /tmp/ccCWtBvp.ltrans10.ltrans.o
                0x000000000001a109                BmUpdateSystemTableConsole
 .text.EfiBootManagerUpdateConsoleVariable
                0x000000000001a3a5      0x27c /tmp/ccCWtBvp.ltrans10.ltrans.o
 .text.EfiBootManagerConnectConsoleVariable
                0x000000000001a621      0x3df /tmp/ccCWtBvp.ltrans10.ltrans.o
                0x000000000001a621                EfiBootManagerConnectConsoleVariable
 .text.InternalHiiCompareSubString
                0x000000000001aa00      0x1a9 /tmp/ccCWtBvp.ltrans11.ltrans.o
 .text.HiiIsConfigHdrMatch
                0x000000000001aba9       0xd0 /tmp/ccCWtBvp.ltrans11.ltrans.o
                0x000000000001aba9                HiiIsConfigHdrMatch
 .text.HiiGetBrowserData
                0x000000000001ac79      0x115 /tmp/ccCWtBvp.ltrans11.ltrans.o
                0x000000000001ac79                HiiGetBrowserData
 .text.HiiSetBrowserData
                0x000000000001ad8e      0x183 /tmp/ccCWtBvp.ltrans11.ltrans.o
                0x000000000001ad8e                HiiSetBrowserData
 .text.HiiAllocateOpCodeHandle
                0x000000000001af11       0x75 /tmp/ccCWtBvp.ltrans11.ltrans.o
                0x000000000001af11                HiiAllocateOpCodeHandle
 .text.HiiFreeOpCodeHandle
                0x000000000001af86       0x65 /tmp/ccCWtBvp.ltrans11.ltrans.o
                0x000000000001af86                HiiFreeOpCodeHandle
 .text.InternalHiiOpCodeHandlePosition
                0x000000000001afeb       0x12 /tmp/ccCWtBvp.ltrans11.ltrans.o
 .text.InternalHiiOpCodeHandleBuffer
                0x000000000001affd       0x11 /tmp/ccCWtBvp.ltrans11.ltrans.o
 .text.InternalHiiGrowOpCodeHandle
                0x000000000001b00e      0x118 /tmp/ccCWtBvp.ltrans11.ltrans.o
 .text.InternalHiiCreateOpCodeExtended
                0x000000000001b126      0x107 /tmp/ccCWtBvp.ltrans11.ltrans.o
 .text.InternalHiiCreateOpCode
                0x000000000001b22d       0x4b /tmp/ccCWtBvp.ltrans11.ltrans.o
 .text.HiiCreateRawOpCodes
                0x000000000001b278       0x69 /tmp/ccCWtBvp.ltrans11.ltrans.o
 .text.InternalHiiAppendOpCodes
                0x000000000001b2e1       0x60 /tmp/ccCWtBvp.ltrans11.ltrans.o
 .text.HiiCreateEndOpCode
                0x000000000001b341       0x2a /tmp/ccCWtBvp.ltrans11.ltrans.o
                0x000000000001b341                HiiCreateEndOpCode
 .text.HiiCreateOneOfOptionOpCode
                0x000000000001b36b       0xcf /tmp/ccCWtBvp.ltrans11.ltrans.o
                0x000000000001b36b                HiiCreateOneOfOptionOpCode
 .text.HiiCreateGuidOpCode
                0x000000000001b43a       0xf9 /tmp/ccCWtBvp.ltrans11.ltrans.o
                0x000000000001b43a                HiiCreateGuidOpCode
 .text.HiiCreateActionOpCode
                0x000000000001b533       0xb1 /tmp/ccCWtBvp.ltrans11.ltrans.o
                0x000000000001b533                HiiCreateActionOpCode
 .text.HiiCreateSubTitleOpCode
                0x000000000001b5e4       0xcb /tmp/ccCWtBvp.ltrans11.ltrans.o
                0x000000000001b5e4                HiiCreateSubTitleOpCode
 .text.HiiCreateGotoOpCode
                0x000000000001b6af       0xb1 /tmp/ccCWtBvp.ltrans11.ltrans.o
                0x000000000001b6af                HiiCreateGotoOpCode
 .text.HiiCreateGotoExOpCode
                0x000000000001b760      0x12b /tmp/ccCWtBvp.ltrans11.ltrans.o
                0x000000000001b760                HiiCreateGotoExOpCode
 .text.HiiCreateCheckBoxOpCode
                0x000000000001b88b      0x13d /tmp/ccCWtBvp.ltrans11.ltrans.o
                0x000000000001b88b                HiiCreateCheckBoxOpCode
 .text.HiiCreateNumericOpCode
                0x000000000001b9c8      0x1f5 /tmp/ccCWtBvp.ltrans11.ltrans.o
                0x000000000001b9c8                HiiCreateNumericOpCode
 .text.HiiCreateStringOpCode
                0x000000000001bbbd      0x167 /tmp/ccCWtBvp.ltrans11.ltrans.o
                0x000000000001bbbd                HiiCreateStringOpCode
 .text.HiiCreateOneOfOpCode
                0x000000000001bd24      0x177 /tmp/ccCWtBvp.ltrans11.ltrans.o
                0x000000000001bd24                HiiCreateOneOfOpCode
 .text.HiiCreateOrderedListOpCode
                0x000000000001be9b      0x176 /tmp/ccCWtBvp.ltrans11.ltrans.o
                0x000000000001be9b                HiiCreateOrderedListOpCode
 .text.HiiCreateTextOpCode
                0x000000000001c011       0x67 /tmp/ccCWtBvp.ltrans11.ltrans.o
                0x000000000001c011                HiiCreateTextOpCode
 .text.InternalHiiUpdateFormPackageData
                0x000000000001c078      0x40b /tmp/ccCWtBvp.ltrans11.ltrans.o
                0x000000000001c078                InternalHiiUpdateFormPackageData
 .text.StartPerformanceMeasurementEx
                0x000000000001c483       0x1b /tmp/ccCWtBvp.ltrans12.ltrans.o
                0x000000000001c483                StartPerformanceMeasurementEx
 .text.EndPerformanceMeasurementEx
                0x000000000001c49e       0x1b /tmp/ccCWtBvp.ltrans12.ltrans.o
                0x000000000001c49e                EndPerformanceMeasurementEx
 .text.PerformanceMeasurementEnabled
                0x000000000001c4b9       0x18 /tmp/ccCWtBvp.ltrans12.ltrans.o
                0x000000000001c4b9                PerformanceMeasurementEnabled
 .text.LogPerformanceMeasurement
                0x000000000001c4d1       0x1b /tmp/ccCWtBvp.ltrans12.ltrans.o
                0x000000000001c4d1                LogPerformanceMeasurement
 .text.LogPerformanceMeasurementEnabled
                0x000000000001c4ec       0x36 /tmp/ccCWtBvp.ltrans12.ltrans.o
                0x000000000001c4ec                LogPerformanceMeasurementEnabled
 .text.InternalHiiExtractGuidFromHiiHandle
                0x000000000001c522      0x17b /tmp/ccCWtBvp.ltrans12.ltrans.o
 .text.HiiAddPackages
                0x000000000001c69d      0x190 /tmp/ccCWtBvp.ltrans12.ltrans.o
                0x000000000001c69d                HiiAddPackages
 .text.HiiRemovePackages
                0x000000000001c82d       0xab /tmp/ccCWtBvp.ltrans12.ltrans.o
                0x000000000001c82d                HiiRemovePackages
 .text.HiiGetHiiHandles
                0x000000000001c8d8      0x222 /tmp/ccCWtBvp.ltrans12.ltrans.o
                0x000000000001c8d8                HiiGetHiiHandles
 .text.HiiGetFormSetFromHiiHandle
                0x000000000001cafa      0x315 /tmp/ccCWtBvp.ltrans12.ltrans.o
                0x000000000001cafa                HiiGetFormSetFromHiiHandle
 .text.InternalHiiLowerConfigString
                0x000000000001ce0f       0xb0 /tmp/ccCWtBvp.ltrans12.ltrans.o
 .text.InternalHiiBlockToConfig
                0x000000000001cebf       0xb0 /tmp/ccCWtBvp.ltrans12.ltrans.o
                0x000000000001cebf                InternalHiiBlockToConfig
 .text.InternalHiiBrowserCallback
                0x000000000001cf6f      0x169 /tmp/ccCWtBvp.ltrans12.ltrans.o
                0x000000000001cf6f                InternalHiiBrowserCallback
 .text.HiiConstructConfigHdr
                0x000000000001d0d8      0x338 /tmp/ccCWtBvp.ltrans12.ltrans.o
                0x000000000001d0d8                HiiConstructConfigHdr
 .text.GetHobList
                0x000000000001d410       0xbe /tmp/ccCWtBvp.ltrans13.ltrans.o
 .text.HobLibConstructor
                0x000000000001d4ce       0x1c /tmp/ccCWtBvp.ltrans13.ltrans.o
                0x000000000001d4ce                HobLibConstructor
 .text.GetNextHob
                0x000000000001d4ea       0x8a /tmp/ccCWtBvp.ltrans13.ltrans.o
 .text.GetNextGuidHob
                0x000000000001d574       0x72 /tmp/ccCWtBvp.ltrans13.ltrans.o
 .text.GetFirstGuidHob
                0x000000000001d5e6       0x27 /tmp/ccCWtBvp.ltrans13.ltrans.o
                0x000000000001d5e6                GetFirstGuidHob
 .text.GetBootModeHob
                0x000000000001d60d       0x1a /tmp/ccCWtBvp.ltrans13.ltrans.o
                0x000000000001d60d                GetBootModeHob
 .text.UefiHiiServicesLibConstructor
                0x000000000001d627      0x1dd /tmp/ccCWtBvp.ltrans13.ltrans.o
                0x000000000001d627                UefiHiiServicesLibConstructor
 .text.GetFileBufferByFilePath
                0x000000000001d804      0x76a /tmp/ccCWtBvp.ltrans13.ltrans.o
                0x000000000001d804                GetFileBufferByFilePath
 .text.DxeServicesTableLibConstructor
                0x000000000001df6e       0xb3 /tmp/ccCWtBvp.ltrans13.ltrans.o
                0x000000000001df6e                DxeServicesTableLibConstructor
 .text.CreatePopUp
                0x000000000001e021      0x806 /tmp/ccCWtBvp.ltrans14.ltrans.o
                0x000000000001e021                CreatePopUp
 .text.UefiLibConstructor
                0x000000000001e827       0x13 /tmp/ccCWtBvp.ltrans14.ltrans.o
                0x000000000001e827                UefiLibConstructor
 .text.EfiGetSystemConfigurationTable
                0x000000000001e83a       0xf9 /tmp/ccCWtBvp.ltrans14.ltrans.o
                0x000000000001e83a                EfiGetSystemConfigurationTable
 .text.EfiEventEmptyFunction
                0x000000000001e933        0xe /tmp/ccCWtBvp.ltrans14.ltrans.o
                0x000000000001e933                EfiEventEmptyFunction
 .text.EfiGetCurrentTpl
                0x000000000001e941       0x38 /tmp/ccCWtBvp.ltrans14.ltrans.o
                0x000000000001e941                EfiGetCurrentTpl
 .text.EfiAcquireLock
                0x000000000001e979       0x90 /tmp/ccCWtBvp.ltrans14.ltrans.o
                0x000000000001e979                EfiAcquireLock
 .text.EfiReleaseLock
                0x000000000001ea09       0x8e /tmp/ccCWtBvp.ltrans14.ltrans.o
                0x000000000001ea09                EfiReleaseLock
 .text.GetVariable2
                0x000000000001ea97      0x186 /tmp/ccCWtBvp.ltrans14.ltrans.o
                0x000000000001ea97                GetVariable2
 .text.GetEfiGlobalVariable2
                0x000000000001ec1d       0x34 /tmp/ccCWtBvp.ltrans14.ltrans.o
                0x000000000001ec1d                GetEfiGlobalVariable2
 .text.GetBestLanguage
                0x000000000001ec51      0x20b /tmp/ccCWtBvp.ltrans14.ltrans.o
                0x000000000001ec51                GetBestLanguage
 .text.UefiLibGetStringWidth
                0x000000000001ee5c      0x134 /tmp/ccCWtBvp.ltrans15.ltrans.o
                0x000000000001ee5c                UefiLibGetStringWidth
 .text.GetDevicePathSize
                0x000000000001ef90       0x17 /tmp/ccCWtBvp.ltrans17.ltrans.o
                0x000000000001ef90                GetDevicePathSize
 .text.DuplicateDevicePath
                0x000000000001efa7       0x17 /tmp/ccCWtBvp.ltrans17.ltrans.o
                0x000000000001efa7                DuplicateDevicePath
 .text.AppendDevicePath
                0x000000000001efbe       0x22 /tmp/ccCWtBvp.ltrans17.ltrans.o
                0x000000000001efbe                AppendDevicePath
 .text.AppendDevicePathNode
                0x000000000001efe0       0x22 /tmp/ccCWtBvp.ltrans17.ltrans.o
                0x000000000001efe0                AppendDevicePathNode
 .text.AppendDevicePathInstance
                0x000000000001f002       0x22 /tmp/ccCWtBvp.ltrans17.ltrans.o
                0x000000000001f002                AppendDevicePathInstance
 .text.GetNextDevicePathInstance
                0x000000000001f024       0x22 /tmp/ccCWtBvp.ltrans17.ltrans.o
                0x000000000001f024                GetNextDevicePathInstance
 .text.ConvertDevicePathToText
                0x000000000001f046       0x2f /tmp/ccCWtBvp.ltrans17.ltrans.o
                0x000000000001f046                ConvertDevicePathToText
 .text.UefiBootServicesTableLibConstructor
                0x000000000001f075       0xc3 /tmp/ccCWtBvp.ltrans17.ltrans.o
                0x000000000001f075                UefiBootServicesTableLibConstructor
 .text.UefiRuntimeServicesTableLibConstructor
                0x000000000001f138       0x53 /tmp/ccCWtBvp.ltrans17.ltrans.o
                0x000000000001f138                UefiRuntimeServicesTableLibConstructor
 .text.InternalPrint
                0x000000000001f18b      0x144 /tmp/ccCWtBvp.ltrans17.ltrans.o
 .text.Print    0x000000000001f2cf       0xc5 /tmp/ccCWtBvp.ltrans17.ltrans.o
                0x000000000001f2cf                Print
 .text.EfiCreateEventLegacyBootEx
                0x000000000001f394      0x108 /tmp/ccCWtBvp.ltrans17.ltrans.o
                0x000000000001f394                EfiCreateEventLegacyBootEx
 .text.EfiCreateEventReadyToBoot
                0x000000000001f49c       0x29 /tmp/ccCWtBvp.ltrans17.ltrans.o
 .text.EfiCreateEventReadyToBootEx
                0x000000000001f4c5      0x108 /tmp/ccCWtBvp.ltrans17.ltrans.o
                0x000000000001f4c5                EfiCreateEventReadyToBootEx
 .text.EfiSignalEventReadyToBoot
                0x000000000001f5cd       0x4b /tmp/ccCWtBvp.ltrans17.ltrans.o
                0x000000000001f5cd                EfiSignalEventReadyToBoot
 .text.EfiGetNameGuidFromFwVolDevicePathNode
                0x000000000001f618       0x65 /tmp/ccCWtBvp.ltrans17.ltrans.o
                0x000000000001f618                EfiGetNameGuidFromFwVolDevicePathNode
 .text.DevPathToTextController
                0x000000000001f67d       0x3f /tmp/ccCWtBvp.ltrans19.ltrans.o
                0x000000000001f67d                DevPathToTextController
 .text.DevPathToTextBmc
                0x000000000001f6bc       0x59 /tmp/ccCWtBvp.ltrans19.ltrans.o
                0x000000000001f6bc                DevPathToTextBmc
 .text.DevPathToTextAcpi
                0x000000000001f715      0x1a3 /tmp/ccCWtBvp.ltrans19.ltrans.o
                0x000000000001f715                DevPathToTextAcpi
 .text.DevPathToTextAcpiEx
                0x000000000001f8b8      0x3b8 /tmp/ccCWtBvp.ltrans19.ltrans.o
                0x000000000001f8b8                DevPathToTextAcpiEx
 .text.DevPathToTextAcpiAdr
                0x000000000001fc70       0xc1 /tmp/ccCWtBvp.ltrans19.ltrans.o
                0x000000000001fc70                DevPathToTextAcpiAdr
 .text.DevPathToTextAtapi
                0x000000000001fd31       0xa8 /tmp/ccCWtBvp.ltrans19.ltrans.o
                0x000000000001fd31                DevPathToTextAtapi
 .text.DevPathToTextScsi
                0x000000000001fdd9       0x51 /tmp/ccCWtBvp.ltrans19.ltrans.o
                0x000000000001fdd9                DevPathToTextScsi
 .text.DevPathToTextFibre
                0x000000000001fe2a       0x4b /tmp/ccCWtBvp.ltrans19.ltrans.o
                0x000000000001fe2a                DevPathToTextFibre
 .text.DevPathToTextFibreEx
                0x000000000001fe75       0xdd /tmp/ccCWtBvp.ltrans19.ltrans.o
                0x000000000001fe75                DevPathToTextFibreEx
 .text.DevPathToTextSasEx
                0x000000000001ff52      0x265 /tmp/ccCWtBvp.ltrans19.ltrans.o
                0x000000000001ff52                DevPathToTextSasEx
 .text.DevPathToTextNVMe
                0x00000000000201b7       0xe9 /tmp/ccCWtBvp.ltrans19.ltrans.o
                0x00000000000201b7                DevPathToTextNVMe
 .text.DevPathToTextUfs
                0x00000000000202a0       0x51 /tmp/ccCWtBvp.ltrans19.ltrans.o
                0x00000000000202a0                DevPathToTextUfs
 .text.DevPathToTextSd
                0x00000000000202f1       0x43 /tmp/ccCWtBvp.ltrans19.ltrans.o
                0x00000000000202f1                DevPathToTextSd
 .text.DevPathToTextEmmc
                0x0000000000020334       0x43 /tmp/ccCWtBvp.ltrans19.ltrans.o
                0x0000000000020334                DevPathToTextEmmc
 .text.DevPathToText1394
                0x0000000000020377       0x40 /tmp/ccCWtBvp.ltrans19.ltrans.o
                0x0000000000020377                DevPathToText1394
 .text.DevPathToTextUsb
                0x00000000000203b7       0x51 /tmp/ccCWtBvp.ltrans19.ltrans.o
                0x00000000000203b7                DevPathToTextUsb
 .text.DevPathToTextUsbWWID
                0x0000000000020408      0x10e /tmp/ccCWtBvp.ltrans19.ltrans.o
                0x0000000000020408                DevPathToTextUsbWWID
 .text.DevPathToTextLogicalUnit
                0x0000000000020516       0x43 /tmp/ccCWtBvp.ltrans19.ltrans.o
                0x0000000000020516                DevPathToTextLogicalUnit
 .text.DevPathToTextUsbClass
                0x0000000000020559      0x37d /tmp/ccCWtBvp.ltrans19.ltrans.o
                0x0000000000020559                DevPathToTextUsbClass
 .text.DevPathToTextSata
                0x00000000000208d6       0x60 /tmp/ccCWtBvp.ltrans19.ltrans.o
                0x00000000000208d6                DevPathToTextSata
 .text.DevPathToTextI2O
                0x0000000000020936       0x3f /tmp/ccCWtBvp.ltrans19.ltrans.o
                0x0000000000020936                DevPathToTextI2O
 .text.DevPathToTextMacAddr
                0x0000000000020975       0xc2 /tmp/ccCWtBvp.ltrans19.ltrans.o
                0x0000000000020975                DevPathToTextMacAddr
 .text.CatNetworkProtocol
                0x0000000000020a37       0x66 /tmp/ccCWtBvp.ltrans19.ltrans.o
 .text.CatIPv4Address
                0x0000000000020a9d       0x5e /tmp/ccCWtBvp.ltrans19.ltrans.o
 .text.CatIPv6Address
                0x0000000000020afb      0x156 /tmp/ccCWtBvp.ltrans19.ltrans.o
 .text.DevPathToTextIPv4
                0x0000000000020c51      0x155 /tmp/ccCWtBvp.ltrans19.ltrans.o
                0x0000000000020c51                DevPathToTextIPv4
 .text.DevPathToTextIPv6
                0x0000000000020da6      0x15d /tmp/ccCWtBvp.ltrans19.ltrans.o
                0x0000000000020da6                DevPathToTextIPv6
 .text.DevPathToTextInfiniBand
                0x0000000000020f03       0x71 /tmp/ccCWtBvp.ltrans19.ltrans.o
                0x0000000000020f03                DevPathToTextInfiniBand
 .text.DevPathToTextUart
                0x0000000000020f74      0x1a7 /tmp/ccCWtBvp.ltrans19.ltrans.o
                0x0000000000020f74                DevPathToTextUart
 .text.DevPathToTextiSCSI
                0x000000000002111b      0x1aa /tmp/ccCWtBvp.ltrans19.ltrans.o
                0x000000000002111b                DevPathToTextiSCSI
 .text.DevPathToTextVlan
                0x00000000000212c5       0x43 /tmp/ccCWtBvp.ltrans19.ltrans.o
                0x00000000000212c5                DevPathToTextVlan
 .text.DevPathToTextBluetooth
                0x0000000000021308       0x89 /tmp/ccCWtBvp.ltrans19.ltrans.o
                0x0000000000021308                DevPathToTextBluetooth
 .text.DevPathToTextWiFi
                0x0000000000021391       0x5a /tmp/ccCWtBvp.ltrans19.ltrans.o
                0x0000000000021391                DevPathToTextWiFi
 .text.DevPathToTextBluetoothLE
                0x00000000000213eb       0x9d /tmp/ccCWtBvp.ltrans19.ltrans.o
                0x00000000000213eb                DevPathToTextBluetoothLE
 .text.DevPathToTextDns
                0x0000000000021488       0xe6 /tmp/ccCWtBvp.ltrans19.ltrans.o
                0x0000000000021488                DevPathToTextDns
 .text.DevPathToTextUri
                0x000000000002156e       0xc1 /tmp/ccCWtBvp.ltrans19.ltrans.o
                0x000000000002156e                DevPathToTextUri
 .text.DevPathToTextHardDrive
                0x000000000002162f       0xf4 /tmp/ccCWtBvp.ltrans19.ltrans.o
                0x000000000002162f                DevPathToTextHardDrive
 .text.DevPathToTextCDROM
                0x0000000000021723       0x7c /tmp/ccCWtBvp.ltrans19.ltrans.o
                0x0000000000021723                DevPathToTextCDROM
 .text.DevPathToTextFilePath
                0x000000000002179f       0x40 /tmp/ccCWtBvp.ltrans19.ltrans.o
                0x000000000002179f                DevPathToTextFilePath
 .text.DevPathToTextMediaProtocol
                0x00000000000217df       0x40 /tmp/ccCWtBvp.ltrans19.ltrans.o
                0x00000000000217df                DevPathToTextMediaProtocol
 .text.DevPathToTextFv
                0x000000000002181f       0x40 /tmp/ccCWtBvp.ltrans19.ltrans.o
                0x000000000002181f                DevPathToTextFv
 .text.DevPathToTextFvFile
                0x000000000002185f       0x40 /tmp/ccCWtBvp.ltrans19.ltrans.o
                0x000000000002185f                DevPathToTextFvFile
 .text.DevPathRelativeOffsetRange
                0x000000000002189f       0x4b /tmp/ccCWtBvp.ltrans19.ltrans.o
                0x000000000002189f                DevPathRelativeOffsetRange
 .text.DevPathToTextRamDisk
                0x00000000000218ea      0x306 /tmp/ccCWtBvp.ltrans19.ltrans.o
                0x00000000000218ea                DevPathToTextRamDisk
 .text.DevPathToTextBBS
                0x0000000000021bf0      0x141 /tmp/ccCWtBvp.ltrans19.ltrans.o
                0x0000000000021bf0                DevPathToTextBBS
 .text.DevPathToTextEndInstance
                0x0000000000021d31       0x2d /tmp/ccCWtBvp.ltrans19.ltrans.o
                0x0000000000021d31                DevPathToTextEndInstance
 .text.DevPathToTextNodeGeneric
                0x0000000000021d5e      0x18c /tmp/ccCWtBvp.ltrans19.ltrans.o
 .text.UefiDevicePathLibConvertDevicePathToText
                0x0000000000021eea      0x283 /tmp/ccCWtBvp.ltrans19.ltrans.o
                0x0000000000021eea                UefiDevicePathLibConvertDevicePathToText
 .text.CpuPause
                0x000000000002216d        0x8 /tmp/ccCWtBvp.ltrans20.ltrans.o
                0x000000000002216d                CpuPause
 .text.CpuBreakpoint
                0x0000000000022175        0x7 /tmp/ccCWtBvp.ltrans20.ltrans.o
                0x0000000000022175                CpuBreakpoint
 .text.IsDevicePathValid
                0x000000000002217c      0x134 /tmp/ccCWtBvp.ltrans20.ltrans.o
                0x000000000002217c                IsDevicePathValid
 .text.DevicePathType
                0x00000000000222b0       0x3d /tmp/ccCWtBvp.ltrans20.ltrans.o
                0x00000000000222b0                DevicePathType
 .text.DevicePathSubType
                0x00000000000222ed       0x3e /tmp/ccCWtBvp.ltrans20.ltrans.o
                0x00000000000222ed                DevicePathSubType
 .text.DevicePathNodeLength
                0x000000000002232b       0x49 /tmp/ccCWtBvp.ltrans20.ltrans.o
                0x000000000002232b                DevicePathNodeLength
 .text.NextDevicePathNode
                0x0000000000022374       0x49 /tmp/ccCWtBvp.ltrans20.ltrans.o
                0x0000000000022374                NextDevicePathNode
 .text.IsDevicePathEndType
                0x00000000000223bd       0x44 /tmp/ccCWtBvp.ltrans20.ltrans.o
                0x00000000000223bd                IsDevicePathEndType
 .text.IsDevicePathEnd
                0x0000000000022401       0x5c /tmp/ccCWtBvp.ltrans20.ltrans.o
                0x0000000000022401                IsDevicePathEnd
 .text.SetDevicePathNodeLength
                0x000000000002245d       0x82 /tmp/ccCWtBvp.ltrans20.ltrans.o
                0x000000000002245d                SetDevicePathNodeLength
 .text.SetDevicePathEndNode
                0x00000000000224df       0x4c /tmp/ccCWtBvp.ltrans20.ltrans.o
                0x00000000000224df                SetDevicePathEndNode
 .text.UefiDevicePathLibGetDevicePathSize
                0x000000000002252b       0x79 /tmp/ccCWtBvp.ltrans20.ltrans.o
                0x000000000002252b                UefiDevicePathLibGetDevicePathSize
 .text.UefiDevicePathLibDuplicateDevicePath
                0x00000000000225a4       0x39 /tmp/ccCWtBvp.ltrans20.ltrans.o
                0x00000000000225a4                UefiDevicePathLibDuplicateDevicePath
 .text.UefiDevicePathLibAppendDevicePath
                0x00000000000225dd      0x110 /tmp/ccCWtBvp.ltrans20.ltrans.o
                0x00000000000225dd                UefiDevicePathLibAppendDevicePath
 .text.UefiDevicePathLibAppendDevicePathNode
                0x00000000000226ed       0xc7 /tmp/ccCWtBvp.ltrans20.ltrans.o
                0x00000000000226ed                UefiDevicePathLibAppendDevicePathNode
 .text.UefiDevicePathLibAppendDevicePathInstance
                0x00000000000227b4      0x117 /tmp/ccCWtBvp.ltrans20.ltrans.o
                0x00000000000227b4                UefiDevicePathLibAppendDevicePathInstance
 .text.UefiDevicePathLibGetNextDevicePathInstance
                0x00000000000228cb      0x135 /tmp/ccCWtBvp.ltrans20.ltrans.o
                0x00000000000228cb                UefiDevicePathLibGetNextDevicePathInstance
 .text.FileDevicePath
                0x0000000000022a00       0xdb /tmp/ccCWtBvp.ltrans20.ltrans.o
                0x0000000000022a00                FileDevicePath
 .text.DevicePathFromHandle
                0x0000000000022adb       0x49 /tmp/ccCWtBvp.ltrans20.ltrans.o
                0x0000000000022adb                DevicePathFromHandle
 .text.UefiDevicePathLibCatPrint
                0x0000000000022b24      0x13d /tmp/ccCWtBvp.ltrans20.ltrans.o
                0x0000000000022b24                UefiDevicePathLibCatPrint
 .text.DevPathToTextPci
                0x0000000000022c61       0x51 /tmp/ccCWtBvp.ltrans20.ltrans.o
                0x0000000000022c61                DevPathToTextPci
 .text.DevPathToTextPccard
                0x0000000000022cb2       0x43 /tmp/ccCWtBvp.ltrans20.ltrans.o
                0x0000000000022cb2                DevPathToTextPccard
 .text.DevPathToTextMemMap
                0x0000000000022cf5       0x57 /tmp/ccCWtBvp.ltrans20.ltrans.o
                0x0000000000022cf5                DevPathToTextMemMap
 .text.DevPathToTextVendor
                0x0000000000022d4c      0x47a /tmp/ccCWtBvp.ltrans20.ltrans.o
                0x0000000000022d4c                DevPathToTextVendor
 .text.StrSize  0x00000000000231c6       0x1e /tmp/ccCWtBvp.ltrans21.ltrans.o
                0x00000000000231c6                StrSize
 .text.StrCmp   0x00000000000231e4       0xb8 /tmp/ccCWtBvp.ltrans21.ltrans.o
                0x00000000000231e4                StrCmp
 .text.StrnCmp  0x000000000002329c      0x11e /tmp/ccCWtBvp.ltrans21.ltrans.o
                0x000000000002329c                StrnCmp
 .text.StrStr   0x00000000000233ba      0x102 /tmp/ccCWtBvp.ltrans21.ltrans.o
                0x00000000000233ba                StrStr
 .text.AsciiStrLen
                0x00000000000234bc       0x92 /tmp/ccCWtBvp.ltrans21.ltrans.o
                0x00000000000234bc                AsciiStrLen
 .text.AsciiStrSize
                0x000000000002354e       0x1b /tmp/ccCWtBvp.ltrans21.ltrans.o
                0x000000000002354e                AsciiStrSize
 .text.AsciiStrCmp
                0x0000000000023569       0xb6 /tmp/ccCWtBvp.ltrans21.ltrans.o
                0x0000000000023569                AsciiStrCmp
 .text.AsciiStrnCmp
                0x000000000002361f      0x11b /tmp/ccCWtBvp.ltrans21.ltrans.o
                0x000000000002361f                AsciiStrnCmp
 .text.InternalMathLShiftU64
                0x000000000002373a       0x1d /tmp/ccCWtBvp.ltrans21.ltrans.o
                0x000000000002373a                InternalMathLShiftU64
 .text.InternalMathRShiftU64
                0x0000000000023757       0x1d /tmp/ccCWtBvp.ltrans21.ltrans.o
                0x0000000000023757                InternalMathRShiftU64
 .text.InternalMathMultU64x32
                0x0000000000023774       0x15 /tmp/ccCWtBvp.ltrans21.ltrans.o
                0x0000000000023774                InternalMathMultU64x32
 .text.InternalMathDivRemU64x32
                0x0000000000023789       0x41 /tmp/ccCWtBvp.ltrans21.ltrans.o
                0x0000000000023789                InternalMathDivRemU64x32
 .text.ReadUnaligned16
                0x00000000000237ca       0x3d /tmp/ccCWtBvp.ltrans21.ltrans.o
                0x00000000000237ca                ReadUnaligned16
 .text.WriteUnaligned16
                0x0000000000023807       0x4e /tmp/ccCWtBvp.ltrans21.ltrans.o
                0x0000000000023807                WriteUnaligned16
 .text.ReadUnaligned32
                0x0000000000023855       0x3c /tmp/ccCWtBvp.ltrans21.ltrans.o
                0x0000000000023855                ReadUnaligned32
 .text.WriteUnaligned32
                0x0000000000023891       0x48 /tmp/ccCWtBvp.ltrans21.ltrans.o
                0x0000000000023891                WriteUnaligned32
 .text.ReadUnaligned64
                0x00000000000238d9       0x3d /tmp/ccCWtBvp.ltrans21.ltrans.o
                0x00000000000238d9                ReadUnaligned64
 .text.WriteUnaligned64
                0x0000000000023916       0x4c /tmp/ccCWtBvp.ltrans21.ltrans.o
                0x0000000000023916                WriteUnaligned64
 .text.AsciiStrToUnicodeStrS
                0x0000000000023962      0x475 /tmp/ccCWtBvp.ltrans22.ltrans.o
                0x0000000000023962                AsciiStrToUnicodeStrS
 .text.StrLen   0x0000000000023dd7       0xc0 /tmp/ccCWtBvp.ltrans22.ltrans.o
                0x0000000000023dd7                StrLen
 .text.AsciiStrnLenS
                0x0000000000023e97       0x60 /tmp/ccCWtBvp.ltrans23.ltrans.o
                0x0000000000023e97                AsciiStrnLenS
 .text.AsciiStrnCpyS
                0x0000000000023ef7      0x476 /tmp/ccCWtBvp.ltrans23.ltrans.o
                0x0000000000023ef7                AsciiStrnCpyS
 .text.CpuDeadLoop
                0x000000000002436d       0x22 /tmp/ccCWtBvp.ltrans24.ltrans.o
                0x000000000002436d                CpuDeadLoop
 .text.InternalBaseLibIsListValid
                0x000000000002438f       0xe9 /tmp/ccCWtBvp.ltrans24.ltrans.o
 .text.IsNodeInList
                0x0000000000024478       0xcd /tmp/ccCWtBvp.ltrans24.ltrans.o
 .text.InitializeListHead
                0x0000000000024545       0x51 /tmp/ccCWtBvp.ltrans24.ltrans.o
                0x0000000000024545                InitializeListHead
 .text.InsertTailList
                0x0000000000024596       0xbc /tmp/ccCWtBvp.ltrans24.ltrans.o
                0x0000000000024596                InsertTailList
 .text.GetFirstNode
                0x0000000000024652       0x43 /tmp/ccCWtBvp.ltrans24.ltrans.o
                0x0000000000024652                GetFirstNode
 .text.GetNextNode
                0x0000000000024695       0x89 /tmp/ccCWtBvp.ltrans24.ltrans.o
                0x0000000000024695                GetNextNode
 .text.IsListEmpty
                0x000000000002471e       0x4a /tmp/ccCWtBvp.ltrans24.ltrans.o
                0x000000000002471e                IsListEmpty
 .text.IsNull   0x0000000000024768       0x8d /tmp/ccCWtBvp.ltrans24.ltrans.o
                0x0000000000024768                IsNull
 .text.RemoveEntryList
                0x00000000000247f5       0x68 /tmp/ccCWtBvp.ltrans24.ltrans.o
                0x00000000000247f5                RemoveEntryList
 .text.InternalSafeStringIsOverlap
                0x000000000002485d       0x68 /tmp/ccCWtBvp.ltrans24.ltrans.o
                0x000000000002485d                InternalSafeStringIsOverlap
 .text.InternalSafeStringNoStrOverlap
                0x00000000000248c5       0x3f /tmp/ccCWtBvp.ltrans24.ltrans.o
 .text.InternalSafeStringNoAsciiStrOverlap
                0x0000000000024904       0x37 /tmp/ccCWtBvp.ltrans24.ltrans.o
                0x0000000000024904                InternalSafeStringNoAsciiStrOverlap
 .text.StrnLenS
                0x000000000002493b       0x92 /tmp/ccCWtBvp.ltrans24.ltrans.o
                0x000000000002493b                StrnLenS
 .text.StrCpyS  0x00000000000249cd      0x413 /tmp/ccCWtBvp.ltrans24.ltrans.o
                0x00000000000249cd                StrCpyS
 .text.StrnCpyS
                0x0000000000024de0      0x4d4 /tmp/ccCWtBvp.ltrans24.ltrans.o
                0x0000000000024de0                StrnCpyS
 .text.StrCatS  0x00000000000252b4      0x4c7 /tmp/ccCWtBvp.ltrans24.ltrans.o
                0x00000000000252b4                StrCatS
 .text.StrnCatS
                0x000000000002577b      0x58b /tmp/ccCWtBvp.ltrans24.ltrans.o
                0x000000000002577b                StrnCatS
 .text.ReportProgressCodeEnabled
                0x0000000000025d06       0x18 /tmp/ccCWtBvp.ltrans25.ltrans.o
                0x0000000000025d06                ReportProgressCodeEnabled
 .text.ReportErrorCodeEnabled
                0x0000000000025d1e       0x18 /tmp/ccCWtBvp.ltrans25.ltrans.o
                0x0000000000025d1e                ReportErrorCodeEnabled
 .text.ReportDebugCodeEnabled
                0x0000000000025d36       0x18 /tmp/ccCWtBvp.ltrans25.ltrans.o
                0x0000000000025d36                ReportDebugCodeEnabled
 .text.RShiftU64
                0x0000000000025d4e       0x4a /tmp/ccCWtBvp.ltrans25.ltrans.o
                0x0000000000025d4e                RShiftU64
 .text.MultU64x32
                0x0000000000025d98       0x27 /tmp/ccCWtBvp.ltrans25.ltrans.o
                0x0000000000025d98                MultU64x32
 .text.LShiftU64
                0x0000000000025dbf       0x4a /tmp/ccCWtBvp.ltrans25.ltrans.o
                0x0000000000025dbf                LShiftU64
 .text.DivU64x32Remainder
                0x0000000000025e09       0x51 /tmp/ccCWtBvp.ltrans25.ltrans.o
                0x0000000000025e09                DivU64x32Remainder
 .text.ZeroMem  0x0000000000025e5a       0x85 /tmp/ccCWtBvp.ltrans26.ltrans.o
                0x0000000000025e5a                ZeroMem
 .text.CompareMem
                0x0000000000025edf      0x102 /tmp/ccCWtBvp.ltrans26.ltrans.o
                0x0000000000025edf                CompareMem
 .text.SetMem16
                0x0000000000025fe1       0xfa /tmp/ccCWtBvp.ltrans26.ltrans.o
                0x0000000000025fe1                SetMem16
 .text.SetMem   0x00000000000260db       0x71 /tmp/ccCWtBvp.ltrans26.ltrans.o
                0x00000000000260db                SetMem
 .text.CopyMem  0x000000000002614c       0xb7 /tmp/ccCWtBvp.ltrans26.ltrans.o
                0x000000000002614c                CopyMem
 .text.IsZeroBuffer
                0x0000000000026203       0x86 /tmp/ccCWtBvp.ltrans26.ltrans.o
                0x0000000000026203                IsZeroBuffer
 .text.InternalMemSetMem16
                0x0000000000026289       0x40 /tmp/ccCWtBvp.ltrans26.ltrans.o
 .text.InternalMemZeroMem
                0x00000000000262c9       0x28 /tmp/ccCWtBvp.ltrans26.ltrans.o
 .text.InternalMemCompareMem
                0x00000000000262f1       0x56 /tmp/ccCWtBvp.ltrans26.ltrans.o
 .text.InternalMemIsZeroBuffer
                0x0000000000026347       0x51 /tmp/ccCWtBvp.ltrans26.ltrans.o
 .text.CopyGuid
                0x0000000000026398       0x51 /tmp/ccCWtBvp.ltrans26.ltrans.o
                0x0000000000026398                CopyGuid
 .text.CompareGuid
                0x00000000000263e9       0x77 /tmp/ccCWtBvp.ltrans26.ltrans.o
                0x00000000000263e9                CompareGuid
 .text.IsZeroGuid
                0x0000000000026460       0x49 /tmp/ccCWtBvp.ltrans26.ltrans.o
                0x0000000000026460                IsZeroGuid
 .text.InternalMemCopyMem
                0x00000000000264a9      0x3a8 /tmp/ccCWtBvp.ltrans26.ltrans.o
 .text.InternalAllocatePages
                0x0000000000026851       0x5a /tmp/ccCWtBvp.ltrans26.ltrans.o
 .text.AllocateReservedPages
                0x00000000000268ab       0x8e /tmp/ccCWtBvp.ltrans26.ltrans.o
                0x00000000000268ab                AllocateReservedPages
 .text.FreePages
                0x0000000000026939       0xac /tmp/ccCWtBvp.ltrans26.ltrans.o
                0x0000000000026939                FreePages
 .text.InternalAllocatePool
                0x00000000000269e5       0x45 /tmp/ccCWtBvp.ltrans26.ltrans.o
 .text.AllocatePool
                0x0000000000026a2a       0x8e /tmp/ccCWtBvp.ltrans26.ltrans.o
                0x0000000000026a2a                AllocatePool
 .text.InternalAllocateZeroPool
                0x0000000000026ab8       0x45 /tmp/ccCWtBvp.ltrans26.ltrans.o
 .text.AllocateZeroPool
                0x0000000000026afd       0x8e /tmp/ccCWtBvp.ltrans26.ltrans.o
                0x0000000000026afd                AllocateZeroPool
 .text.InternalAllocateCopyPool
                0x0000000000026b8b       0xa6 /tmp/ccCWtBvp.ltrans26.ltrans.o
 .text.AllocateCopyPool
                0x0000000000026c31       0x99 /tmp/ccCWtBvp.ltrans26.ltrans.o
                0x0000000000026c31                AllocateCopyPool
 .text.InternalReallocatePool
                0x0000000000026cca       0x6f /tmp/ccCWtBvp.ltrans26.ltrans.o
 .text.ReallocatePool
                0x0000000000026d39       0xa4 /tmp/ccCWtBvp.ltrans26.ltrans.o
                0x0000000000026d39                ReallocatePool
 .text.FreePool
                0x0000000000026ddd       0x7c /tmp/ccCWtBvp.ltrans26.ltrans.o
                0x0000000000026ddd                FreePool
 .text.InternalGetReportStatusCode
                0x0000000000026e59       0x70 /tmp/ccCWtBvp.ltrans26.ltrans.o
 .text.InternalReportStatusCode
                0x0000000000026ec9       0xa8 /tmp/ccCWtBvp.ltrans26.ltrans.o
 .text.ReportStatusCode
                0x0000000000026f71       0xa1 /tmp/ccCWtBvp.ltrans26.ltrans.o
                0x0000000000026f71                ReportStatusCode
 .text.ReportStatusCodeEx
                0x0000000000027012      0x2af /tmp/ccCWtBvp.ltrans26.ltrans.o
                0x0000000000027012                ReportStatusCodeEx
 .text.UnicodeSPrint
                0x00000000000272c1       0x48 /tmp/ccCWtBvp.ltrans27.ltrans.o
                0x00000000000272c1                UnicodeSPrint
 .text.UnicodeValueToStringS
                0x0000000000027309       0xdd /tmp/ccCWtBvp.ltrans27.ltrans.o
                0x0000000000027309                UnicodeValueToStringS
 .text.SPrintLength
                0x00000000000273e6       0xd8 /tmp/ccCWtBvp.ltrans27.ltrans.o
                0x00000000000273e6                SPrintLength
 .text.DebugPrint
                0x00000000000274be       0x39 /tmp/ccCWtBvp.ltrans27.ltrans.o
                0x00000000000274be                DebugPrint
 .text.DebugPrintMarker
                0x00000000000274f7      0x554 /tmp/ccCWtBvp.ltrans27.ltrans.o
 .text.DebugVPrint
                0x0000000000027a4b       0xa1 /tmp/ccCWtBvp.ltrans27.ltrans.o
 .text.DebugAssert
                0x0000000000027aec      0x267 /tmp/ccCWtBvp.ltrans27.ltrans.o
                0x0000000000027aec                DebugAssert
 .text.DebugAssertEnabled
                0x0000000000027d53       0x18 /tmp/ccCWtBvp.ltrans27.ltrans.o
                0x0000000000027d53                DebugAssertEnabled
 .text.DebugPrintEnabled
                0x0000000000027d6b       0x18 /tmp/ccCWtBvp.ltrans27.ltrans.o
                0x0000000000027d6b                DebugPrintEnabled
 .text.DebugCodeEnabled
                0x0000000000027d83       0x18 /tmp/ccCWtBvp.ltrans27.ltrans.o
                0x0000000000027d83                DebugCodeEnabled
 .text.DebugPrintLevelEnabled
                0x0000000000027d9b       0x1c /tmp/ccCWtBvp.ltrans27.ltrans.o
                0x0000000000027d9b                DebugPrintLevelEnabled
 .text.InternalMemSetMem
                0x0000000000027db7      0x13b /tmp/ccCWtBvp.ltrans27.ltrans.o
                0x0000000000027db7                InternalMemSetMem
 .text.BasePrintLibFillBuffer
                0x0000000000027ef2       0x72 /tmp/ccCWtBvp.ltrans28.ltrans.o
 .text.BasePrintLibValueToString
                0x0000000000027f64       0x62 /tmp/ccCWtBvp.ltrans28.ltrans.o
 .text.BasePrintLibConvertValueToStringS
                0x0000000000027fc6      0x59e /tmp/ccCWtBvp.ltrans28.ltrans.o
                0x0000000000027fc6                BasePrintLibConvertValueToStringS
 .text.BasePrintLibSPrintMarker
                0x0000000000028564     0x171d /tmp/ccCWtBvp.ltrans28.ltrans.o
                0x0000000000028564                BasePrintLibSPrintMarker
 .text.BasePrintLibSPrint
                0x0000000000029c81       0xcc /tmp/ccCWtBvp.ltrans28.ltrans.o
 .text.UnicodeVSPrint
                0x0000000000029d4d      0x117 /tmp/ccCWtBvp.ltrans28.ltrans.o
                0x0000000000029d4d                UnicodeVSPrint
 .text.RequiredDriver
                0x0000000000029e64      0x13f /tmp/ccCWtBvp.ltrans29.ltrans.o
 .text.UiListThirdPartyDrivers
                0x0000000000029fa3      0x5ca /tmp/ccCWtBvp.ltrans29.ltrans.o
                0x0000000000029fa3                UiListThirdPartyDrivers
 .text.ProcessLibraryConstructorList
                0x000000000002a56d      0x454 /tmp/ccCWtBvp.ltrans29.ltrans.o
                0x000000000002a56d                ProcessLibraryConstructorList
 .text.ProcessLibraryDestructorList
                0x000000000002a9c1      0x1c6 /tmp/ccCWtBvp.ltrans29.ltrans.o
                0x000000000002a9c1                ProcessLibraryDestructorList
 .text.ProcessModuleEntryPointList
                0x000000000002ab87       0x22 /tmp/ccCWtBvp.ltrans29.ltrans.o
                0x000000000002ab87                ProcessModuleEntryPointList
 .text.GetDebugPrintErrorLevel
                0x000000000002aba9        0xc /tmp/ccCWtBvp.ltrans29.ltrans.o
                0x000000000002aba9                GetDebugPrintErrorLevel
 .text.GetPcdProtocol
                0x000000000002abb5       0xce /tmp/ccCWtBvp.ltrans29.ltrans.o
 .text.LibPcdGet16
                0x000000000002ac83       0x1d /tmp/ccCWtBvp.ltrans29.ltrans.o
                0x000000000002ac83                LibPcdGet16
 .text.LibPcdGetBool
                0x000000000002aca0       0x1d /tmp/ccCWtBvp.ltrans29.ltrans.o
                0x000000000002aca0                LibPcdGetBool
 .text.LibPcdSet32S
                0x000000000002acbd       0x26 /tmp/ccCWtBvp.ltrans29.ltrans.o
                0x000000000002acbd                LibPcdSet32S
 .text.InitializeUserInterface
                0x000000000002ace3      0x2b4 /tmp/ccCWtBvp.ltrans30.ltrans.o
                0x000000000002ace3                InitializeUserInterface
 .text.UiEntry  0x000000000002af97      0x16c /tmp/ccCWtBvp.ltrans30.ltrans.o
 .text.EnableResetRequired
                0x000000000002b103        0xd /tmp/ccCWtBvp.ltrans30.ltrans.o
                0x000000000002b103                EnableResetRequired
 .text.IsResetRequired
                0x000000000002b110        0xd /tmp/ccCWtBvp.ltrans30.ltrans.o
 .text.SetupResetReminder
                0x000000000002b11d      0x120 /tmp/ccCWtBvp.ltrans30.ltrans.o
 .text.InitializeStringSupport
                0x000000000002b23d       0x61 /tmp/ccCWtBvp.ltrans30.ltrans.o
 .text.UninitializeStringSupport
                0x000000000002b29e       0x19 /tmp/ccCWtBvp.ltrans30.ltrans.o
 .text.GetStringById
                0x000000000002b2b7       0x29 /tmp/ccCWtBvp.ltrans30.ltrans.o
                0x000000000002b2b7                GetStringById
 .text.ExportFonts
                0x000000000002b2e0       0x2d /tmp/ccCWtBvp.ltrans30.ltrans.o
 .text.UiCustomizeFrontPage
                0x000000000002b30d       0x90 /tmp/ccCWtBvp.ltrans30.ltrans.o
                0x000000000002b30d                UiCustomizeFrontPage
 .text.UiFrontPageCallbackHandler
                0x000000000002b39d       0x5f /tmp/ccCWtBvp.ltrans30.ltrans.o
                0x000000000002b39d                UiFrontPageCallbackHandler
 .text.UiCustomizeFrontPageBanner
                0x000000000002b3fc       0x6c /tmp/ccCWtBvp.ltrans30.ltrans.o
                0x000000000002b3fc                UiCustomizeFrontPageBanner
 .text.GetNextLanguage
                0x000000000002b468      0x11b /tmp/ccCWtBvp.ltrans30.ltrans.o
 .text.LanguageChangeHandler
                0x000000000002b583      0x151 /tmp/ccCWtBvp.ltrans30.ltrans.o
 .text.UiSupportLibCallbackHandler
                0x000000000002b6d4      0x161 /tmp/ccCWtBvp.ltrans30.ltrans.o
 .text.UiCreateLanguageMenu
                0x000000000002b835      0x64a /tmp/ccCWtBvp.ltrans30.ltrans.o
 .text.UiCreateContinueMenu
                0x000000000002be7f       0x3f /tmp/ccCWtBvp.ltrans30.ltrans.o
 .text.UiCreateEmptyLine
                0x000000000002bebe       0x37 /tmp/ccCWtBvp.ltrans30.ltrans.o
                0x000000000002bebe                UiCreateEmptyLine
 .text.UiCreateResetMenu
                0x000000000002bef5       0x3f /tmp/ccCWtBvp.ltrans30.ltrans.o
 .text.ExtractDevicePathFromHiiHandle
                0x000000000002bf34       0x96 /tmp/ccCWtBvp.ltrans30.ltrans.o
                0x000000000002bf34                ExtractDevicePathFromHiiHandle
 .text.FakeExtractConfig
                0x000000000002bfca       0x45 /tmp/ccCWtBvp.ltrans31.ltrans.o
 .text.FakeRouteConfig
                0x000000000002c00f       0x41 /tmp/ccCWtBvp.ltrans31.ltrans.o
 .text.FrontPageCallback
                0x000000000002c050       0xb7 /tmp/ccCWtBvp.ltrans31.ltrans.o
 .text.UpdateFrontPageForm
                0x000000000002c107      0x130 /tmp/ccCWtBvp.ltrans31.ltrans.o
 .text.InitializeFrontPage
                0x000000000002c237      0x15b /tmp/ccCWtBvp.ltrans31.ltrans.o
                0x000000000002c237                InitializeFrontPage
 .text.CallFrontPage
                0x000000000002c392       0x8e /tmp/ccCWtBvp.ltrans31.ltrans.o
                0x000000000002c392                CallFrontPage
 .text.FreeFrontPage
                0x000000000002c420       0xdd /tmp/ccCWtBvp.ltrans31.ltrans.o
                0x000000000002c420                FreeFrontPage
 .text.ConvertProcessorToString
                0x000000000002c4fd      0x185 /tmp/ccCWtBvp.ltrans31.ltrans.o
 .text.ConvertMemorySizeToString
                0x000000000002c682       0x90 /tmp/ccCWtBvp.ltrans31.ltrans.o
 .text.GetOptionalStringByIndex
                0x000000000002c712       0xd8 /tmp/ccCWtBvp.ltrans31.ltrans.o
 .text.UpdateFrontPageBannerStrings
                0x000000000002c7ea      0x776 /tmp/ccCWtBvp.ltrans31.ltrans.o
 .text.UiSetConsoleMode
                0x000000000002cf60      0x76a /tmp/ccCWtBvp.ltrans31.ltrans.o
                0x000000000002cf60                UiSetConsoleMode
 *(.rodata .rodata.* .gnu.linkonce.r.*)
 *fill*         0x000000000002d6ca        0x6 
 .rodata.str1.8
                0x000000000002d6d0      0x247 /tmp/ccCWtBvp.ltrans0.ltrans.o
 .rodata.str1.1
                0x000000000002d917       0x98 /tmp/ccCWtBvp.ltrans0.ltrans.o
                                         0xc6 (size before relaxing)
 *fill*         0x000000000002d9af        0x1 
 .rodata.str2.2
                0x000000000002d9b0        0x8 /tmp/ccCWtBvp.ltrans0.ltrans.o
 .rodata.UpdatePageBody
                0x000000000002d9b8       0x20 /tmp/ccCWtBvp.ltrans0.ltrans.o
 .rodata.str1.1
                0x000000000002d9d8       0x57 /tmp/ccCWtBvp.ltrans1.ltrans.o
 *fill*         0x000000000002da2f        0x1 
 .rodata.str1.8
                0x000000000002da30      0x3f9 /tmp/ccCWtBvp.ltrans1.ltrans.o
                                        0x459 (size before relaxing)
 *fill*         0x000000000002de29        0x1 
 .rodata.str2.2
                0x000000000002de2a       0xc8 /tmp/ccCWtBvp.ltrans1.ltrans.o
 *fill*         0x000000000002def2        0x6 
 .rodata.str1.8
                0x000000000002def8      0x2a4 /tmp/ccCWtBvp.ltrans2.ltrans.o
                                        0x335 (size before relaxing)
 .rodata.DiscardChangeHandler
                0x000000000002e19c       0x40 /tmp/ccCWtBvp.ltrans2.ltrans.o
 .rodata.str1.1
                0x000000000002e1dc       0x5e /tmp/ccCWtBvp.ltrans2.ltrans.o
                                         0xac (size before relaxing)
 *fill*         0x000000000002e23a        0x6 
 .rodata.str2.8
                0x000000000002e240       0x8a /tmp/ccCWtBvp.ltrans2.ltrans.o
 *fill*         0x000000000002e2ca        0x2 
 .rodata.BOpt_CreateMenuEntry
                0x000000000002e2cc       0x18 /tmp/ccCWtBvp.ltrans2.ltrans.o
 .rodata.BOpt_DestroyMenuEntry
                0x000000000002e2e4       0x18 /tmp/ccCWtBvp.ltrans2.ltrans.o
 .rodata.str2.2
                0x000000000002e2fc       0x36 /tmp/ccCWtBvp.ltrans2.ltrans.o
                                         0x9c (size before relaxing)
 *fill*         0x000000000002e332        0x6 
 .rodata.str1.8
                0x000000000002e338      0x1df /tmp/ccCWtBvp.ltrans3.ltrans.o
                                        0x308 (size before relaxing)
 .rodata.str1.1
                0x000000000002e517       0x6d /tmp/ccCWtBvp.ltrans3.ltrans.o
                                         0xc2 (size before relaxing)
 .rodata.str2.2
                0x000000000002e584       0x58 /tmp/ccCWtBvp.ltrans3.ltrans.o
                                         0x80 (size before relaxing)
 *fill*         0x000000000002e5dc        0x4 
 .rodata.str2.8
                0x000000000002e5e0       0x32 /tmp/ccCWtBvp.ltrans3.ltrans.o
 *fill*         0x000000000002e612        0x2 
 .rodata.BootMaintCallback
                0x000000000002e614       0x80 /tmp/ccCWtBvp.ltrans3.ltrans.o
 *fill*         0x000000000002e694        0x4 
 .rodata.str1.8
                0x000000000002e698      0x24e /tmp/ccCWtBvp.ltrans4.ltrans.o
                                        0x33e (size before relaxing)
 .rodata.str1.1
                0x000000000002e8e6       0x1b /tmp/ccCWtBvp.ltrans4.ltrans.o
                                         0xcc (size before relaxing)
 *fill*         0x000000000002e901        0x1 
 .rodata.str2.2
                0x000000000002e902       0x34 /tmp/ccCWtBvp.ltrans4.ltrans.o
                                         0x5a (size before relaxing)
 .rodata.str2.8
                0x000000000002e936       0x8a /tmp/ccCWtBvp.ltrans4.ltrans.o
 .rodata.str1.1
                0x000000000002e936       0x55 /tmp/ccCWtBvp.ltrans5.ltrans.o
                                         0xac (size before relaxing)
 *fill*         0x000000000002e98b        0x5 
 .rodata.str2.8
                0x000000000002e990       0x80 /tmp/ccCWtBvp.ltrans5.ltrans.o
 .rodata.str1.8
                0x000000000002ea10      0x19e /tmp/ccCWtBvp.ltrans5.ltrans.o
                                        0x26e (size before relaxing)
 .rodata.str2.2
                0x000000000002ebae       0x1c /tmp/ccCWtBvp.ltrans5.ltrans.o
                                         0x20 (size before relaxing)
 .rodata.str1.1
                0x000000000002ebca       0xcf /tmp/ccCWtBvp.ltrans6.ltrans.o
                                         0xe7 (size before relaxing)
 *fill*         0x000000000002ec99        0x7 
 .rodata.str1.8
                0x000000000002eca0      0x289 /tmp/ccCWtBvp.ltrans6.ltrans.o
                                        0x2d9 (size before relaxing)
 *fill*         0x000000000002ef29        0x1 
 .rodata.str2.2
                0x000000000002ef2a       0x3e /tmp/ccCWtBvp.ltrans6.ltrans.o
                                         0x56 (size before relaxing)
 .rodata.str2.8
                0x000000000002ef68       0x48 /tmp/ccCWtBvp.ltrans6.ltrans.o
 .rodata.str1.1
                0x000000000002efb0       0x61 /tmp/ccCWtBvp.ltrans7.ltrans.o
                                         0xd8 (size before relaxing)
 *fill*         0x000000000002f011        0x7 
 .rodata.str1.8
                0x000000000002f018      0x2ba /tmp/ccCWtBvp.ltrans7.ltrans.o
                                        0x362 (size before relaxing)
 .rodata.str2.2
                0x000000000002f2d2       0xac /tmp/ccCWtBvp.ltrans7.ltrans.o
                                         0xda (size before relaxing)
 *fill*         0x000000000002f37e        0x2 
 .rodata.str2.8
                0x000000000002f380       0xd4 /tmp/ccCWtBvp.ltrans7.ltrans.o
 .rodata.BmGetMiscDescription
                0x000000000002f454       0x18 /tmp/ccCWtBvp.ltrans7.ltrans.o
 .rodata.str1.1
                0x000000000002f46c       0x6b /tmp/ccCWtBvp.ltrans8.ltrans.o
                                         0xa2 (size before relaxing)
 *fill*         0x000000000002f4d7        0x1 
 .rodata.str1.8
                0x000000000002f4d8      0x27b /tmp/ccCWtBvp.ltrans8.ltrans.o
                                        0x32b (size before relaxing)
 *fill*         0x000000000002f753        0x1 
 .rodata.str2.2
                0x000000000002f754       0x44 /tmp/ccCWtBvp.ltrans8.ltrans.o
                                         0x48 (size before relaxing)
 .rodata.str1.1
                0x000000000002f798       0x27 /tmp/ccCWtBvp.ltrans9.ltrans.o
 *fill*         0x000000000002f7bf        0x1 
 .rodata.str2.2
                0x000000000002f7c0        0xa /tmp/ccCWtBvp.ltrans9.ltrans.o
                                         0x40 (size before relaxing)
 *fill*         0x000000000002f7ca        0x6 
 .rodata.str1.8
                0x000000000002f7d0      0x166 /tmp/ccCWtBvp.ltrans9.ltrans.o
                                        0x206 (size before relaxing)
 *fill*         0x000000000002f936        0x2 
 .rodata.str2.8
                0x000000000002f938       0x2c /tmp/ccCWtBvp.ltrans9.ltrans.o
 .rodata.str1.1
                0x000000000002f964       0xcb /tmp/ccCWtBvp.ltrans10.ltrans.o
                                         0xe3 (size before relaxing)
 *fill*         0x000000000002fa2f        0x1 
 .rodata.str1.8
                0x000000000002fa30      0x3b2 /tmp/ccCWtBvp.ltrans10.ltrans.o
                                        0x3da (size before relaxing)
 .rodata.str2.2
                0x000000000002fde2       0x1a /tmp/ccCWtBvp.ltrans10.ltrans.o
 *fill*         0x000000000002fde2        0x6 
 .rodata.str2.8
                0x000000000002fde8       0x2c /tmp/ccCWtBvp.ltrans10.ltrans.o
 .rodata.str2.2
                0x000000000002fe14       0x60 /tmp/ccCWtBvp.ltrans11.ltrans.o
                                         0x7e (size before relaxing)
 .rodata.str1.1
                0x000000000002fe74      0x10d /tmp/ccCWtBvp.ltrans11.ltrans.o
                                        0x139 (size before relaxing)
 *fill*         0x000000000002ff81        0x7 
 .rodata.str1.8
                0x000000000002ff88      0x1ca /tmp/ccCWtBvp.ltrans11.ltrans.o
                                        0x23a (size before relaxing)
 .rodata.str2.8
                0x0000000000030152       0x32 /tmp/ccCWtBvp.ltrans11.ltrans.o
 .rodata.str1.1
                0x0000000000030152       0xb5 /tmp/ccCWtBvp.ltrans12.ltrans.o
                                        0x166 (size before relaxing)
 *fill*         0x0000000000030207        0x1 
 .rodata.str1.8
                0x0000000000030208      0x130 /tmp/ccCWtBvp.ltrans12.ltrans.o
                                        0x1e8 (size before relaxing)
 .rodata.str2.2
                0x0000000000030338       0x20 /tmp/ccCWtBvp.ltrans12.ltrans.o
                                         0x5a (size before relaxing)
 .rodata.str1.1
                0x0000000000030358      0x113 /tmp/ccCWtBvp.ltrans13.ltrans.o
                                        0x146 (size before relaxing)
 *fill*         0x000000000003046b        0x5 
 .rodata.str1.8
                0x0000000000030470      0x255 /tmp/ccCWtBvp.ltrans13.ltrans.o
                                        0x2a5 (size before relaxing)
 .rodata.str1.1
                0x00000000000306c5      0x12c /tmp/ccCWtBvp.ltrans14.ltrans.o
                                        0x193 (size before relaxing)
 *fill*         0x00000000000307f1        0x7 
 .rodata.str1.8
                0x00000000000307f8      0x15e /tmp/ccCWtBvp.ltrans14.ltrans.o
                                        0x1eb (size before relaxing)
 .rodata.str2.2
                0x0000000000030956        0x8 /tmp/ccCWtBvp.ltrans14.ltrans.o
 .rodata.str1.1
                0x000000000003095e      0x13e /tmp/ccCWtBvp.ltrans17.ltrans.o
                                        0x1b9 (size before relaxing)
 *fill*         0x0000000000030a9c        0x4 
 .rodata.str1.8
                0x0000000000030aa0      0x376 /tmp/ccCWtBvp.ltrans17.ltrans.o
                                        0x3c7 (size before relaxing)
 .rodata.str2.2
                0x0000000000030e16      0x67e /tmp/ccCWtBvp.ltrans19.ltrans.o
                                        0x71e (size before relaxing)
 *fill*         0x0000000000031494        0x4 
 .rodata.str2.8
                0x0000000000031498      0x7b6 /tmp/ccCWtBvp.ltrans19.ltrans.o
 .rodata.str1.1
                0x0000000000031c4e       0x46 /tmp/ccCWtBvp.ltrans19.ltrans.o
 *fill*         0x0000000000031c94        0x4 
 .rodata.str1.8
                0x0000000000031c98       0x51 /tmp/ccCWtBvp.ltrans19.ltrans.o
 *fill*         0x0000000000031ce9        0x3 
 .rodata.DevPathToTextUart
                0x0000000000031cec       0x18 /tmp/ccCWtBvp.ltrans19.ltrans.o
 .rodata.DevPathToTextBBS
                0x0000000000031d04       0x1c /tmp/ccCWtBvp.ltrans19.ltrans.o
 .rodata.str1.1
                0x0000000000031d20       0x9c /tmp/ccCWtBvp.ltrans20.ltrans.o
                                        0x10a (size before relaxing)
 *fill*         0x0000000000031dbc        0x4 
 .rodata.str1.8
                0x0000000000031dc0      0x35f /tmp/ccCWtBvp.ltrans20.ltrans.o
                                        0x3b1 (size before relaxing)
 *fill*         0x000000000003211f        0x1 
 .rodata.str2.2
                0x0000000000032120      0x100 /tmp/ccCWtBvp.ltrans20.ltrans.o
                                        0x1be (size before relaxing)
 .rodata.str2.8
                0x0000000000032220       0xbc /tmp/ccCWtBvp.ltrans20.ltrans.o
 .rodata.str1.1
                0x00000000000322dc      0x1b9 /tmp/ccCWtBvp.ltrans21.ltrans.o
                                        0x22a (size before relaxing)
 *fill*         0x0000000000032495        0x3 
 .rodata.str1.8
                0x0000000000032498      0x4d0 /tmp/ccCWtBvp.ltrans21.ltrans.o
 .rodata.str1.8
                0x0000000000032968      0x3e2 /tmp/ccCWtBvp.ltrans22.ltrans.o
                                        0x44a (size before relaxing)
 .rodata.str1.1
                0x0000000000032d4a      0x121 /tmp/ccCWtBvp.ltrans22.ltrans.o
                                        0x138 (size before relaxing)
 *fill*         0x0000000000032e6b        0x5 
 .rodata.str1.8
                0x0000000000032e70       0xe3 /tmp/ccCWtBvp.ltrans23.ltrans.o
                                        0x32b (size before relaxing)
 .rodata.str1.1
                0x0000000000032f53       0x25 /tmp/ccCWtBvp.ltrans23.ltrans.o
                                        0x136 (size before relaxing)
 .rodata.str1.1
                0x0000000000032f78       0x4a /tmp/ccCWtBvp.ltrans24.ltrans.o
                                        0x110 (size before relaxing)
 *fill*         0x0000000000032fc2        0x6 
 .rodata.str1.8
                0x0000000000032fc8      0x20f /tmp/ccCWtBvp.ltrans24.ltrans.o
                                        0x412 (size before relaxing)
 .rodata.str1.1
                0x00000000000331d7      0x116 /tmp/ccCWtBvp.ltrans25.ltrans.o
                                        0x1a3 (size before relaxing)
 *fill*         0x00000000000332ed        0x3 
 .rodata.str1.8
                0x00000000000332f0      0x6bf /tmp/ccCWtBvp.ltrans25.ltrans.o
                                        0x6df (size before relaxing)
 .rodata.str1.1
                0x00000000000339af       0xec /tmp/ccCWtBvp.ltrans26.ltrans.o
                                        0x166 (size before relaxing)
 *fill*         0x0000000000033a9b        0x5 
 .rodata.str1.8
                0x0000000000033aa0      0x66d /tmp/ccCWtBvp.ltrans26.ltrans.o
                                        0x6bd (size before relaxing)
 *fill*         0x000000000003410d        0x3 
 .rodata.str1.8
                0x0000000000034110      0x2bc /tmp/ccCWtBvp.ltrans27.ltrans.o
                                        0x31c (size before relaxing)
 .rodata.str1.1
                0x00000000000343cc        0x5 /tmp/ccCWtBvp.ltrans27.ltrans.o
                                         0x33 (size before relaxing)
 *fill*         0x00000000000343d1        0x7 
 .rodata.str1.8
                0x00000000000343d8      0x451 /tmp/ccCWtBvp.ltrans28.ltrans.o
                                        0x53f (size before relaxing)
 .rodata.str1.1
                0x0000000000034829       0xb6 /tmp/ccCWtBvp.ltrans28.ltrans.o
                                         0xe6 (size before relaxing)
 *fill*         0x00000000000348df        0x1 
 .rodata.BasePrintLibSPrintMarker
                0x00000000000348e0      0x370 /tmp/ccCWtBvp.ltrans28.ltrans.o
 .rodata.str1.1
                0x0000000000034c50       0x60 /tmp/ccCWtBvp.ltrans29.ltrans.o
                                         0xf9 (size before relaxing)
 .rodata.str1.8
                0x0000000000034cb0       0xce /tmp/ccCWtBvp.ltrans29.ltrans.o
                                        0x1ad (size before relaxing)
 .rodata.str1.1
                0x0000000000034d7e       0x4c /tmp/ccCWtBvp.ltrans30.ltrans.o
                                         0xe4 (size before relaxing)
 *fill*         0x0000000000034dca        0x6 
 .rodata.str1.8
                0x0000000000034dd0       0xf7 /tmp/ccCWtBvp.ltrans30.ltrans.o
                                        0x1cf (size before relaxing)
 *fill*         0x0000000000034ec7        0x1 
 .rodata.str2.8
                0x0000000000034ec8       0x24 /tmp/ccCWtBvp.ltrans30.ltrans.o
                                         0xb4 (size before relaxing)
 .rodata.str2.2
                0x0000000000034eec       0x1a /tmp/ccCWtBvp.ltrans30.ltrans.o
 *fill*         0x0000000000034eec        0x4 
 .rodata.str1.8
                0x0000000000034ef0       0x30 /tmp/ccCWtBvp.ltrans31.ltrans.o
                                        0x10c (size before relaxing)
 .rodata.str1.1
                0x0000000000034f20        0x6 /tmp/ccCWtBvp.ltrans31.ltrans.o
                                         0x23 (size before relaxing)
 .rodata.str2.2
                0x0000000000034f26      0x46a /tmp/ccCWtBvp.ltrans31.ltrans.o
                                        0x672 (size before relaxing)
 .rodata._gPcd_FixedAtBuild_PcdUefiVariableDefaultPlatformLangCodes
                0x0000000000035390       0x12 /tmp/ccCWtBvp.ltrans31.ltrans.o
                0x0000000000035390                _gPcd_FixedAtBuild_PcdUefiVariableDefaultPlatformLangCodes
 .rodata._gPcd_FixedAtBuild_PcdFirmwareVersionString
                0x00000000000353a2        0x2 /tmp/ccCWtBvp.ltrans31.ltrans.o
 .rodata._gPcd_FixedAtBuild_PcdDebugPrintErrorLevel
                0x00000000000353a4        0x4 /tmp/ccCWtBvp.ltrans31.ltrans.o
                0x00000000000353a4                _gPcd_FixedAtBuild_PcdDebugPrintErrorLevel
 .rodata._gPcd_FixedAtBuild_PcdMaximumAsciiStringLength
                0x00000000000353a8        0x4 /tmp/ccCWtBvp.ltrans31.ltrans.o
                0x00000000000353a8                _gPcd_FixedAtBuild_PcdMaximumAsciiStringLength
 .rodata._gPcd_FixedAtBuild_PcdMaximumUnicodeStringLength
                0x00000000000353ac        0x4 /tmp/ccCWtBvp.ltrans31.ltrans.o
                0x00000000000353ac                _gPcd_FixedAtBuild_PcdMaximumUnicodeStringLength
 .rodata._gPcd_FixedAtBuild_PcdDebugPropertyMask
                0x00000000000353b0        0x1 /tmp/ccCWtBvp.ltrans31.ltrans.o
                0x00000000000353b0                _gPcd_FixedAtBuild_PcdDebugPropertyMask
 *fill*         0x00000000000353b1        0x3 
 .rodata._gPcd_FixedAtBuild_PcdFixedDebugPrintErrorLevel
                0x00000000000353b4        0x4 /tmp/ccCWtBvp.ltrans31.ltrans.o
                0x00000000000353b4                _gPcd_FixedAtBuild_PcdFixedDebugPrintErrorLevel
 .rodata._gPcd_FixedAtBuild_PcdReportStatusCodePropertyMask
                0x00000000000353b8        0x1 /tmp/ccCWtBvp.ltrans31.ltrans.o
                0x00000000000353b8                _gPcd_FixedAtBuild_PcdReportStatusCodePropertyMask
 .rodata._gPcd_FixedAtBuild_PcdVerifyNodeInList
                0x00000000000353b9        0x1 /tmp/ccCWtBvp.ltrans31.ltrans.o
                0x00000000000353b9                _gPcd_FixedAtBuild_PcdVerifyNodeInList
 *fill*         0x00000000000353ba        0x2 
 .rodata._gPcd_FixedAtBuild_PcdMaximumLinkedListLength
                0x00000000000353bc        0x4 /tmp/ccCWtBvp.ltrans31.ltrans.o
                0x00000000000353bc                _gPcd_FixedAtBuild_PcdMaximumLinkedListLength
 .rodata._gPcd_FixedAtBuild_PcdMaximumDevicePathNodeCount
                0x00000000000353c0        0x4 /tmp/ccCWtBvp.ltrans31.ltrans.o
                0x00000000000353c0                _gPcd_FixedAtBuild_PcdMaximumDevicePathNodeCount
 .rodata._gPcd_FixedAtBuild_PcdUefiLibMaxPrintBufferSize
                0x00000000000353c4        0x4 /tmp/ccCWtBvp.ltrans31.ltrans.o
                0x00000000000353c4                _gPcd_FixedAtBuild_PcdUefiLibMaxPrintBufferSize
 .rodata._gPcd_FixedAtBuild_PcdPerformanceLibraryPropertyMask
                0x00000000000353c8        0x1 /tmp/ccCWtBvp.ltrans31.ltrans.o
                0x00000000000353c8                _gPcd_FixedAtBuild_PcdPerformanceLibraryPropertyMask
 .rodata._gPcd_FixedAtBuild_PcdResetOnMemoryTypeInformationChange
                0x00000000000353c9        0x1 /tmp/ccCWtBvp.ltrans31.ltrans.o
                0x00000000000353c9                _gPcd_FixedAtBuild_PcdResetOnMemoryTypeInformationChange
 *fill*         0x00000000000353ca        0x2 
 .rodata._gPcd_FixedAtBuild_PcdProgressCodeOsLoaderLoad
                0x00000000000353cc        0x4 /tmp/ccCWtBvp.ltrans31.ltrans.o
                0x00000000000353cc                _gPcd_FixedAtBuild_PcdProgressCodeOsLoaderLoad
 .rodata._gPcd_FixedAtBuild_PcdProgressCodeOsLoaderStart
                0x00000000000353d0        0x4 /tmp/ccCWtBvp.ltrans31.ltrans.o
                0x00000000000353d0                _gPcd_FixedAtBuild_PcdProgressCodeOsLoaderStart
 .rodata._gPcd_FixedAtBuild_PcdErrorCodeSetVariable
                0x00000000000353d4        0x4 /tmp/ccCWtBvp.ltrans31.ltrans.o
                0x00000000000353d4                _gPcd_FixedAtBuild_PcdErrorCodeSetVariable
 *fill*         0x00000000000353d8        0x8 
 .rodata._gPcd_FixedAtBuild_PcdBootManagerMenuFile
                0x00000000000353e0       0x10 /tmp/ccCWtBvp.ltrans31.ltrans.o
                0x00000000000353e0                _gPcd_FixedAtBuild_PcdBootManagerMenuFile
 .rodata._gPcd_FixedAtBuild_PcdDriverHealthConfigureForm
                0x00000000000353f0       0x10 /tmp/ccCWtBvp.ltrans31.ltrans.o
                0x00000000000353f0                _gPcd_FixedAtBuild_PcdDriverHealthConfigureForm
 .rodata._gPcd_FixedAtBuild_PcdMaxRepairCount
                0x0000000000035400        0x4 /tmp/ccCWtBvp.ltrans31.ltrans.o
                0x0000000000035400                _gPcd_FixedAtBuild_PcdMaxRepairCount
 .rodata._gUefiDriverRevision
                0x0000000000035404        0x4 /tmp/ccCWtBvp.ltrans31.ltrans.o
                0x0000000000035404                _gUefiDriverRevision
 *fill*         0x0000000000035408        0x8 
 .rodata.mHexStr
                0x0000000000035410       0x10 /tmp/ccCWtBvp.ltrans31.ltrans.o
                0x0000000000035410                mHexStr
 .rodata.mWarningString
                0x0000000000035420       0x96 /tmp/ccCWtBvp.ltrans31.ltrans.o
                0x0000000000035420                mWarningString
 *fill*         0x00000000000354b6        0xa 
 .rodata.mErrorString
                0x00000000000354c0      0x2b5 /tmp/ccCWtBvp.ltrans31.ltrans.o
                0x00000000000354c0                mErrorString
 *fill*         0x0000000000035775        0x3 
 .rodata.__FUNCTION__.2845.lto_priv.31
                0x0000000000035778        0x8 /tmp/ccCWtBvp.ltrans31.ltrans.o
                0x0000000000035778                __FUNCTION__.2845.lto_priv.31
 .rodata.__FUNCTION__.2856.lto_priv.30
                0x0000000000035780        0x9 /tmp/ccCWtBvp.ltrans31.ltrans.o
                0x0000000000035780                __FUNCTION__.2856.lto_priv.30
 *fill*         0x0000000000035789        0x7 
 .rodata.__FUNCTION__.2868.lto_priv.29
                0x0000000000035790        0x8 /tmp/ccCWtBvp.ltrans31.ltrans.o
                0x0000000000035790                __FUNCTION__.2868.lto_priv.29
 .rodata.__FUNCTION__.2881.lto_priv.28
                0x0000000000035798        0x9 /tmp/ccCWtBvp.ltrans31.ltrans.o
                0x0000000000035798                __FUNCTION__.2881.lto_priv.28
 *fill*         0x00000000000357a1        0x7 
 .rodata.__FUNCTION__.3030.lto_priv.18
                0x00000000000357a8        0xe /tmp/ccCWtBvp.ltrans31.ltrans.o
                0x00000000000357a8                __FUNCTION__.3030.lto_priv.18
 *fill*         0x00000000000357b6        0xa 
 .rodata.__FUNCTION__.3147.lto_priv.9
                0x00000000000357c0       0x16 /tmp/ccCWtBvp.ltrans31.ltrans.o
                0x00000000000357c0                __FUNCTION__.3147.lto_priv.9
 .rodata.mUefiDevicePathLibEndDevicePath
                0x00000000000357d6        0x4 /tmp/ccCWtBvp.ltrans31.ltrans.o
                0x00000000000357d6                mUefiDevicePathLibEndDevicePath
 *fill*         0x00000000000357da        0x6 
 .rodata.str2.8
                0x00000000000357e0      0x200 /tmp/ccCWtBvp.ltrans31.ltrans.o
                                        0x1fc (size before relaxing)
 .rodata.mConfigHdrTemplate
                0x00000000000359e0       0x70 /tmp/ccCWtBvp.ltrans31.ltrans.o
                0x00000000000359e0                mConfigHdrTemplate
 .rodata.mEndOfPakageList
                0x0000000000035a50        0x4 /tmp/ccCWtBvp.ltrans31.ltrans.o
                0x0000000000035a50                mEndOfPakageList
 *fill*         0x0000000000035a54        0x4 
 .rodata.mHiiDefaultTypeToWidth
                0x0000000000035a58        0x8 /tmp/ccCWtBvp.ltrans31.ltrans.o
                0x0000000000035a58                mHiiDefaultTypeToWidth
 .rodata.__FUNCTION__.19307.lto_priv.2
                0x0000000000035a60       0x11 /tmp/ccCWtBvp.ltrans31.ltrans.o
                0x0000000000035a60                __FUNCTION__.19307.lto_priv.2
 *fill*         0x0000000000035a71        0xf 
 .rodata.__FUNCTION__.19161.lto_priv.1
                0x0000000000035a80       0x17 /tmp/ccCWtBvp.ltrans31.ltrans.o
                0x0000000000035a80                __FUNCTION__.19161.lto_priv.1
 *(.got .got.*)
 .got           0x0000000000035a97        0x0 FrontPageVfr.obj (symbol from plugin)
 .got.plt       0x0000000000035a97        0x0 FrontPageVfr.obj (symbol from plugin)
 *:AutoGen.obj(.data.g*Guid)

.plt            0x0000000000035aa0        0x0
 .plt           0x0000000000035aa0        0x0 FrontPageVfr.obj (symbol from plugin)

.plt.got        0x0000000000035a98        0x0
 .plt.got       0x0000000000035a98        0x0 FrontPageVfr.obj (symbol from plugin)

.data           0x0000000000035ac0     0x77e0
 *(.data .data.* .gnu.linkonce.d.*)
 .data.FrontPageVfrBin
                0x0000000000035ac0      0x147 /tmp/ccCWtBvp.ltrans31.ltrans.o
 *fill*         0x0000000000035c07        0x9 
 .data.mFrontPageGuid
                0x0000000000035c10       0x10 /tmp/ccCWtBvp.ltrans31.ltrans.o
 .data.rel.local.gFrontPagePrivate
                0x0000000000035c20       0x38 /tmp/ccCWtBvp.ltrans31.ltrans.o
                0x0000000000035c20                gFrontPagePrivate
 *fill*         0x0000000000035c58        0x8 
 .data.mFrontPageHiiVendorDevicePath
                0x0000000000035c60       0x18 /tmp/ccCWtBvp.ltrans31.ltrans.o
 *fill*         0x0000000000035c78        0x8 
 .data.mUiStringPackGuid
                0x0000000000035c80       0x10 /tmp/ccCWtBvp.ltrans31.ltrans.o
                0x0000000000035c80                mUiStringPackGuid
 .data.mFontPackageGuid
                0x0000000000035c90       0x10 /tmp/ccCWtBvp.ltrans31.ltrans.o
                0x0000000000035c90                mFontPackageGuid
 .data.mFontBin
                0x0000000000035ca0      0xda0 /tmp/ccCWtBvp.ltrans31.ltrans.o
                0x0000000000035ca0                mFontBin
 .data.gEfiCallerIdGuid
                0x0000000000036a40       0x10 /tmp/ccCWtBvp.ltrans31.ltrans.o
                0x0000000000036a40                gEfiCallerIdGuid
 .data.rel.local.gEfiCallerBaseName
                0x0000000000036a50        0x8 /tmp/ccCWtBvp.ltrans31.ltrans.o
                0x0000000000036a50                gEfiCallerBaseName
 *fill*         0x0000000000036a58        0x8 
 .data.gEfiIfrTianoGuid
                0x0000000000036a60       0x10 /tmp/ccCWtBvp.ltrans31.ltrans.o
                0x0000000000036a60                gEfiIfrTianoGuid
 .data.gEfiIfrFrontPageGuid
                0x0000000000036a70       0x10 /tmp/ccCWtBvp.ltrans31.ltrans.o
                0x0000000000036a70                gEfiIfrFrontPageGuid
 .data.gEfiStatusCodeDataTypeDebugGuid
                0x0000000000036a80       0x10 /tmp/ccCWtBvp.ltrans31.ltrans.o
                0x0000000000036a80                gEfiStatusCodeDataTypeDebugGuid
 .data.gEfiStatusCodeSpecificDataGuid
                0x0000000000036a90       0x10 /tmp/ccCWtBvp.ltrans31.ltrans.o
                0x0000000000036a90                gEfiStatusCodeSpecificDataGuid
 .data.gEfiVTUTF8Guid
                0x0000000000036aa0       0x10 /tmp/ccCWtBvp.ltrans31.ltrans.o
                0x0000000000036aa0                gEfiVTUTF8Guid
 .data.gEfiVT100Guid
                0x0000000000036ab0       0x10 /tmp/ccCWtBvp.ltrans31.ltrans.o
                0x0000000000036ab0                gEfiVT100Guid
 .data.gEfiVT100PlusGuid
                0x0000000000036ac0       0x10 /tmp/ccCWtBvp.ltrans31.ltrans.o
                0x0000000000036ac0                gEfiVT100PlusGuid
 .data.gEfiPcAnsiGuid
                0x0000000000036ad0       0x10 /tmp/ccCWtBvp.ltrans31.ltrans.o
                0x0000000000036ad0                gEfiPcAnsiGuid
 .data.gEfiUartDevicePathGuid
                0x0000000000036ae0       0x10 /tmp/ccCWtBvp.ltrans31.ltrans.o
                0x0000000000036ae0                gEfiUartDevicePathGuid
 .data.gEfiSasDevicePathGuid
                0x0000000000036af0       0x10 /tmp/ccCWtBvp.ltrans31.ltrans.o
                0x0000000000036af0                gEfiSasDevicePathGuid
 .data.gEfiVirtualDiskGuid
                0x0000000000036b00       0x10 /tmp/ccCWtBvp.ltrans31.ltrans.o
                0x0000000000036b00                gEfiVirtualDiskGuid
 .data.gEfiVirtualCdGuid
                0x0000000000036b10       0x10 /tmp/ccCWtBvp.ltrans31.ltrans.o
                0x0000000000036b10                gEfiVirtualCdGuid
 .data.gEfiPersistentVirtualDiskGuid
                0x0000000000036b20       0x10 /tmp/ccCWtBvp.ltrans31.ltrans.o
                0x0000000000036b20                gEfiPersistentVirtualDiskGuid
 .data.gEfiPersistentVirtualCdGuid
                0x0000000000036b30       0x10 /tmp/ccCWtBvp.ltrans31.ltrans.o
                0x0000000000036b30                gEfiPersistentVirtualCdGuid
 .data.gEfiEventReadyToBootGuid
                0x0000000000036b40       0x10 /tmp/ccCWtBvp.ltrans31.ltrans.o
                0x0000000000036b40                gEfiEventReadyToBootGuid
 .data.gEfiEventLegacyBootGuid
                0x0000000000036b50       0x10 /tmp/ccCWtBvp.ltrans31.ltrans.o
                0x0000000000036b50                gEfiEventLegacyBootGuid
 .data.gEfiGlobalVariableGuid
                0x0000000000036b60       0x10 /tmp/ccCWtBvp.ltrans31.ltrans.o
                0x0000000000036b60                gEfiGlobalVariableGuid
 .data.gEfiHobListGuid
                0x0000000000036b70       0x10 /tmp/ccCWtBvp.ltrans31.ltrans.o
                0x0000000000036b70                gEfiHobListGuid
 .data.gEfiFileInfoGuid
                0x0000000000036b80       0x10 /tmp/ccCWtBvp.ltrans31.ltrans.o
                0x0000000000036b80                gEfiFileInfoGuid
 .data.gEfiDxeServicesTableGuid
                0x0000000000036b90       0x10 /tmp/ccCWtBvp.ltrans31.ltrans.o
                0x0000000000036b90                gEfiDxeServicesTableGuid
 .data.gEfiMemoryTypeInformationGuid
                0x0000000000036ba0       0x10 /tmp/ccCWtBvp.ltrans31.ltrans.o
                0x0000000000036ba0                gEfiMemoryTypeInformationGuid
 .data.gEdkiiStatusCodeDataTypeVariableGuid
                0x0000000000036bb0       0x10 /tmp/ccCWtBvp.ltrans31.ltrans.o
                0x0000000000036bb0                gEdkiiStatusCodeDataTypeVariableGuid
 .data.gEfiDiskInfoAhciInterfaceGuid
                0x0000000000036bc0       0x10 /tmp/ccCWtBvp.ltrans31.ltrans.o
                0x0000000000036bc0                gEfiDiskInfoAhciInterfaceGuid
 .data.gEfiDiskInfoIdeInterfaceGuid
                0x0000000000036bd0       0x10 /tmp/ccCWtBvp.ltrans31.ltrans.o
                0x0000000000036bd0                gEfiDiskInfoIdeInterfaceGuid
 .data.gEfiDiskInfoScsiInterfaceGuid
                0x0000000000036be0       0x10 /tmp/ccCWtBvp.ltrans31.ltrans.o
                0x0000000000036be0                gEfiDiskInfoScsiInterfaceGuid
 .data.gEfiDiskInfoSdMmcInterfaceGuid
                0x0000000000036bf0       0x10 /tmp/ccCWtBvp.ltrans31.ltrans.o
                0x0000000000036bf0                gEfiDiskInfoSdMmcInterfaceGuid
 .data.gEfiFileSystemVolumeLabelInfoIdGuid
                0x0000000000036c00       0x10 /tmp/ccCWtBvp.ltrans31.ltrans.o
                0x0000000000036c00                gEfiFileSystemVolumeLabelInfoIdGuid
 .data.gEfiHiiPlatformSetupFormsetGuid
                0x0000000000036c10       0x10 /tmp/ccCWtBvp.ltrans31.ltrans.o
                0x0000000000036c10                gEfiHiiPlatformSetupFormsetGuid
 .data.gEfiIfrBootMaintenanceGuid
                0x0000000000036c20       0x10 /tmp/ccCWtBvp.ltrans31.ltrans.o
                0x0000000000036c20                gEfiIfrBootMaintenanceGuid
 .data.gEfiSmbiosProtocolGuid
                0x0000000000036c30       0x10 /tmp/ccCWtBvp.ltrans31.ltrans.o
 .data.gEfiHiiConfigAccessProtocolGuid
                0x0000000000036c40       0x10 /tmp/ccCWtBvp.ltrans31.ltrans.o
                0x0000000000036c40                gEfiHiiConfigAccessProtocolGuid
 .data.gPcdProtocolGuid
                0x0000000000036c50       0x10 /tmp/ccCWtBvp.ltrans31.ltrans.o
                0x0000000000036c50                gPcdProtocolGuid
 .data.gEfiStatusCodeRuntimeProtocolGuid
                0x0000000000036c60       0x10 /tmp/ccCWtBvp.ltrans31.ltrans.o
                0x0000000000036c60                gEfiStatusCodeRuntimeProtocolGuid
 .data.gEfiDevicePathProtocolGuid
                0x0000000000036c70       0x10 /tmp/ccCWtBvp.ltrans31.ltrans.o
                0x0000000000036c70                gEfiDevicePathProtocolGuid
 .data.gEfiDebugPortProtocolGuid
                0x0000000000036c80       0x10 /tmp/ccCWtBvp.ltrans31.ltrans.o
                0x0000000000036c80                gEfiDebugPortProtocolGuid
 .data.gEfiSimpleTextOutProtocolGuid
                0x0000000000036c90       0x10 /tmp/ccCWtBvp.ltrans31.ltrans.o
                0x0000000000036c90                gEfiSimpleTextOutProtocolGuid
 .data.gEfiGraphicsOutputProtocolGuid
                0x0000000000036ca0       0x10 /tmp/ccCWtBvp.ltrans31.ltrans.o
                0x0000000000036ca0                gEfiGraphicsOutputProtocolGuid
 .data.gEfiHiiFontProtocolGuid
                0x0000000000036cb0       0x10 /tmp/ccCWtBvp.ltrans31.ltrans.o
                0x0000000000036cb0                gEfiHiiFontProtocolGuid
 .data.gEfiSimpleFileSystemProtocolGuid
                0x0000000000036cc0       0x10 /tmp/ccCWtBvp.ltrans31.ltrans.o
                0x0000000000036cc0                gEfiSimpleFileSystemProtocolGuid
 .data.gEfiComponentNameProtocolGuid
                0x0000000000036cd0       0x10 /tmp/ccCWtBvp.ltrans31.ltrans.o
                0x0000000000036cd0                gEfiComponentNameProtocolGuid
 .data.gEfiComponentName2ProtocolGuid
                0x0000000000036ce0       0x10 /tmp/ccCWtBvp.ltrans31.ltrans.o
                0x0000000000036ce0                gEfiComponentName2ProtocolGuid
 .data.gEfiHiiStringProtocolGuid
                0x0000000000036cf0       0x10 /tmp/ccCWtBvp.ltrans31.ltrans.o
                0x0000000000036cf0                gEfiHiiStringProtocolGuid
 .data.gEfiHiiImageProtocolGuid
                0x0000000000036d00       0x10 /tmp/ccCWtBvp.ltrans31.ltrans.o
                0x0000000000036d00                gEfiHiiImageProtocolGuid
 .data.gEfiHiiDatabaseProtocolGuid
                0x0000000000036d10       0x10 /tmp/ccCWtBvp.ltrans31.ltrans.o
                0x0000000000036d10                gEfiHiiDatabaseProtocolGuid
 .data.gEfiHiiConfigRoutingProtocolGuid
                0x0000000000036d20       0x10 /tmp/ccCWtBvp.ltrans31.ltrans.o
                0x0000000000036d20                gEfiHiiConfigRoutingProtocolGuid
 .data.gEfiFirmwareVolume2ProtocolGuid
                0x0000000000036d30       0x10 /tmp/ccCWtBvp.ltrans31.ltrans.o
                0x0000000000036d30                gEfiFirmwareVolume2ProtocolGuid
 .data.gEfiLoadedImageProtocolGuid
                0x0000000000036d40       0x10 /tmp/ccCWtBvp.ltrans31.ltrans.o
                0x0000000000036d40                gEfiLoadedImageProtocolGuid
 .data.gEfiLoadFileProtocolGuid
                0x0000000000036d50       0x10 /tmp/ccCWtBvp.ltrans31.ltrans.o
                0x0000000000036d50                gEfiLoadFileProtocolGuid
 .data.gEfiLoadFile2ProtocolGuid
                0x0000000000036d60       0x10 /tmp/ccCWtBvp.ltrans31.ltrans.o
                0x0000000000036d60                gEfiLoadFile2ProtocolGuid
 .data.gEfiFormBrowser2ProtocolGuid
                0x0000000000036d70       0x10 /tmp/ccCWtBvp.ltrans31.ltrans.o
                0x0000000000036d70                gEfiFormBrowser2ProtocolGuid
 .data.gEfiPciIoProtocolGuid
                0x0000000000036d80       0x10 /tmp/ccCWtBvp.ltrans31.ltrans.o
                0x0000000000036d80                gEfiPciIoProtocolGuid
 .data.gEfiSimpleTextInProtocolGuid
                0x0000000000036d90       0x10 /tmp/ccCWtBvp.ltrans31.ltrans.o
                0x0000000000036d90                gEfiSimpleTextInProtocolGuid
 .data.gEfiBlockIoProtocolGuid
                0x0000000000036da0       0x10 /tmp/ccCWtBvp.ltrans31.ltrans.o
                0x0000000000036da0                gEfiBlockIoProtocolGuid
 .data.gEfiBootLogoProtocolGuid
                0x0000000000036db0       0x10 /tmp/ccCWtBvp.ltrans31.ltrans.o
                0x0000000000036db0                gEfiBootLogoProtocolGuid
 .data.gEfiSimpleTextInputExProtocolGuid
                0x0000000000036dc0       0x10 /tmp/ccCWtBvp.ltrans31.ltrans.o
                0x0000000000036dc0                gEfiSimpleTextInputExProtocolGuid
 .data.gEdkiiVariableLockProtocolGuid
                0x0000000000036dd0       0x10 /tmp/ccCWtBvp.ltrans31.ltrans.o
                0x0000000000036dd0                gEdkiiVariableLockProtocolGuid
 .data.gEfiUsbIoProtocolGuid
                0x0000000000036de0       0x10 /tmp/ccCWtBvp.ltrans31.ltrans.o
                0x0000000000036de0                gEfiUsbIoProtocolGuid
 .data.gEfiNvmExpressPassThruProtocolGuid
                0x0000000000036df0       0x10 /tmp/ccCWtBvp.ltrans31.ltrans.o
                0x0000000000036df0                gEfiNvmExpressPassThruProtocolGuid
 .data.gEfiDiskInfoProtocolGuid
                0x0000000000036e00       0x10 /tmp/ccCWtBvp.ltrans31.ltrans.o
                0x0000000000036e00                gEfiDiskInfoProtocolGuid
 .data.gEfiDriverHealthProtocolGuid
                0x0000000000036e10       0x10 /tmp/ccCWtBvp.ltrans31.ltrans.o
                0x0000000000036e10                gEfiDriverHealthProtocolGuid
 .data.gEfiRamDiskProtocolGuid
                0x0000000000036e20       0x10 /tmp/ccCWtBvp.ltrans31.ltrans.o
                0x0000000000036e20                gEfiRamDiskProtocolGuid
 .data.gEdkiiPlatformBootManagerProtocolGuid
                0x0000000000036e30       0x10 /tmp/ccCWtBvp.ltrans31.ltrans.o
                0x0000000000036e30                gEdkiiPlatformBootManagerProtocolGuid
 .data.gEfiDevicePathToTextProtocolGuid
                0x0000000000036e40       0x10 /tmp/ccCWtBvp.ltrans31.ltrans.o
                0x0000000000036e40                gEfiDevicePathToTextProtocolGuid
 .data.gEdkiiFormBrowserEx2ProtocolGuid
                0x0000000000036e50       0x10 /tmp/ccCWtBvp.ltrans31.ltrans.o
                0x0000000000036e50                gEdkiiFormBrowserEx2ProtocolGuid
 .data.gEfiSerialIoProtocolGuid
                0x0000000000036e60       0x10 /tmp/ccCWtBvp.ltrans31.ltrans.o
                0x0000000000036e60                gEfiSerialIoProtocolGuid
 .data._gPcd_BinaryPatch_PcdVideoHorizontalResolution
                0x0000000000036e70        0x4 /tmp/ccCWtBvp.ltrans31.ltrans.o
                0x0000000000036e70                _gPcd_BinaryPatch_PcdVideoHorizontalResolution
 .data._gPcd_BinaryPatch_PcdVideoVerticalResolution
                0x0000000000036e74        0x4 /tmp/ccCWtBvp.ltrans31.ltrans.o
                0x0000000000036e74                _gPcd_BinaryPatch_PcdVideoVerticalResolution
 .data._gPcd_BinaryPatch_PcdSetupConOutColumn
                0x0000000000036e78        0x4 /tmp/ccCWtBvp.ltrans31.ltrans.o
                0x0000000000036e78                _gPcd_BinaryPatch_PcdSetupConOutColumn
 .data._gPcd_BinaryPatch_PcdSetupConOutRow
                0x0000000000036e7c        0x4 /tmp/ccCWtBvp.ltrans31.ltrans.o
                0x0000000000036e7c                _gPcd_BinaryPatch_PcdSetupConOutRow
 .data._gPcd_BinaryPatch_PcdSetupVideoHorizontalResolution
                0x0000000000036e80        0x4 /tmp/ccCWtBvp.ltrans31.ltrans.o
                0x0000000000036e80                _gPcd_BinaryPatch_PcdSetupVideoHorizontalResolution
 .data._gPcd_BinaryPatch_PcdSetupVideoVerticalResolution
                0x0000000000036e84        0x4 /tmp/ccCWtBvp.ltrans31.ltrans.o
                0x0000000000036e84                _gPcd_BinaryPatch_PcdSetupVideoVerticalResolution
 *fill*         0x0000000000036e88       0x18 
 .data.UiAppStrings
                0x0000000000036ea0      0x426 /tmp/ccCWtBvp.ltrans31.ltrans.o
                0x0000000000036ea0                UiAppStrings
 *fill*         0x00000000000372c6       0x1a 
 .data.rel.ro.local.mUefiDevicePathLibToTextTableGeneric
                0x00000000000372e0       0x60 /tmp/ccCWtBvp.ltrans31.ltrans.o
                0x00000000000372e0                mUefiDevicePathLibToTextTableGeneric
 .data.rel.ro.local.mUefiDevicePathLibToTextTable
                0x0000000000037340      0x320 /tmp/ccCWtBvp.ltrans31.ltrans.o
                0x0000000000037340                mUefiDevicePathLibToTextTable
 .data.rel.local.mConVarName
                0x0000000000037660       0x30 /tmp/ccCWtBvp.ltrans31.ltrans.o
                0x0000000000037660                mConVarName
 .data.mBmHardDriveBootVariableGuid
                0x0000000000037690       0x10 /tmp/ccCWtBvp.ltrans31.ltrans.o
                0x0000000000037690                mBmHardDriveBootVariableGuid
 .data.mBmAutoCreateBootOptionGuid
                0x00000000000376a0       0x10 /tmp/ccCWtBvp.ltrans31.ltrans.o
                0x00000000000376a0                mBmAutoCreateBootOptionGuid
 .data.mBmUefiPrefix
                0x00000000000376b0        0xc /tmp/ccCWtBvp.ltrans31.ltrans.o
                0x00000000000376b0                mBmUefiPrefix
 *fill*         0x00000000000376bc        0x4 
 .data.rel.local.mPlatformBootDescriptionHandlers
                0x00000000000376c0       0x10 /tmp/ccCWtBvp.ltrans31.ltrans.o
                0x00000000000376c0                mPlatformBootDescriptionHandlers
 *fill*         0x00000000000376d0       0x10 
 .data.rel.local.mBmBootDescriptionHandlers
                0x00000000000376e0       0x30 /tmp/ccCWtBvp.ltrans31.ltrans.o
                0x00000000000376e0                mBmBootDescriptionHandlers
 *fill*         0x0000000000037710       0x10 
 .data.rel.local.mBmLoadOptionName
                0x0000000000037720       0x20 /tmp/ccCWtBvp.ltrans31.ltrans.o
                0x0000000000037720                mBmLoadOptionName
 .data.rel.local.mBmLoadOptionOrderName
                0x0000000000037740       0x20 /tmp/ccCWtBvp.ltrans31.ltrans.o
                0x0000000000037740                mBmLoadOptionOrderName
 .data.mBmHotkeyLock
                0x0000000000037760       0x18 /tmp/ccCWtBvp.ltrans31.ltrans.o
                0x0000000000037760                mBmHotkeyLock
 *fill*         0x0000000000037778        0x8 
 .data.rel.local.mBmHotkeyList
                0x0000000000037780       0x10 /tmp/ccCWtBvp.ltrans31.ltrans.o
                0x0000000000037780                mBmHotkeyList
 *fill*         0x0000000000037790       0x10 
 .data.mBmHotkeyBootOption
                0x00000000000377a0       0x58 /tmp/ccCWtBvp.ltrans31.ltrans.o
                0x00000000000377a0                mBmHotkeyBootOption
 *fill*         0x00000000000377f8        0x8 
 .data.rel.local.mBmHealthStatusText
                0x0000000000037800       0x30 /tmp/ccCWtBvp.ltrans31.ltrans.o
                0x0000000000037800                mBmHealthStatusText
 *fill*         0x0000000000037830       0x10 
 .data.FileExplorerVfrBin
                0x0000000000037840       0xf9 /tmp/ccCWtBvp.ltrans31.ltrans.o
                0x0000000000037840                FileExplorerVfrBin
 *fill*         0x0000000000037939        0x7 
 .data.FileExplorerGuid
                0x0000000000037940       0x10 /tmp/ccCWtBvp.ltrans31.ltrans.o
                0x0000000000037940                FileExplorerGuid
 *fill*         0x0000000000037950       0x10 
 .data.mFsOptionMenu
                0x0000000000037960       0x28 /tmp/ccCWtBvp.ltrans31.ltrans.o
 *fill*         0x0000000000037988       0x18 
 .data.rel.local.gFileExplorerPrivate
                0x00000000000379a0       0x58 /tmp/ccCWtBvp.ltrans31.ltrans.o
                0x00000000000379a0                gFileExplorerPrivate
 *fill*         0x00000000000379f8        0x8 
 .data.FeHiiVendorDevicePath
                0x0000000000037a00       0x18 /tmp/ccCWtBvp.ltrans31.ltrans.o
                0x0000000000037a00                FeHiiVendorDevicePath
 .data.mNewFileQuestionId
                0x0000000000037a18        0x8 /tmp/ccCWtBvp.ltrans31.ltrans.o
                0x0000000000037a18                mNewFileQuestionId
 .data.mNewFolderQuestionId
                0x0000000000037a20        0x8 /tmp/ccCWtBvp.ltrans31.ltrans.o
                0x0000000000037a20                mNewFolderQuestionId
 *fill*         0x0000000000037a28       0x18 
 .data.FileExplorerLibStrings
                0x0000000000037a40      0x81a /tmp/ccCWtBvp.ltrans31.ltrans.o
                0x0000000000037a40                FileExplorerLibStrings
 *fill*         0x000000000003825a        0x6 
 .data.DeviceManagerVfrBin
                0x0000000000038260      0x12d /tmp/ccCWtBvp.ltrans31.ltrans.o
                0x0000000000038260                DeviceManagerVfrBin
 *fill*         0x000000000003838d       0x13 
 .data.rel.local.gDeviceManagerPrivate
                0x00000000000383a0       0x38 /tmp/ccCWtBvp.ltrans31.ltrans.o
                0x00000000000383a0                gDeviceManagerPrivate
 *fill*         0x00000000000383d8        0x8 
 .data.mDeviceManagerGuid
                0x00000000000383e0       0x10 /tmp/ccCWtBvp.ltrans31.ltrans.o
                0x00000000000383e0                mDeviceManagerGuid
 .data.mDeviceManagerHiiVendorDevicePath
                0x00000000000383f0       0x18 /tmp/ccCWtBvp.ltrans31.ltrans.o
                0x00000000000383f0                mDeviceManagerHiiVendorDevicePath
 *fill*         0x0000000000038408       0x18 
 .data.DeviceManagerUiLibStrings
                0x0000000000038420      0x4b8 /tmp/ccCWtBvp.ltrans31.ltrans.o
                0x0000000000038420                DeviceManagerUiLibStrings
 *fill*         0x00000000000388d8        0x8 
 .data.BootManagerVfrBin
                0x00000000000388e0       0xb3 /tmp/ccCWtBvp.ltrans31.ltrans.o
                0x00000000000388e0                BootManagerVfrBin
 *fill*         0x0000000000038993        0xd 
 .data.mBootManagerGuid
                0x00000000000389a0       0x10 /tmp/ccCWtBvp.ltrans31.ltrans.o
                0x00000000000389a0                mBootManagerGuid
 *fill*         0x00000000000389b0       0x10 
 .data.rel.local.mDeviceTypeStr
                0x00000000000389c0       0x40 /tmp/ccCWtBvp.ltrans31.ltrans.o
                0x00000000000389c0                mDeviceTypeStr
 .data.mBootManagerHiiVendorDevicePath
                0x0000000000038a00       0x18 /tmp/ccCWtBvp.ltrans31.ltrans.o
                0x0000000000038a00                mBootManagerHiiVendorDevicePath
 *fill*         0x0000000000038a18        0x8 
 .data.rel.local.gBootManagerPrivate
                0x0000000000038a20       0x30 /tmp/ccCWtBvp.ltrans31.ltrans.o
                0x0000000000038a20                gBootManagerPrivate
 *fill*         0x0000000000038a50       0x10 
 .data.BootManagerUiLibStrings
                0x0000000000038a60      0x434 /tmp/ccCWtBvp.ltrans31.ltrans.o
                0x0000000000038a60                BootManagerUiLibStrings
 *fill*         0x0000000000038e94        0xc 
 .data.BootMaintenanceManagerBin
                0x0000000000038ea0      0x594 /tmp/ccCWtBvp.ltrans31.ltrans.o
                0x0000000000038ea0                BootMaintenanceManagerBin
 *fill*         0x0000000000039434        0xc 
 .data.mBmmHiiVendorDevicePath
                0x0000000000039440       0x18 /tmp/ccCWtBvp.ltrans31.ltrans.o
                0x0000000000039440                mBmmHiiVendorDevicePath
 *fill*         0x0000000000039458        0x8 
 .data.mBootMaintGuid
                0x0000000000039460       0x10 /tmp/ccCWtBvp.ltrans31.ltrans.o
                0x0000000000039460                mBootMaintGuid
 .data.mBootMaintStorageName
                0x0000000000039470       0x10 /tmp/ccCWtBvp.ltrans31.ltrans.o
                0x0000000000039470                mBootMaintStorageName
 .data.rel.local.gBootMaintenancePrivate
                0x0000000000039480     0x1c60 /tmp/ccCWtBvp.ltrans31.ltrans.o
                0x0000000000039480                gBootMaintenancePrivate
 .data.rel.local.mBmmCallbackInfo
                0x000000000003b0e0        0x8 /tmp/ccCWtBvp.ltrans31.ltrans.o
                0x000000000003b0e0                mBmmCallbackInfo
 *fill*         0x000000000003b0e8        0x8 
 .data.TerminalType
                0x000000000003b0f0       0x12 /tmp/ccCWtBvp.ltrans31.ltrans.o
                0x000000000003b0f0                TerminalType
 .data.mFlowControlType
                0x000000000003b102        0x4 /tmp/ccCWtBvp.ltrans31.ltrans.o
                0x000000000003b102                mFlowControlType
 *fill*         0x000000000003b106        0x2 
 .data.mFlowControlValue
                0x000000000003b108        0x8 /tmp/ccCWtBvp.ltrans31.ltrans.o
                0x000000000003b108                mFlowControlValue
 *fill*         0x000000000003b110       0x10 
 .data.ConsoleInpMenu
                0x000000000003b120       0x20 /tmp/ccCWtBvp.ltrans31.ltrans.o
                0x000000000003b120                ConsoleInpMenu
 .data.ConsoleOutMenu
                0x000000000003b140       0x20 /tmp/ccCWtBvp.ltrans31.ltrans.o
                0x000000000003b140                ConsoleOutMenu
 .data.ConsoleErrMenu
                0x000000000003b160       0x20 /tmp/ccCWtBvp.ltrans31.ltrans.o
                0x000000000003b160                ConsoleErrMenu
 .data.BootOptionMenu
                0x000000000003b180       0x20 /tmp/ccCWtBvp.ltrans31.ltrans.o
                0x000000000003b180                BootOptionMenu
 .data.DriverOptionMenu
                0x000000000003b1a0       0x20 /tmp/ccCWtBvp.ltrans31.ltrans.o
                0x000000000003b1a0                DriverOptionMenu
 .data.DriverMenu
                0x000000000003b1c0       0x20 /tmp/ccCWtBvp.ltrans31.ltrans.o
                0x000000000003b1c0                DriverMenu
 .data.TerminalMenu
                0x000000000003b1e0       0x20 /tmp/ccCWtBvp.ltrans31.ltrans.o
                0x000000000003b1e0                TerminalMenu
 .data.BaudRateList
                0x000000000003b200      0x130 /tmp/ccCWtBvp.ltrans31.ltrans.o
                0x000000000003b200                BaudRateList
 *fill*         0x000000000003b330       0x10 
 .data.DataBitsList
                0x000000000003b340       0x40 /tmp/ccCWtBvp.ltrans31.ltrans.o
                0x000000000003b340                DataBitsList
 .data.ParityList
                0x000000000003b380       0x50 /tmp/ccCWtBvp.ltrans31.ltrans.o
                0x000000000003b380                ParityList
 *fill*         0x000000000003b3d0       0x10 
 .data.StopBitsList
                0x000000000003b3e0       0x30 /tmp/ccCWtBvp.ltrans31.ltrans.o
                0x000000000003b3e0                StopBitsList
 *fill*         0x000000000003b410       0x10 
 .data.TerminalTypeGuid
                0x000000000003b420       0x90 /tmp/ccCWtBvp.ltrans31.ltrans.o
                0x000000000003b420                TerminalTypeGuid
 *fill*         0x000000000003b4b0       0x10 
 .data.BootMaintenanceManagerUiLibStrings
                0x000000000003b4c0     0x1bbe /tmp/ccCWtBvp.ltrans31.ltrans.o
                0x000000000003b4c0                BootMaintenanceManagerUiLibStrings
 .data.rel.ro   0x000000000003d07e        0x0 FrontPageVfr.obj (symbol from plugin)
 *(.bss .bss.*)
 .bss.mResetRequired
                0x000000000003d07e        0x1 /tmp/ccCWtBvp.ltrans31.ltrans.o
                0x000000000003d07e                mResetRequired
 *fill*         0x000000000003d07f        0x1 
 .bss.gFormBrowser2
                0x000000000003d080        0x8 /tmp/ccCWtBvp.ltrans31.ltrans.o
 .bss.mLanguageString
                0x000000000003d088        0x8 /tmp/ccCWtBvp.ltrans31.ltrans.o
                0x000000000003d088                mLanguageString
 .bss.mModeInitialized
                0x000000000003d090        0x1 /tmp/ccCWtBvp.ltrans31.ltrans.o
                0x000000000003d090                mModeInitialized
 *fill*         0x000000000003d091        0x3 
 .bss.mBootHorizontalResolution
                0x000000000003d094        0x4 /tmp/ccCWtBvp.ltrans31.ltrans.o
                0x000000000003d094                mBootHorizontalResolution
 .bss.mBootVerticalResolution
                0x000000000003d098        0x4 /tmp/ccCWtBvp.ltrans31.ltrans.o
                0x000000000003d098                mBootVerticalResolution
 .bss.mBootTextModeColumn
                0x000000000003d09c        0x4 /tmp/ccCWtBvp.ltrans31.ltrans.o
                0x000000000003d09c                mBootTextModeColumn
 .bss.mBootTextModeRow
                0x000000000003d0a0        0x4 /tmp/ccCWtBvp.ltrans31.ltrans.o
                0x000000000003d0a0                mBootTextModeRow
 .bss.mSetupTextModeColumn
                0x000000000003d0a4        0x4 /tmp/ccCWtBvp.ltrans31.ltrans.o
                0x000000000003d0a4                mSetupTextModeColumn
 .bss.mSetupTextModeRow
                0x000000000003d0a8        0x4 /tmp/ccCWtBvp.ltrans31.ltrans.o
                0x000000000003d0a8                mSetupTextModeRow
 .bss.mSetupHorizontalResolution
                0x000000000003d0ac        0x4 /tmp/ccCWtBvp.ltrans31.ltrans.o
                0x000000000003d0ac                mSetupHorizontalResolution
 .bss.mSetupVerticalResolution
                0x000000000003d0b0        0x4 /tmp/ccCWtBvp.ltrans31.ltrans.o
                0x000000000003d0b0                mSetupVerticalResolution
 *fill*         0x000000000003d0b4        0x4 
 .bss.gStringPackHandle
                0x000000000003d0b8        0x8 /tmp/ccCWtBvp.ltrans31.ltrans.o
                0x000000000003d0b8                gStringPackHandle
 .bss.gLanguageString
                0x000000000003d0c0        0x8 /tmp/ccCWtBvp.ltrans31.ltrans.o
                0x000000000003d0c0                gLanguageString
 .bss.gLanguageToken
                0x000000000003d0c8        0x8 /tmp/ccCWtBvp.ltrans31.ltrans.o
                0x000000000003d0c8                gLanguageToken
 .bss.gHiiDriverList
                0x000000000003d0d0        0x8 /tmp/ccCWtBvp.ltrans31.ltrans.o
                0x000000000003d0d0                gHiiDriverList
 .bss.gCurrentLanguageIndex
                0x000000000003d0d8        0x1 /tmp/ccCWtBvp.ltrans31.ltrans.o
                0x000000000003d0d8                gCurrentLanguageIndex
 *fill*         0x000000000003d0d9        0x7 
 .bss.mPcd      0x000000000003d0e0        0x8 /tmp/ccCWtBvp.ltrans31.ltrans.o
                0x000000000003d0e0                mPcd
 .bss.mReportStatusCodeLibStatusCodeProtocol
                0x000000000003d0e8        0x8 /tmp/ccCWtBvp.ltrans31.ltrans.o
                0x000000000003d0e8                mReportStatusCodeLibStatusCodeProtocol
 .bss.gImageHandle
                0x000000000003d0f0        0x8 /tmp/ccCWtBvp.ltrans31.ltrans.o
                0x000000000003d0f0                gImageHandle
 .bss.gST       0x000000000003d0f8        0x8 /tmp/ccCWtBvp.ltrans31.ltrans.o
                0x000000000003d0f8                gST
 .bss.gBS       0x000000000003d100        0x8 /tmp/ccCWtBvp.ltrans31.ltrans.o
                0x000000000003d100                gBS
 .bss.gRT       0x000000000003d108        0x8 /tmp/ccCWtBvp.ltrans31.ltrans.o
                0x000000000003d108                gRT
 .bss.mHobList  0x000000000003d110        0x8 /tmp/ccCWtBvp.ltrans31.ltrans.o
                0x000000000003d110                mHobList
 .bss.gHiiFont  0x000000000003d118        0x8 /tmp/ccCWtBvp.ltrans31.ltrans.o
                0x000000000003d118                gHiiFont
 .bss.gHiiString
                0x000000000003d120        0x8 /tmp/ccCWtBvp.ltrans31.ltrans.o
                0x000000000003d120                gHiiString
 .bss.gHiiImage
                0x000000000003d128        0x8 /tmp/ccCWtBvp.ltrans31.ltrans.o
                0x000000000003d128                gHiiImage
 .bss.gHiiDatabase
                0x000000000003d130        0x8 /tmp/ccCWtBvp.ltrans31.ltrans.o
                0x000000000003d130                gHiiDatabase
 .bss.gHiiConfigRouting
                0x000000000003d138        0x8 /tmp/ccCWtBvp.ltrans31.ltrans.o
                0x000000000003d138                gHiiConfigRouting
 .bss.gDS       0x000000000003d140        0x8 /tmp/ccCWtBvp.ltrans31.ltrans.o
                0x000000000003d140                gDS
 .bss.mUefiFormBrowser2
                0x000000000003d148        0x8 /tmp/ccCWtBvp.ltrans31.ltrans.o
                0x000000000003d148                mUefiFormBrowser2
 .bss.mRamDisk  0x000000000003d150        0x8 /tmp/ccCWtBvp.ltrans31.ltrans.o
                0x000000000003d150                mRamDisk
 .bss.mBmRefreshLegacyBootOption
                0x000000000003d158        0x8 /tmp/ccCWtBvp.ltrans31.ltrans.o
                0x000000000003d158                mBmRefreshLegacyBootOption
 .bss.mBmLegacyBoot
                0x000000000003d160        0x8 /tmp/ccCWtBvp.ltrans31.ltrans.o
                0x000000000003d160                mBmLegacyBoot
 .bss.mBmHotkeyTriggered
                0x000000000003d168        0x8 /tmp/ccCWtBvp.ltrans31.ltrans.o
                0x000000000003d168                mBmHotkeyTriggered
 .bss.gHiiVendorDevicePath
                0x000000000003d170        0x8 /tmp/ccCWtBvp.ltrans31.ltrans.o
                0x000000000003d170                gHiiVendorDevicePath
 .bss.mLibStartOpCodeHandle
                0x000000000003d178        0x8 /tmp/ccCWtBvp.ltrans31.ltrans.o
                0x000000000003d178                mLibStartOpCodeHandle
 .bss.mLibEndOpCodeHandle
                0x000000000003d180        0x8 /tmp/ccCWtBvp.ltrans31.ltrans.o
                0x000000000003d180                mLibEndOpCodeHandle
 .bss.mLibStartLabel
                0x000000000003d188        0x8 /tmp/ccCWtBvp.ltrans31.ltrans.o
                0x000000000003d188                mLibStartLabel
 .bss.mLibEndLabel
                0x000000000003d190        0x8 /tmp/ccCWtBvp.ltrans31.ltrans.o
                0x000000000003d190                mLibEndLabel
 .bss.mQuestionIdUpdate
                0x000000000003d198        0x2 /tmp/ccCWtBvp.ltrans31.ltrans.o
                0x000000000003d198                mQuestionIdUpdate
 *fill*         0x000000000003d19a        0x6 
 .bss.mNewFileName
                0x000000000003d1a0       0x28 /tmp/ccCWtBvp.ltrans31.ltrans.o
                0x000000000003d1a0                mNewFileName
 *fill*         0x000000000003d1c8       0x18 
 .bss.mNewFolderName
                0x000000000003d1e0       0x28 /tmp/ccCWtBvp.ltrans31.ltrans.o
                0x000000000003d1e0                mNewFolderName
 .bss.mSelectedMacAddrString
                0x000000000003d208        0x8 /tmp/ccCWtBvp.ltrans31.ltrans.o
                0x000000000003d208                mSelectedMacAddrString
 .bss.mMacDeviceList
                0x000000000003d210       0x18 /tmp/ccCWtBvp.ltrans31.ltrans.o
                0x000000000003d210                mMacDeviceList
 .bss.mKeyInput
                0x000000000003d228        0x2 /tmp/ccCWtBvp.ltrans31.ltrans.o
                0x000000000003d228                mKeyInput
 *fill*         0x000000000003d22a        0x2 
 .bss.mBmBootHorizontalResolution
                0x000000000003d22c        0x4 /tmp/ccCWtBvp.ltrans31.ltrans.o
                0x000000000003d22c                mBmBootHorizontalResolution
 .bss.mBmBootVerticalResolution
                0x000000000003d230        0x4 /tmp/ccCWtBvp.ltrans31.ltrans.o
                0x000000000003d230                mBmBootVerticalResolution
 .bss.mBmBootTextModeColumn
                0x000000000003d234        0x4 /tmp/ccCWtBvp.ltrans31.ltrans.o
                0x000000000003d234                mBmBootTextModeColumn
 .bss.mBmBootTextModeRow
                0x000000000003d238        0x4 /tmp/ccCWtBvp.ltrans31.ltrans.o
                0x000000000003d238                mBmBootTextModeRow
 .bss.mBmSetupTextModeColumn
                0x000000000003d23c        0x4 /tmp/ccCWtBvp.ltrans31.ltrans.o
                0x000000000003d23c                mBmSetupTextModeColumn
 .bss.mBmSetupTextModeRow
                0x000000000003d240        0x4 /tmp/ccCWtBvp.ltrans31.ltrans.o
                0x000000000003d240                mBmSetupTextModeRow
 .bss.mBmSetupHorizontalResolution
                0x000000000003d244        0x4 /tmp/ccCWtBvp.ltrans31.ltrans.o
                0x000000000003d244                mBmSetupHorizontalResolution
 .bss.mBmSetupVerticalResolution
                0x000000000003d248        0x4 /tmp/ccCWtBvp.ltrans31.ltrans.o
                0x000000000003d248                mBmSetupVerticalResolution
 .bss.mBmModeInitialized
                0x000000000003d24c        0x1 /tmp/ccCWtBvp.ltrans31.ltrans.o
                0x000000000003d24c                mBmModeInitialized
 *fill*         0x000000000003d24d        0x3 
 .bss.mBmmBootHorizontalResolution
                0x000000000003d250        0x4 /tmp/ccCWtBvp.ltrans31.ltrans.o
                0x000000000003d250                mBmmBootHorizontalResolution
 .bss.mBmmBootVerticalResolution
                0x000000000003d254        0x4 /tmp/ccCWtBvp.ltrans31.ltrans.o
                0x000000000003d254                mBmmBootVerticalResolution
 .bss.mBmmBootTextModeColumn
                0x000000000003d258        0x4 /tmp/ccCWtBvp.ltrans31.ltrans.o
                0x000000000003d258                mBmmBootTextModeColumn
 .bss.mBmmBootTextModeRow
                0x000000000003d25c        0x4 /tmp/ccCWtBvp.ltrans31.ltrans.o
                0x000000000003d25c                mBmmBootTextModeRow
 .bss.mBmmSetupTextModeColumn
                0x000000000003d260        0x4 /tmp/ccCWtBvp.ltrans31.ltrans.o
                0x000000000003d260                mBmmSetupTextModeColumn
 .bss.mBmmSetupTextModeRow
                0x000000000003d264        0x4 /tmp/ccCWtBvp.ltrans31.ltrans.o
                0x000000000003d264                mBmmSetupTextModeRow
 .bss.mBmmSetupHorizontalResolution
                0x000000000003d268        0x4 /tmp/ccCWtBvp.ltrans31.ltrans.o
                0x000000000003d268                mBmmSetupHorizontalResolution
 .bss.mBmmSetupVerticalResolution
                0x000000000003d26c        0x4 /tmp/ccCWtBvp.ltrans31.ltrans.o
                0x000000000003d26c                mBmmSetupVerticalResolution
 .bss.mBmmModeInitialized
                0x000000000003d270        0x1 /tmp/ccCWtBvp.ltrans31.ltrans.o
                0x000000000003d270                mBmmModeInitialized
 .bss.mAllMenuInit
                0x000000000003d271        0x1 /tmp/ccCWtBvp.ltrans31.ltrans.o
                0x000000000003d271                mAllMenuInit
 .bss.mFirstEnterBMMForm
                0x000000000003d272        0x1 /tmp/ccCWtBvp.ltrans31.ltrans.o
                0x000000000003d272                mFirstEnterBMMForm
 *fill*         0x000000000003d273        0x5 
 .bss.mStartOpCodeHandle
                0x000000000003d278        0x8 /tmp/ccCWtBvp.ltrans31.ltrans.o
                0x000000000003d278                mStartOpCodeHandle
 .bss.mEndOpCodeHandle
                0x000000000003d280        0x8 /tmp/ccCWtBvp.ltrans31.ltrans.o
                0x000000000003d280                mEndOpCodeHandle
 .bss.mStartLabel
                0x000000000003d288        0x8 /tmp/ccCWtBvp.ltrans31.ltrans.o
                0x000000000003d288                mStartLabel
 .bss.mEndLabel
                0x000000000003d290        0x8 /tmp/ccCWtBvp.ltrans31.ltrans.o
                0x000000000003d290                mEndLabel
 .bss.gHiiDriverList.lto_priv.0
                0x000000000003d298        0x8 /tmp/ccCWtBvp.ltrans31.ltrans.o
                0x000000000003d298                gHiiDriverList.lto_priv.0

.eh_frame       0x000000000003d2c0        0x0
 *(.eh_frame)
 .eh_frame      0x000000000003d2c0        0x0 FrontPageVfr.obj (symbol from plugin)
 .eh_frame      0x000000000003d2c0        0x0 FrontPageVfr.obj (symbol from plugin)

.dynbss         0x000000000003d2c0        0x0
 .dynbss        0x000000000003d2c0        0x0 FrontPageVfr.obj (symbol from plugin)

.gnu.version_d  0x000000000003d2c0        0x0
 .gnu.version_d
                0x000000000003d2c0        0x0 FrontPageVfr.obj (symbol from plugin)

.gnu.version    0x000000000003d2c0        0x0
 .gnu.version   0x000000000003d2c0        0x0 FrontPageVfr.obj (symbol from plugin)

.gnu.version_r  0x000000000003d2c0        0x0
 .gnu.version_r
                0x000000000003d2c0        0x0 FrontPageVfr.obj (symbol from plugin)

.rela           0x000000000003d2c0      0xa38
 *(.rela .rela.*)
 .rela.plt      0x000000000003d2c0        0x0 FrontPageVfr.obj (symbol from plugin)
 .rela.got      0x000000000003d2c0        0x0 FrontPageVfr.obj (symbol from plugin)
 .rela.bss      0x000000000003d2c0        0x0 FrontPageVfr.obj (symbol from plugin)
 .rela.data.rel.ro
                0x000000000003d2c0        0x0 FrontPageVfr.obj (symbol from plugin)
 .rela.ifunc    0x000000000003d2c0        0x0 FrontPageVfr.obj (symbol from plugin)
 .rela.data.rel.local.gFrontPagePrivate
                0x000000000003d2c0       0x48 FrontPageVfr.obj (symbol from plugin)
 .rela.data.rel.local.gEfiCallerBaseName
                0x000000000003d308       0x18 FrontPageVfr.obj (symbol from plugin)
 .rela.data.rel.ro.local.mUefiDevicePathLibToTextTableGeneric
                0x000000000003d320       0x78 FrontPageVfr.obj (symbol from plugin)
 .rela.data.rel.ro.local.mUefiDevicePathLibToTextTable
                0x000000000003d398      0x498 FrontPageVfr.obj (symbol from plugin)
 .rela.data.rel.local.mConVarName
                0x000000000003d830       0x90 FrontPageVfr.obj (symbol from plugin)
 .rela.data.rel.local.mPlatformBootDescriptionHandlers
                0x000000000003d8c0       0x30 FrontPageVfr.obj (symbol from plugin)
 .rela.data.rel.local.mBmBootDescriptionHandlers
                0x000000000003d8f0       0x90 FrontPageVfr.obj (symbol from plugin)
 .rela.data.rel.local.mBmLoadOptionName
                0x000000000003d980       0x60 FrontPageVfr.obj (symbol from plugin)
 .rela.data.rel.local.mBmLoadOptionOrderName
                0x000000000003d9e0       0x48 FrontPageVfr.obj (symbol from plugin)
 .rela.data.rel.local.mBmHotkeyList
                0x000000000003da28       0x30 FrontPageVfr.obj (symbol from plugin)
 .rela.data.rel.local.mBmHealthStatusText
                0x000000000003da58       0x90 FrontPageVfr.obj (symbol from plugin)
 .rela.data.rel.local.gFileExplorerPrivate
                0x000000000003dae8       0x60 FrontPageVfr.obj (symbol from plugin)
 .rela.data.rel.local.gDeviceManagerPrivate
                0x000000000003db48       0x48 FrontPageVfr.obj (symbol from plugin)
 .rela.data.rel.local.mDeviceTypeStr
                0x000000000003db90       0xc0 FrontPageVfr.obj (symbol from plugin)
 .rela.data.rel.local.gBootManagerPrivate
                0x000000000003dc50       0x48 FrontPageVfr.obj (symbol from plugin)
 .rela.data.rel.local.gBootMaintenancePrivate
                0x000000000003dc98       0x48 FrontPageVfr.obj (symbol from plugin)
 .rela.data.rel.local.mBmmCallbackInfo
                0x000000000003dce0       0x18 FrontPageVfr.obj (symbol from plugin)

.hii
 *(.hii)

.build-id       0x000000000003dcf8       0x24
 *(.note.gnu.build-id)
 .note.gnu.build-id
                0x000000000003dcf8       0x24 FrontPageVfr.obj (symbol from plugin)

/DISCARD/
 *(.note.GNU-stack)
 *(.gnu_debuglink)
 *(.interp)
 *(.dynsym)
 *(.dynstr)
 *(.dynamic)
 *(.hash .gnu.hash)
 *(.comment)
OUTPUT(/home/hcj/UEFIWorkspace/Build/EmulatorX64/DEBUG_GCC5/X64/MdeModulePkg/Application/UiApp/UiApp/DEBUG/UiApp.dll elf64-x86-64)

.debug_info     0x0000000000000000    0x4486b
 .debug_info    0x0000000000000000     0x1e88 /tmp/ccCWtBvp.ltrans0.ltrans.o
 .debug_info    0x0000000000001e88     0x2704 /tmp/ccCWtBvp.ltrans1.ltrans.o
 .debug_info    0x000000000000458c     0x3470 /tmp/ccCWtBvp.ltrans2.ltrans.o
 .debug_info    0x00000000000079fc     0x31f8 /tmp/ccCWtBvp.ltrans3.ltrans.o
 .debug_info    0x000000000000abf4     0x2cf6 /tmp/ccCWtBvp.ltrans4.ltrans.o
 .debug_info    0x000000000000d8ea     0x1c1d /tmp/ccCWtBvp.ltrans5.ltrans.o
 .debug_info    0x000000000000f507     0x3209 /tmp/ccCWtBvp.ltrans6.ltrans.o
 .debug_info    0x0000000000012710     0x2f56 /tmp/ccCWtBvp.ltrans7.ltrans.o
 .debug_info    0x0000000000015666     0x2fa6 /tmp/ccCWtBvp.ltrans8.ltrans.o
 .debug_info    0x000000000001860c     0x2e2e /tmp/ccCWtBvp.ltrans9.ltrans.o
 .debug_info    0x000000000001b43a     0x1bbb /tmp/ccCWtBvp.ltrans10.ltrans.o
 .debug_info    0x000000000001cff5     0x1f1d /tmp/ccCWtBvp.ltrans11.ltrans.o
 .debug_info    0x000000000001ef12     0x17f1 /tmp/ccCWtBvp.ltrans12.ltrans.o
 .debug_info    0x0000000000020703     0x4196 /tmp/ccCWtBvp.ltrans13.ltrans.o
 .debug_info    0x0000000000024899     0x2c7f /tmp/ccCWtBvp.ltrans14.ltrans.o
 .debug_info    0x0000000000027518      0x932 /tmp/ccCWtBvp.ltrans15.ltrans.o
 .debug_info    0x0000000000027e4a     0x3984 /tmp/ccCWtBvp.ltrans17.ltrans.o
 .debug_info    0x000000000002b7ce     0x280b /tmp/ccCWtBvp.ltrans19.ltrans.o
 .debug_info    0x000000000002dfd9     0x1c50 /tmp/ccCWtBvp.ltrans20.ltrans.o
 .debug_info    0x000000000002fc29     0x1e3a /tmp/ccCWtBvp.ltrans21.ltrans.o
 .debug_info    0x0000000000031a63      0x7d9 /tmp/ccCWtBvp.ltrans22.ltrans.o
 .debug_info    0x000000000003223c      0x8ca /tmp/ccCWtBvp.ltrans23.ltrans.o
 .debug_info    0x0000000000032b06      0xa13 /tmp/ccCWtBvp.ltrans24.ltrans.o
 .debug_info    0x0000000000033519     0x1668 /tmp/ccCWtBvp.ltrans25.ltrans.o
 .debug_info    0x0000000000034b81     0x17c8 /tmp/ccCWtBvp.ltrans26.ltrans.o
 .debug_info    0x0000000000036349      0xdfb /tmp/ccCWtBvp.ltrans27.ltrans.o
 .debug_info    0x0000000000037144      0xc15 /tmp/ccCWtBvp.ltrans28.ltrans.o
 .debug_info    0x0000000000037d59     0x30b5 /tmp/ccCWtBvp.ltrans29.ltrans.o
 .debug_info    0x000000000003ae0e     0x2357 /tmp/ccCWtBvp.ltrans30.ltrans.o
 .debug_info    0x000000000003d165     0x7706 /tmp/ccCWtBvp.ltrans31.ltrans.o

.debug_abbrev   0x0000000000000000     0x4958
 .debug_abbrev  0x0000000000000000      0x28b /tmp/ccCWtBvp.ltrans0.ltrans.o
 .debug_abbrev  0x000000000000028b      0x316 /tmp/ccCWtBvp.ltrans1.ltrans.o
 .debug_abbrev  0x00000000000005a1      0x309 /tmp/ccCWtBvp.ltrans2.ltrans.o
 .debug_abbrev  0x00000000000008aa      0x266 /tmp/ccCWtBvp.ltrans3.ltrans.o
 .debug_abbrev  0x0000000000000b10      0x2d5 /tmp/ccCWtBvp.ltrans4.ltrans.o
 .debug_abbrev  0x0000000000000de5      0x28c /tmp/ccCWtBvp.ltrans5.ltrans.o
 .debug_abbrev  0x0000000000001071      0x32b /tmp/ccCWtBvp.ltrans6.ltrans.o
 .debug_abbrev  0x000000000000139c      0x2f5 /tmp/ccCWtBvp.ltrans7.ltrans.o
 .debug_abbrev  0x0000000000001691      0x2a4 /tmp/ccCWtBvp.ltrans8.ltrans.o
 .debug_abbrev  0x0000000000001935      0x274 /tmp/ccCWtBvp.ltrans9.ltrans.o
 .debug_abbrev  0x0000000000001ba9      0x296 /tmp/ccCWtBvp.ltrans10.ltrans.o
 .debug_abbrev  0x0000000000001e3f      0x1b0 /tmp/ccCWtBvp.ltrans11.ltrans.o
 .debug_abbrev  0x0000000000001fef      0x275 /tmp/ccCWtBvp.ltrans12.ltrans.o
 .debug_abbrev  0x0000000000002264      0x2c8 /tmp/ccCWtBvp.ltrans13.ltrans.o
 .debug_abbrev  0x000000000000252c      0x29e /tmp/ccCWtBvp.ltrans14.ltrans.o
 .debug_abbrev  0x00000000000027ca      0x14e /tmp/ccCWtBvp.ltrans15.ltrans.o
 .debug_abbrev  0x0000000000002918      0x2a8 /tmp/ccCWtBvp.ltrans17.ltrans.o
 .debug_abbrev  0x0000000000002bc0      0x226 /tmp/ccCWtBvp.ltrans19.ltrans.o
 .debug_abbrev  0x0000000000002de6      0x32c /tmp/ccCWtBvp.ltrans20.ltrans.o
 .debug_abbrev  0x0000000000003112      0x275 /tmp/ccCWtBvp.ltrans21.ltrans.o
 .debug_abbrev  0x0000000000003387      0x121 /tmp/ccCWtBvp.ltrans22.ltrans.o
 .debug_abbrev  0x00000000000034a8      0x105 /tmp/ccCWtBvp.ltrans23.ltrans.o
 .debug_abbrev  0x00000000000035ad      0x192 /tmp/ccCWtBvp.ltrans24.ltrans.o
 .debug_abbrev  0x000000000000373f      0x21b /tmp/ccCWtBvp.ltrans25.ltrans.o
 .debug_abbrev  0x000000000000395a      0x255 /tmp/ccCWtBvp.ltrans26.ltrans.o
 .debug_abbrev  0x0000000000003baf      0x265 /tmp/ccCWtBvp.ltrans27.ltrans.o
 .debug_abbrev  0x0000000000003e14      0x1d6 /tmp/ccCWtBvp.ltrans28.ltrans.o
 .debug_abbrev  0x0000000000003fea      0x31a /tmp/ccCWtBvp.ltrans29.ltrans.o
 .debug_abbrev  0x0000000000004304      0x2f6 /tmp/ccCWtBvp.ltrans30.ltrans.o
 .debug_abbrev  0x00000000000045fa      0x35e /tmp/ccCWtBvp.ltrans31.ltrans.o

.debug_aranges  0x0000000000000000     0x43b0
 .debug_aranges
                0x0000000000000000      0x1e0 /tmp/ccCWtBvp.ltrans0.ltrans.o
 .debug_aranges
                0x00000000000001e0      0x270 /tmp/ccCWtBvp.ltrans1.ltrans.o
 .debug_aranges
                0x0000000000000450      0x180 /tmp/ccCWtBvp.ltrans2.ltrans.o
 .debug_aranges
                0x00000000000005d0      0x100 /tmp/ccCWtBvp.ltrans3.ltrans.o
 .debug_aranges
                0x00000000000006d0      0x1a0 /tmp/ccCWtBvp.ltrans4.ltrans.o
 .debug_aranges
                0x0000000000000870      0x200 /tmp/ccCWtBvp.ltrans5.ltrans.o
 .debug_aranges
                0x0000000000000a70      0x1e0 /tmp/ccCWtBvp.ltrans6.ltrans.o
 .debug_aranges
                0x0000000000000c50      0x1a0 /tmp/ccCWtBvp.ltrans7.ltrans.o
 .debug_aranges
                0x0000000000000df0      0x110 /tmp/ccCWtBvp.ltrans8.ltrans.o
 .debug_aranges
                0x0000000000000f00      0x190 /tmp/ccCWtBvp.ltrans9.ltrans.o
 .debug_aranges
                0x0000000000001090      0x1b0 /tmp/ccCWtBvp.ltrans10.ltrans.o
 .debug_aranges
                0x0000000000001240      0x250 /tmp/ccCWtBvp.ltrans11.ltrans.o
 .debug_aranges
                0x0000000000001490      0x180 /tmp/ccCWtBvp.ltrans12.ltrans.o
 .debug_aranges
                0x0000000000001610      0x2f0 /tmp/ccCWtBvp.ltrans13.ltrans.o
 .debug_aranges
                0x0000000000001900      0x210 /tmp/ccCWtBvp.ltrans14.ltrans.o
 .debug_aranges
                0x0000000000001b10       0x60 /tmp/ccCWtBvp.ltrans15.ltrans.o
 .debug_aranges
                0x0000000000001b70      0x3b0 /tmp/ccCWtBvp.ltrans17.ltrans.o
 .debug_aranges
                0x0000000000001f20      0x3c0 /tmp/ccCWtBvp.ltrans19.ltrans.o
 .debug_aranges
                0x00000000000022e0      0x6c0 /tmp/ccCWtBvp.ltrans20.ltrans.o
 .debug_aranges
                0x00000000000029a0      0x560 /tmp/ccCWtBvp.ltrans21.ltrans.o
 .debug_aranges
                0x0000000000002f00       0xd0 /tmp/ccCWtBvp.ltrans22.ltrans.o
 .debug_aranges
                0x0000000000002fd0       0xf0 /tmp/ccCWtBvp.ltrans23.ltrans.o
 .debug_aranges
                0x00000000000030c0      0x1e0 /tmp/ccCWtBvp.ltrans24.ltrans.o
 .debug_aranges
                0x00000000000032a0      0x430 /tmp/ccCWtBvp.ltrans25.ltrans.o
 .debug_aranges
                0x00000000000036d0      0x3f0 /tmp/ccCWtBvp.ltrans26.ltrans.o
 .debug_aranges
                0x0000000000003ac0      0x210 /tmp/ccCWtBvp.ltrans27.ltrans.o
 .debug_aranges
                0x0000000000003cd0      0x130 /tmp/ccCWtBvp.ltrans28.ltrans.o
 .debug_aranges
                0x0000000000003e00      0x370 /tmp/ccCWtBvp.ltrans29.ltrans.o
 .debug_aranges
                0x0000000000004170      0x160 /tmp/ccCWtBvp.ltrans30.ltrans.o
 .debug_aranges
                0x00000000000042d0       0xe0 /tmp/ccCWtBvp.ltrans31.ltrans.o

.debug_ranges   0x0000000000000000     0x41d0
 .debug_ranges  0x0000000000000000      0x1d0 /tmp/ccCWtBvp.ltrans0.ltrans.o
 .debug_ranges  0x00000000000001d0      0x260 /tmp/ccCWtBvp.ltrans1.ltrans.o
 .debug_ranges  0x0000000000000430      0x170 /tmp/ccCWtBvp.ltrans2.ltrans.o
 .debug_ranges  0x00000000000005a0       0xf0 /tmp/ccCWtBvp.ltrans3.ltrans.o
 .debug_ranges  0x0000000000000690      0x190 /tmp/ccCWtBvp.ltrans4.ltrans.o
 .debug_ranges  0x0000000000000820      0x1f0 /tmp/ccCWtBvp.ltrans5.ltrans.o
 .debug_ranges  0x0000000000000a10      0x1d0 /tmp/ccCWtBvp.ltrans6.ltrans.o
 .debug_ranges  0x0000000000000be0      0x190 /tmp/ccCWtBvp.ltrans7.ltrans.o
 .debug_ranges  0x0000000000000d70      0x100 /tmp/ccCWtBvp.ltrans8.ltrans.o
 .debug_ranges  0x0000000000000e70      0x180 /tmp/ccCWtBvp.ltrans9.ltrans.o
 .debug_ranges  0x0000000000000ff0      0x1a0 /tmp/ccCWtBvp.ltrans10.ltrans.o
 .debug_ranges  0x0000000000001190      0x240 /tmp/ccCWtBvp.ltrans11.ltrans.o
 .debug_ranges  0x00000000000013d0      0x170 /tmp/ccCWtBvp.ltrans12.ltrans.o
 .debug_ranges  0x0000000000001540      0x2e0 /tmp/ccCWtBvp.ltrans13.ltrans.o
 .debug_ranges  0x0000000000001820      0x200 /tmp/ccCWtBvp.ltrans14.ltrans.o
 .debug_ranges  0x0000000000001a20       0x50 /tmp/ccCWtBvp.ltrans15.ltrans.o
 .debug_ranges  0x0000000000001a70      0x3a0 /tmp/ccCWtBvp.ltrans17.ltrans.o
 .debug_ranges  0x0000000000001e10      0x3b0 /tmp/ccCWtBvp.ltrans19.ltrans.o
 .debug_ranges  0x00000000000021c0      0x6b0 /tmp/ccCWtBvp.ltrans20.ltrans.o
 .debug_ranges  0x0000000000002870      0x550 /tmp/ccCWtBvp.ltrans21.ltrans.o
 .debug_ranges  0x0000000000002dc0       0xc0 /tmp/ccCWtBvp.ltrans22.ltrans.o
 .debug_ranges  0x0000000000002e80       0xe0 /tmp/ccCWtBvp.ltrans23.ltrans.o
 .debug_ranges  0x0000000000002f60      0x1d0 /tmp/ccCWtBvp.ltrans24.ltrans.o
 .debug_ranges  0x0000000000003130      0x420 /tmp/ccCWtBvp.ltrans25.ltrans.o
 .debug_ranges  0x0000000000003550      0x3e0 /tmp/ccCWtBvp.ltrans26.ltrans.o
 .debug_ranges  0x0000000000003930      0x200 /tmp/ccCWtBvp.ltrans27.ltrans.o
 .debug_ranges  0x0000000000003b30      0x120 /tmp/ccCWtBvp.ltrans28.ltrans.o
 .debug_ranges  0x0000000000003c50      0x360 /tmp/ccCWtBvp.ltrans29.ltrans.o
 .debug_ranges  0x0000000000003fb0      0x150 /tmp/ccCWtBvp.ltrans30.ltrans.o
 .debug_ranges  0x0000000000004100       0xd0 /tmp/ccCWtBvp.ltrans31.ltrans.o

.debug_line     0x0000000000000000    0x117c2
 .debug_line    0x0000000000000000      0x94d /tmp/ccCWtBvp.ltrans0.ltrans.o
 .debug_line    0x000000000000094d      0xae4 /tmp/ccCWtBvp.ltrans1.ltrans.o
 .debug_line    0x0000000000001431      0x891 /tmp/ccCWtBvp.ltrans2.ltrans.o
 .debug_line    0x0000000000001cc2      0x85e /tmp/ccCWtBvp.ltrans3.ltrans.o
 .debug_line    0x0000000000002520      0xa38 /tmp/ccCWtBvp.ltrans4.ltrans.o
 .debug_line    0x0000000000002f58      0xa0d /tmp/ccCWtBvp.ltrans5.ltrans.o
 .debug_line    0x0000000000003965      0x8fe /tmp/ccCWtBvp.ltrans6.ltrans.o
 .debug_line    0x0000000000004263      0x89c /tmp/ccCWtBvp.ltrans7.ltrans.o
 .debug_line    0x0000000000004aff      0x87d /tmp/ccCWtBvp.ltrans8.ltrans.o
 .debug_line    0x000000000000537c      0x7e8 /tmp/ccCWtBvp.ltrans9.ltrans.o
 .debug_line    0x0000000000005b64      0x9b4 /tmp/ccCWtBvp.ltrans10.ltrans.o
 .debug_line    0x0000000000006518      0x7e2 /tmp/ccCWtBvp.ltrans11.ltrans.o
 .debug_line    0x0000000000006cfa      0x81b /tmp/ccCWtBvp.ltrans12.ltrans.o
 .debug_line    0x0000000000007515      0xd08 /tmp/ccCWtBvp.ltrans13.ltrans.o
 .debug_line    0x000000000000821d      0x8b0 /tmp/ccCWtBvp.ltrans14.ltrans.o
 .debug_line    0x0000000000008acd      0x4d5 /tmp/ccCWtBvp.ltrans15.ltrans.o
 .debug_line    0x0000000000008fa2      0xbe4 /tmp/ccCWtBvp.ltrans17.ltrans.o
 .debug_line    0x0000000000009b86      0xb52 /tmp/ccCWtBvp.ltrans19.ltrans.o
 .debug_line    0x000000000000a6d8      0xf0b /tmp/ccCWtBvp.ltrans20.ltrans.o
 .debug_line    0x000000000000b5e3      0xc32 /tmp/ccCWtBvp.ltrans21.ltrans.o
 .debug_line    0x000000000000c215      0x3db /tmp/ccCWtBvp.ltrans22.ltrans.o
 .debug_line    0x000000000000c5f0      0x400 /tmp/ccCWtBvp.ltrans23.ltrans.o
 .debug_line    0x000000000000c9f0      0x555 /tmp/ccCWtBvp.ltrans24.ltrans.o
 .debug_line    0x000000000000cf45      0xb2c /tmp/ccCWtBvp.ltrans25.ltrans.o
 .debug_line    0x000000000000da71      0xc12 /tmp/ccCWtBvp.ltrans26.ltrans.o
 .debug_line    0x000000000000e683      0x75c /tmp/ccCWtBvp.ltrans27.ltrans.o
 .debug_line    0x000000000000eddf      0x6fc /tmp/ccCWtBvp.ltrans28.ltrans.o
 .debug_line    0x000000000000f4db      0xaa2 /tmp/ccCWtBvp.ltrans29.ltrans.o
 .debug_line    0x000000000000ff7d      0x5f0 /tmp/ccCWtBvp.ltrans30.ltrans.o
 .debug_line    0x000000000001056d     0x1255 /tmp/ccCWtBvp.ltrans31.ltrans.o

.debug_str      0x0000000000000000    0x11078
 .debug_str     0x0000000000000000     0x113e /tmp/ccCWtBvp.ltrans0.ltrans.o
                                       0x14df (size before relaxing)
 .debug_str     0x000000000000113e      0x7f7 /tmp/ccCWtBvp.ltrans1.ltrans.o
                                       0x1974 (size before relaxing)
 .debug_str     0x0000000000001935     0x1552 /tmp/ccCWtBvp.ltrans2.ltrans.o
                                       0x28e0 (size before relaxing)
 .debug_str     0x0000000000002e87      0x386 /tmp/ccCWtBvp.ltrans3.ltrans.o
                                       0x26bb (size before relaxing)
 .debug_str     0x000000000000320d      0x3a7 /tmp/ccCWtBvp.ltrans4.ltrans.o
                                       0x2210 (size before relaxing)
 .debug_str     0x00000000000035b4      0x69c /tmp/ccCWtBvp.ltrans5.ltrans.o
                                       0x1229 (size before relaxing)
 .debug_str     0x0000000000003c50      0xb1e /tmp/ccCWtBvp.ltrans6.ltrans.o
                                       0x2412 (size before relaxing)
 .debug_str     0x000000000000476e     0x1088 /tmp/ccCWtBvp.ltrans7.ltrans.o
                                       0x1b8e (size before relaxing)
 .debug_str     0x00000000000057f6      0xf5d /tmp/ccCWtBvp.ltrans8.ltrans.o
                                       0x2886 (size before relaxing)
 .debug_str     0x0000000000006753      0x493 /tmp/ccCWtBvp.ltrans9.ltrans.o
                                       0x22ab (size before relaxing)
 .debug_str     0x0000000000006be6      0xd48 /tmp/ccCWtBvp.ltrans10.ltrans.o
                                       0x17a9 (size before relaxing)
 .debug_str     0x000000000000792e      0x773 /tmp/ccCWtBvp.ltrans11.ltrans.o
                                        0xf43 (size before relaxing)
 .debug_str     0x00000000000080a1      0x4bc /tmp/ccCWtBvp.ltrans12.ltrans.o
                                        0xde2 (size before relaxing)
 .debug_str     0x000000000000855d      0xd9b /tmp/ccCWtBvp.ltrans13.ltrans.o
                                       0x2b54 (size before relaxing)
 .debug_str     0x00000000000092f8      0x47f /tmp/ccCWtBvp.ltrans14.ltrans.o
                                       0x1eae (size before relaxing)
 .debug_str     0x0000000000009777      0x57d /tmp/ccCWtBvp.ltrans15.ltrans.o
                                        0xa59 (size before relaxing)
 .debug_str     0x0000000000009cf4      0xa0a /tmp/ccCWtBvp.ltrans17.ltrans.o
                                       0x26c0 (size before relaxing)
 .debug_str     0x000000000000a6fe      0x5cc /tmp/ccCWtBvp.ltrans19.ltrans.o
                                       0x1161 (size before relaxing)
 .debug_str     0x000000000000acca      0x70e /tmp/ccCWtBvp.ltrans20.ltrans.o
                                        0xcce (size before relaxing)
 .debug_str     0x000000000000b3d8      0x892 /tmp/ccCWtBvp.ltrans21.ltrans.o
                                        0xcd2 (size before relaxing)
 .debug_str     0x000000000000bc6a      0x277 /tmp/ccCWtBvp.ltrans22.ltrans.o
                                        0x5a4 (size before relaxing)
 .debug_str     0x000000000000bee1      0x1de /tmp/ccCWtBvp.ltrans23.ltrans.o
                                        0x5c4 (size before relaxing)
 .debug_str     0x000000000000c0bf      0x24c /tmp/ccCWtBvp.ltrans24.ltrans.o
                                        0x5ee (size before relaxing)
 .debug_str     0x000000000000c30b      0x364 /tmp/ccCWtBvp.ltrans25.ltrans.o
                                        0x82a (size before relaxing)
 .debug_str     0x000000000000c66f      0x66f /tmp/ccCWtBvp.ltrans26.ltrans.o
                                        0xca9 (size before relaxing)
 .debug_str     0x000000000000ccde      0x27e /tmp/ccCWtBvp.ltrans27.ltrans.o
                                        0x75f (size before relaxing)
 .debug_str     0x000000000000cf5c      0x2fb /tmp/ccCWtBvp.ltrans28.ltrans.o
                                        0x785 (size before relaxing)
 .debug_str     0x000000000000d257      0x98a /tmp/ccCWtBvp.ltrans29.ltrans.o
                                       0x210a (size before relaxing)
 .debug_str     0x000000000000dbe1      0x25e /tmp/ccCWtBvp.ltrans30.ltrans.o
                                       0x1b59 (size before relaxing)
 .debug_str     0x000000000000de3f     0x3239 /tmp/ccCWtBvp.ltrans31.ltrans.o
                                       0x6799 (size before relaxing)

.debug_frame    0x0000000000000000     0xb880
 .debug_frame   0x0000000000000000      0x488 /tmp/ccCWtBvp.ltrans0.ltrans.o
 .debug_frame   0x0000000000000488      0x670 /tmp/ccCWtBvp.ltrans1.ltrans.o
 .debug_frame   0x0000000000000af8      0x3e8 /tmp/ccCWtBvp.ltrans2.ltrans.o
 .debug_frame   0x0000000000000ee0      0x300 /tmp/ccCWtBvp.ltrans3.ltrans.o
 .debug_frame   0x00000000000011e0      0x438 /tmp/ccCWtBvp.ltrans4.ltrans.o
 .debug_frame   0x0000000000001618      0x558 /tmp/ccCWtBvp.ltrans5.ltrans.o
 .debug_frame   0x0000000000001b70      0x5c0 /tmp/ccCWtBvp.ltrans6.ltrans.o
 .debug_frame   0x0000000000002130      0x4b0 /tmp/ccCWtBvp.ltrans7.ltrans.o
 .debug_frame   0x00000000000025e0      0x360 /tmp/ccCWtBvp.ltrans8.ltrans.o
 .debug_frame   0x0000000000002940      0x3f0 /tmp/ccCWtBvp.ltrans9.ltrans.o
 .debug_frame   0x0000000000002d30      0x4c0 /tmp/ccCWtBvp.ltrans10.ltrans.o
 .debug_frame   0x00000000000031f0      0x600 /tmp/ccCWtBvp.ltrans11.ltrans.o
 .debug_frame   0x00000000000037f0      0x390 /tmp/ccCWtBvp.ltrans12.ltrans.o
 .debug_frame   0x0000000000003b80      0x830 /tmp/ccCWtBvp.ltrans13.ltrans.o
 .debug_frame   0x00000000000043b0      0x5e0 /tmp/ccCWtBvp.ltrans14.ltrans.o
 .debug_frame   0x0000000000004990       0xb8 /tmp/ccCWtBvp.ltrans15.ltrans.o
 .debug_frame   0x0000000000004a48      0xa90 /tmp/ccCWtBvp.ltrans17.ltrans.o
 .debug_frame   0x00000000000054d8      0x9c0 /tmp/ccCWtBvp.ltrans19.ltrans.o
 .debug_frame   0x0000000000005e98     0x10b0 /tmp/ccCWtBvp.ltrans20.ltrans.o
 .debug_frame   0x0000000000006f48      0xd40 /tmp/ccCWtBvp.ltrans21.ltrans.o
 .debug_frame   0x0000000000007c88      0x2a8 /tmp/ccCWtBvp.ltrans22.ltrans.o
 .debug_frame   0x0000000000007f30      0x2f8 /tmp/ccCWtBvp.ltrans23.ltrans.o
 .debug_frame   0x0000000000008228      0x548 /tmp/ccCWtBvp.ltrans24.ltrans.o
 .debug_frame   0x0000000000008770      0xa60 /tmp/ccCWtBvp.ltrans25.ltrans.o
 .debug_frame   0x00000000000091d0      0xd60 /tmp/ccCWtBvp.ltrans26.ltrans.o
 .debug_frame   0x0000000000009f30      0x760 /tmp/ccCWtBvp.ltrans27.ltrans.o
 .debug_frame   0x000000000000a690      0x3b8 /tmp/ccCWtBvp.ltrans28.ltrans.o
 .debug_frame   0x000000000000aa48      0x868 /tmp/ccCWtBvp.ltrans29.ltrans.o
 .debug_frame   0x000000000000b2b0      0x3a8 /tmp/ccCWtBvp.ltrans30.ltrans.o
 .debug_frame   0x000000000000b658      0x228 /tmp/ccCWtBvp.ltrans31.ltrans.o
