Archive member included to satisfy reference by file (symbol)

/home/hcj/UEFIWorkspace/Build/NetworkPkg/DEBUG_GCC5/X64/NetworkPkg/Udp4Dxe/Udp4Dxe/OUTPUT/Udp4Dxe.lib(Udp4Main.obj)
                              (--whole-archive)
/home/hcj/UEFIWorkspace/Build/NetworkPkg/DEBUG_GCC5/X64/NetworkPkg/Udp4Dxe/Udp4Dxe/OUTPUT/Udp4Dxe.lib(ComponentName.obj)
                              (--whole-archive)
/home/hcj/UEFIWorkspace/Build/NetworkPkg/DEBUG_GCC5/X64/NetworkPkg/Udp4Dxe/Udp4Dxe/OUTPUT/Udp4Dxe.lib(Udp4Impl.obj)
                              (--whole-archive)
/home/hcj/UEFIWorkspace/Build/NetworkPkg/DEBUG_GCC5/X64/NetworkPkg/Udp4Dxe/Udp4Dxe/OUTPUT/Udp4Dxe.lib(Udp4Driver.obj)
                              (--whole-archive)
/home/hcj/UEFIWorkspace/Build/NetworkPkg/DEBUG_GCC5/X64/NetworkPkg/Udp4Dxe/Udp4Dxe/OUTPUT/Udp4Dxe.lib(AutoGen.obj)
                              (--whole-archive)
/home/hcj/UEFIWorkspace/Build/NetworkPkg/DEBUG_GCC5/X64/MdePkg/Library/RegisterFilterLibNull/RegisterFilterLibNull/OUTPUT/FilterLibNull.lib(RegisterFilterLibNull.obj)
                              (--whole-archive)
/home/hcj/UEFIWorkspace/Build/NetworkPkg/DEBUG_GCC5/X64/MdePkg/Library/BasePcdLibNull/BasePcdLibNull/OUTPUT/BasePcdLibNull.lib(PcdLib.obj)
                              (--whole-archive)
/home/hcj/UEFIWorkspace/Build/NetworkPkg/DEBUG_GCC5/X64/MdePkg/Library/BaseMemoryLib/BaseMemoryLib/OUTPUT/BaseMemoryLib.lib(SetMem.obj)
                              (--whole-archive)
/home/hcj/UEFIWorkspace/Build/NetworkPkg/DEBUG_GCC5/X64/MdePkg/Library/BaseMemoryLib/BaseMemoryLib/OUTPUT/BaseMemoryLib.lib(ScanMem64Wrapper.obj)
                              (--whole-archive)
/home/hcj/UEFIWorkspace/Build/NetworkPkg/DEBUG_GCC5/X64/MdePkg/Library/BaseMemoryLib/BaseMemoryLib/OUTPUT/BaseMemoryLib.lib(ScanMem32Wrapper.obj)
                              (--whole-archive)
/home/hcj/UEFIWorkspace/Build/NetworkPkg/DEBUG_GCC5/X64/MdePkg/Library/BaseMemoryLib/BaseMemoryLib/OUTPUT/BaseMemoryLib.lib(ScanMem16Wrapper.obj)
                              (--whole-archive)
/home/hcj/UEFIWorkspace/Build/NetworkPkg/DEBUG_GCC5/X64/MdePkg/Library/BaseMemoryLib/BaseMemoryLib/OUTPUT/BaseMemoryLib.lib(ScanMem8Wrapper.obj)
                              (--whole-archive)
/home/hcj/UEFIWorkspace/Build/NetworkPkg/DEBUG_GCC5/X64/MdePkg/Library/BaseMemoryLib/BaseMemoryLib/OUTPUT/BaseMemoryLib.lib(ZeroMemWrapper.obj)
                              (--whole-archive)
/home/hcj/UEFIWorkspace/Build/NetworkPkg/DEBUG_GCC5/X64/MdePkg/Library/BaseMemoryLib/BaseMemoryLib/OUTPUT/BaseMemoryLib.lib(CompareMemWrapper.obj)
                              (--whole-archive)
/home/hcj/UEFIWorkspace/Build/NetworkPkg/DEBUG_GCC5/X64/MdePkg/Library/BaseMemoryLib/BaseMemoryLib/OUTPUT/BaseMemoryLib.lib(SetMem64Wrapper.obj)
                              (--whole-archive)
/home/hcj/UEFIWorkspace/Build/NetworkPkg/DEBUG_GCC5/X64/MdePkg/Library/BaseMemoryLib/BaseMemoryLib/OUTPUT/BaseMemoryLib.lib(SetMem32Wrapper.obj)
                              (--whole-archive)
/home/hcj/UEFIWorkspace/Build/NetworkPkg/DEBUG_GCC5/X64/MdePkg/Library/BaseMemoryLib/BaseMemoryLib/OUTPUT/BaseMemoryLib.lib(SetMem16Wrapper.obj)
                              (--whole-archive)
/home/hcj/UEFIWorkspace/Build/NetworkPkg/DEBUG_GCC5/X64/MdePkg/Library/BaseMemoryLib/BaseMemoryLib/OUTPUT/BaseMemoryLib.lib(SetMemWrapper.obj)
                              (--whole-archive)
/home/hcj/UEFIWorkspace/Build/NetworkPkg/DEBUG_GCC5/X64/MdePkg/Library/BaseMemoryLib/BaseMemoryLib/OUTPUT/BaseMemoryLib.lib(CopyMemWrapper.obj)
                              (--whole-archive)
/home/hcj/UEFIWorkspace/Build/NetworkPkg/DEBUG_GCC5/X64/MdePkg/Library/BaseMemoryLib/BaseMemoryLib/OUTPUT/BaseMemoryLib.lib(IsZeroBufferWrapper.obj)
                              (--whole-archive)
/home/hcj/UEFIWorkspace/Build/NetworkPkg/DEBUG_GCC5/X64/MdePkg/Library/BaseMemoryLib/BaseMemoryLib/OUTPUT/BaseMemoryLib.lib(MemLibGeneric.obj)
                              (--whole-archive)
/home/hcj/UEFIWorkspace/Build/NetworkPkg/DEBUG_GCC5/X64/MdePkg/Library/BaseMemoryLib/BaseMemoryLib/OUTPUT/BaseMemoryLib.lib(MemLibGuid.obj)
                              (--whole-archive)
/home/hcj/UEFIWorkspace/Build/NetworkPkg/DEBUG_GCC5/X64/MdePkg/Library/BaseMemoryLib/BaseMemoryLib/OUTPUT/BaseMemoryLib.lib(CopyMem.obj)
                              (--whole-archive)
/home/hcj/UEFIWorkspace/Build/NetworkPkg/DEBUG_GCC5/X64/MdePkg/Library/BaseLib/BaseLib/OUTPUT/BaseLib.lib(CheckSum.obj)
                              (--whole-archive)
/home/hcj/UEFIWorkspace/Build/NetworkPkg/DEBUG_GCC5/X64/MdePkg/Library/BaseLib/BaseLib/OUTPUT/BaseLib.lib(SwitchStack.obj)
                              (--whole-archive)
/home/hcj/UEFIWorkspace/Build/NetworkPkg/DEBUG_GCC5/X64/MdePkg/Library/BaseLib/BaseLib/OUTPUT/BaseLib.lib(SwapBytes64.obj)
                              (--whole-archive)
/home/hcj/UEFIWorkspace/Build/NetworkPkg/DEBUG_GCC5/X64/MdePkg/Library/BaseLib/BaseLib/OUTPUT/BaseLib.lib(SwapBytes32.obj)
                              (--whole-archive)
/home/hcj/UEFIWorkspace/Build/NetworkPkg/DEBUG_GCC5/X64/MdePkg/Library/BaseLib/BaseLib/OUTPUT/BaseLib.lib(SwapBytes16.obj)
                              (--whole-archive)
/home/hcj/UEFIWorkspace/Build/NetworkPkg/DEBUG_GCC5/X64/MdePkg/Library/BaseLib/BaseLib/OUTPUT/BaseLib.lib(LongJump.obj)
                              (--whole-archive)
/home/hcj/UEFIWorkspace/Build/NetworkPkg/DEBUG_GCC5/X64/MdePkg/Library/BaseLib/BaseLib/OUTPUT/BaseLib.lib(SetJump.obj)
                              (--whole-archive)
/home/hcj/UEFIWorkspace/Build/NetworkPkg/DEBUG_GCC5/X64/MdePkg/Library/BaseLib/BaseLib/OUTPUT/BaseLib.lib(QuickSort.obj)
                              (--whole-archive)
/home/hcj/UEFIWorkspace/Build/NetworkPkg/DEBUG_GCC5/X64/MdePkg/Library/BaseLib/BaseLib/OUTPUT/BaseLib.lib(RShiftU64.obj)
                              (--whole-archive)
/home/hcj/UEFIWorkspace/Build/NetworkPkg/DEBUG_GCC5/X64/MdePkg/Library/BaseLib/BaseLib/OUTPUT/BaseLib.lib(RRotU64.obj)
                              (--whole-archive)
/home/hcj/UEFIWorkspace/Build/NetworkPkg/DEBUG_GCC5/X64/MdePkg/Library/BaseLib/BaseLib/OUTPUT/BaseLib.lib(RRotU32.obj)
                              (--whole-archive)
/home/hcj/UEFIWorkspace/Build/NetworkPkg/DEBUG_GCC5/X64/MdePkg/Library/BaseLib/BaseLib/OUTPUT/BaseLib.lib(MultU64x64.obj)
                              (--whole-archive)
/home/hcj/UEFIWorkspace/Build/NetworkPkg/DEBUG_GCC5/X64/MdePkg/Library/BaseLib/BaseLib/OUTPUT/BaseLib.lib(MultU64x32.obj)
                              (--whole-archive)
/home/hcj/UEFIWorkspace/Build/NetworkPkg/DEBUG_GCC5/X64/MdePkg/Library/BaseLib/BaseLib/OUTPUT/BaseLib.lib(MultS64x64.obj)
                              (--whole-archive)
/home/hcj/UEFIWorkspace/Build/NetworkPkg/DEBUG_GCC5/X64/MdePkg/Library/BaseLib/BaseLib/OUTPUT/BaseLib.lib(ModU64x32.obj)
                              (--whole-archive)
/home/hcj/UEFIWorkspace/Build/NetworkPkg/DEBUG_GCC5/X64/MdePkg/Library/BaseLib/BaseLib/OUTPUT/BaseLib.lib(LShiftU64.obj)
                              (--whole-archive)
/home/hcj/UEFIWorkspace/Build/NetworkPkg/DEBUG_GCC5/X64/MdePkg/Library/BaseLib/BaseLib/OUTPUT/BaseLib.lib(LRotU64.obj)
                              (--whole-archive)
/home/hcj/UEFIWorkspace/Build/NetworkPkg/DEBUG_GCC5/X64/MdePkg/Library/BaseLib/BaseLib/OUTPUT/BaseLib.lib(LRotU32.obj)
                              (--whole-archive)
/home/hcj/UEFIWorkspace/Build/NetworkPkg/DEBUG_GCC5/X64/MdePkg/Library/BaseLib/BaseLib/OUTPUT/BaseLib.lib(LowBitSet64.obj)
                              (--whole-archive)
/home/hcj/UEFIWorkspace/Build/NetworkPkg/DEBUG_GCC5/X64/MdePkg/Library/BaseLib/BaseLib/OUTPUT/BaseLib.lib(LowBitSet32.obj)
                              (--whole-archive)
/home/hcj/UEFIWorkspace/Build/NetworkPkg/DEBUG_GCC5/X64/MdePkg/Library/BaseLib/BaseLib/OUTPUT/BaseLib.lib(HighBitSet64.obj)
                              (--whole-archive)
/home/hcj/UEFIWorkspace/Build/NetworkPkg/DEBUG_GCC5/X64/MdePkg/Library/BaseLib/BaseLib/OUTPUT/BaseLib.lib(HighBitSet32.obj)
                              (--whole-archive)
/home/hcj/UEFIWorkspace/Build/NetworkPkg/DEBUG_GCC5/X64/MdePkg/Library/BaseLib/BaseLib/OUTPUT/BaseLib.lib(GetPowerOfTwo64.obj)
                              (--whole-archive)
/home/hcj/UEFIWorkspace/Build/NetworkPkg/DEBUG_GCC5/X64/MdePkg/Library/BaseLib/BaseLib/OUTPUT/BaseLib.lib(GetPowerOfTwo32.obj)
                              (--whole-archive)
/home/hcj/UEFIWorkspace/Build/NetworkPkg/DEBUG_GCC5/X64/MdePkg/Library/BaseLib/BaseLib/OUTPUT/BaseLib.lib(DivU64x64Remainder.obj)
                              (--whole-archive)
/home/hcj/UEFIWorkspace/Build/NetworkPkg/DEBUG_GCC5/X64/MdePkg/Library/BaseLib/BaseLib/OUTPUT/BaseLib.lib(DivU64x32Remainder.obj)
                              (--whole-archive)
/home/hcj/UEFIWorkspace/Build/NetworkPkg/DEBUG_GCC5/X64/MdePkg/Library/BaseLib/BaseLib/OUTPUT/BaseLib.lib(DivU64x32.obj)
                              (--whole-archive)
/home/hcj/UEFIWorkspace/Build/NetworkPkg/DEBUG_GCC5/X64/MdePkg/Library/BaseLib/BaseLib/OUTPUT/BaseLib.lib(DivS64x64Remainder.obj)
                              (--whole-archive)
/home/hcj/UEFIWorkspace/Build/NetworkPkg/DEBUG_GCC5/X64/MdePkg/Library/BaseLib/BaseLib/OUTPUT/BaseLib.lib(ARShiftU64.obj)
                              (--whole-archive)
/home/hcj/UEFIWorkspace/Build/NetworkPkg/DEBUG_GCC5/X64/MdePkg/Library/BaseLib/BaseLib/OUTPUT/BaseLib.lib(BitField.obj)
                              (--whole-archive)
/home/hcj/UEFIWorkspace/Build/NetworkPkg/DEBUG_GCC5/X64/MdePkg/Library/BaseLib/BaseLib/OUTPUT/BaseLib.lib(CpuDeadLoop.obj)
                              (--whole-archive)
/home/hcj/UEFIWorkspace/Build/NetworkPkg/DEBUG_GCC5/X64/MdePkg/Library/BaseLib/BaseLib/OUTPUT/BaseLib.lib(Cpu.obj)
                              (--whole-archive)
/home/hcj/UEFIWorkspace/Build/NetworkPkg/DEBUG_GCC5/X64/MdePkg/Library/BaseLib/BaseLib/OUTPUT/BaseLib.lib(LinkedList.obj)
                              (--whole-archive)
/home/hcj/UEFIWorkspace/Build/NetworkPkg/DEBUG_GCC5/X64/MdePkg/Library/BaseLib/BaseLib/OUTPUT/BaseLib.lib(SafeString.obj)
                              (--whole-archive)
/home/hcj/UEFIWorkspace/Build/NetworkPkg/DEBUG_GCC5/X64/MdePkg/Library/BaseLib/BaseLib/OUTPUT/BaseLib.lib(String.obj)
                              (--whole-archive)
/home/hcj/UEFIWorkspace/Build/NetworkPkg/DEBUG_GCC5/X64/MdePkg/Library/BaseLib/BaseLib/OUTPUT/BaseLib.lib(FilePaths.obj)
                              (--whole-archive)
/home/hcj/UEFIWorkspace/Build/NetworkPkg/DEBUG_GCC5/X64/MdePkg/Library/BaseLib/BaseLib/OUTPUT/BaseLib.lib(Thunk16.obj)
                              (--whole-archive)
/home/hcj/UEFIWorkspace/Build/NetworkPkg/DEBUG_GCC5/X64/MdePkg/Library/BaseLib/BaseLib/OUTPUT/BaseLib.lib(CpuIdEx.obj)
                              (--whole-archive)
/home/hcj/UEFIWorkspace/Build/NetworkPkg/DEBUG_GCC5/X64/MdePkg/Library/BaseLib/BaseLib/OUTPUT/BaseLib.lib(CpuId.obj)
                              (--whole-archive)
/home/hcj/UEFIWorkspace/Build/NetworkPkg/DEBUG_GCC5/X64/MdePkg/Library/BaseLib/BaseLib/OUTPUT/BaseLib.lib(LongJump.obj)
                              (--whole-archive)
/home/hcj/UEFIWorkspace/Build/NetworkPkg/DEBUG_GCC5/X64/MdePkg/Library/BaseLib/BaseLib/OUTPUT/BaseLib.lib(SetJump.obj)
                              (--whole-archive)
/home/hcj/UEFIWorkspace/Build/NetworkPkg/DEBUG_GCC5/X64/MdePkg/Library/BaseLib/BaseLib/OUTPUT/BaseLib.lib(SwitchStack.obj)
                              (--whole-archive)
/home/hcj/UEFIWorkspace/Build/NetworkPkg/DEBUG_GCC5/X64/MdePkg/Library/BaseLib/BaseLib/OUTPUT/BaseLib.lib(EnableCache.obj)
                              (--whole-archive)
/home/hcj/UEFIWorkspace/Build/NetworkPkg/DEBUG_GCC5/X64/MdePkg/Library/BaseLib/BaseLib/OUTPUT/BaseLib.lib(DisableCache.obj)
                              (--whole-archive)
/home/hcj/UEFIWorkspace/Build/NetworkPkg/DEBUG_GCC5/X64/MdePkg/Library/BaseLib/BaseLib/OUTPUT/BaseLib.lib(WriteTr.obj)
                              (--whole-archive)
/home/hcj/UEFIWorkspace/Build/NetworkPkg/DEBUG_GCC5/X64/MdePkg/Library/BaseLib/BaseLib/OUTPUT/BaseLib.lib(Lfence.obj)
                              (--whole-archive)
/home/hcj/UEFIWorkspace/Build/NetworkPkg/DEBUG_GCC5/X64/MdePkg/Library/BaseLib/BaseLib/OUTPUT/BaseLib.lib(Non-existing.obj)
                              (--whole-archive)
/home/hcj/UEFIWorkspace/Build/NetworkPkg/DEBUG_GCC5/X64/MdePkg/Library/BaseLib/BaseLib/OUTPUT/BaseLib.lib(Math64.obj)
                              (--whole-archive)
/home/hcj/UEFIWorkspace/Build/NetworkPkg/DEBUG_GCC5/X64/MdePkg/Library/BaseLib/BaseLib/OUTPUT/BaseLib.lib(Unaligned.obj)
                              (--whole-archive)
/home/hcj/UEFIWorkspace/Build/NetworkPkg/DEBUG_GCC5/X64/MdePkg/Library/BaseLib/BaseLib/OUTPUT/BaseLib.lib(X86WriteIdtr.obj)
                              (--whole-archive)
/home/hcj/UEFIWorkspace/Build/NetworkPkg/DEBUG_GCC5/X64/MdePkg/Library/BaseLib/BaseLib/OUTPUT/BaseLib.lib(X86WriteGdtr.obj)
                              (--whole-archive)
/home/hcj/UEFIWorkspace/Build/NetworkPkg/DEBUG_GCC5/X64/MdePkg/Library/BaseLib/BaseLib/OUTPUT/BaseLib.lib(X86Thunk.obj)
                              (--whole-archive)
/home/hcj/UEFIWorkspace/Build/NetworkPkg/DEBUG_GCC5/X64/MdePkg/Library/BaseLib/BaseLib/OUTPUT/BaseLib.lib(X86ReadIdtr.obj)
                              (--whole-archive)
/home/hcj/UEFIWorkspace/Build/NetworkPkg/DEBUG_GCC5/X64/MdePkg/Library/BaseLib/BaseLib/OUTPUT/BaseLib.lib(X86ReadGdtr.obj)
                              (--whole-archive)
/home/hcj/UEFIWorkspace/Build/NetworkPkg/DEBUG_GCC5/X64/MdePkg/Library/BaseLib/BaseLib/OUTPUT/BaseLib.lib(X86Msr.obj)
                              (--whole-archive)
/home/hcj/UEFIWorkspace/Build/NetworkPkg/DEBUG_GCC5/X64/MdePkg/Library/BaseLib/BaseLib/OUTPUT/BaseLib.lib(X86GetInterruptState.obj)
                              (--whole-archive)
/home/hcj/UEFIWorkspace/Build/NetworkPkg/DEBUG_GCC5/X64/MdePkg/Library/BaseLib/BaseLib/OUTPUT/BaseLib.lib(X86FxSave.obj)
                              (--whole-archive)
/home/hcj/UEFIWorkspace/Build/NetworkPkg/DEBUG_GCC5/X64/MdePkg/Library/BaseLib/BaseLib/OUTPUT/BaseLib.lib(X86FxRestore.obj)
                              (--whole-archive)
/home/hcj/UEFIWorkspace/Build/NetworkPkg/DEBUG_GCC5/X64/MdePkg/Library/BaseLib/BaseLib/OUTPUT/BaseLib.lib(X86EnablePaging64.obj)
                              (--whole-archive)
/home/hcj/UEFIWorkspace/Build/NetworkPkg/DEBUG_GCC5/X64/MdePkg/Library/BaseLib/BaseLib/OUTPUT/BaseLib.lib(X86EnablePaging32.obj)
                              (--whole-archive)
/home/hcj/UEFIWorkspace/Build/NetworkPkg/DEBUG_GCC5/X64/MdePkg/Library/BaseLib/BaseLib/OUTPUT/BaseLib.lib(X86DisablePaging64.obj)
                              (--whole-archive)
/home/hcj/UEFIWorkspace/Build/NetworkPkg/DEBUG_GCC5/X64/MdePkg/Library/BaseLib/BaseLib/OUTPUT/BaseLib.lib(X86DisablePaging32.obj)
                              (--whole-archive)
/home/hcj/UEFIWorkspace/Build/NetworkPkg/DEBUG_GCC5/X64/MdePkg/Library/BaseLib/BaseLib/OUTPUT/BaseLib.lib(X86RdRand.obj)
                              (--whole-archive)
/home/hcj/UEFIWorkspace/Build/NetworkPkg/DEBUG_GCC5/X64/MdePkg/Library/BaseLib/BaseLib/OUTPUT/BaseLib.lib(X86PatchInstruction.obj)
                              (--whole-archive)
/home/hcj/UEFIWorkspace/Build/NetworkPkg/DEBUG_GCC5/X64/MdePkg/Library/BaseLib/BaseLib/OUTPUT/BaseLib.lib(X86SpeculationBarrier.obj)
                              (--whole-archive)
/home/hcj/UEFIWorkspace/Build/NetworkPkg/DEBUG_GCC5/X64/MdePkg/Library/BaseLib/BaseLib/OUTPUT/BaseLib.lib(GccInline.obj)
                              (--whole-archive)
/home/hcj/UEFIWorkspace/Build/NetworkPkg/DEBUG_GCC5/X64/MdePkg/Library/BaseLib/BaseLib/OUTPUT/BaseLib.lib(GccInlinePriv.obj)
                              (--whole-archive)
/home/hcj/UEFIWorkspace/Build/NetworkPkg/DEBUG_GCC5/X64/MdePkg/Library/BaseLib/BaseLib/OUTPUT/BaseLib.lib(EnableDisableInterrupts.obj)
                              (--whole-archive)
/home/hcj/UEFIWorkspace/Build/NetworkPkg/DEBUG_GCC5/X64/MdePkg/Library/BaseLib/BaseLib/OUTPUT/BaseLib.lib(DisablePaging64.obj)
                              (--whole-archive)
/home/hcj/UEFIWorkspace/Build/NetworkPkg/DEBUG_GCC5/X64/MdePkg/Library/BaseLib/BaseLib/OUTPUT/BaseLib.lib(Pvalidate.obj)
                              (--whole-archive)
/home/hcj/UEFIWorkspace/Build/NetworkPkg/DEBUG_GCC5/X64/MdePkg/Library/BaseLib/BaseLib/OUTPUT/BaseLib.lib(RdRand.obj)
                              (--whole-archive)
/home/hcj/UEFIWorkspace/Build/NetworkPkg/DEBUG_GCC5/X64/MdePkg/Library/BaseLib/BaseLib/OUTPUT/BaseLib.lib(RmpAdjust.obj)
                              (--whole-archive)
/home/hcj/UEFIWorkspace/Build/NetworkPkg/DEBUG_GCC5/X64/MdePkg/Library/BaseLib/BaseLib/OUTPUT/BaseLib.lib(XGetBv.obj)
                              (--whole-archive)
/home/hcj/UEFIWorkspace/Build/NetworkPkg/DEBUG_GCC5/X64/MdePkg/Library/BaseLib/BaseLib/OUTPUT/BaseLib.lib(XSetBv.obj)
                              (--whole-archive)
/home/hcj/UEFIWorkspace/Build/NetworkPkg/DEBUG_GCC5/X64/MdePkg/Library/BaseLib/BaseLib/OUTPUT/BaseLib.lib(VmgExit.obj)
                              (--whole-archive)
/home/hcj/UEFIWorkspace/Build/NetworkPkg/DEBUG_GCC5/X64/MdePkg/Library/BaseLib/BaseLib/OUTPUT/BaseLib.lib(ChkStkGcc.obj)
                              (--whole-archive)
/home/hcj/UEFIWorkspace/Build/NetworkPkg/DEBUG_GCC5/X64/MdePkg/Library/BaseDebugPrintErrorLevelLib/BaseDebugPrintErrorLevelLib/OUTPUT/BaseDebugPrintErrorLevelLib.lib(BaseDebugPrintErrorLevelLib.obj)
                              (--whole-archive)
/home/hcj/UEFIWorkspace/Build/NetworkPkg/DEBUG_GCC5/X64/MdePkg/Library/BasePrintLib/BasePrintLib/OUTPUT/BasePrintLib.lib(PrintLibInternal.obj)
                              (--whole-archive)
/home/hcj/UEFIWorkspace/Build/NetworkPkg/DEBUG_GCC5/X64/MdePkg/Library/BasePrintLib/BasePrintLib/OUTPUT/BasePrintLib.lib(PrintLib.obj)
                              (--whole-archive)
/home/hcj/UEFIWorkspace/Build/NetworkPkg/DEBUG_GCC5/X64/MdePkg/Library/UefiDebugLibConOut/UefiDebugLibConOut/OUTPUT/UefiDebugLibConOut.lib(DebugLib.obj)
                              (--whole-archive)
/home/hcj/UEFIWorkspace/Build/NetworkPkg/DEBUG_GCC5/X64/MdePkg/Library/UefiDebugLibConOut/UefiDebugLibConOut/OUTPUT/UefiDebugLibConOut.lib(DebugLibConstructor.obj)
                              (--whole-archive)
/home/hcj/UEFIWorkspace/Build/NetworkPkg/DEBUG_GCC5/X64/MdePkg/Library/UefiBootServicesTableLib/UefiBootServicesTableLib/OUTPUT/UefiBootServicesTableLib.lib(UefiBootServicesTableLib.obj)
                              (--whole-archive)
/home/hcj/UEFIWorkspace/Build/NetworkPkg/DEBUG_GCC5/X64/MdePkg/Library/UefiMemoryAllocationLib/UefiMemoryAllocationLib/OUTPUT/UefiMemoryAllocationLib.lib(MemoryAllocationLib.obj)
                              (--whole-archive)
/home/hcj/UEFIWorkspace/Build/NetworkPkg/DEBUG_GCC5/X64/MdePkg/Library/UefiDevicePathLib/UefiDevicePathLib/OUTPUT/UefiDevicePathLib.lib(DevicePathUtilities.obj)
                              (--whole-archive)
/home/hcj/UEFIWorkspace/Build/NetworkPkg/DEBUG_GCC5/X64/MdePkg/Library/UefiDevicePathLib/UefiDevicePathLib/OUTPUT/UefiDevicePathLib.lib(DevicePathUtilitiesDxeSmm.obj)
                              (--whole-archive)
/home/hcj/UEFIWorkspace/Build/NetworkPkg/DEBUG_GCC5/X64/MdePkg/Library/UefiDevicePathLib/UefiDevicePathLib/OUTPUT/UefiDevicePathLib.lib(DevicePathToText.obj)
                              (--whole-archive)
/home/hcj/UEFIWorkspace/Build/NetworkPkg/DEBUG_GCC5/X64/MdePkg/Library/UefiDevicePathLib/UefiDevicePathLib/OUTPUT/UefiDevicePathLib.lib(DevicePathFromText.obj)
                              (--whole-archive)
/home/hcj/UEFIWorkspace/Build/NetworkPkg/DEBUG_GCC5/X64/MdePkg/Library/UefiDevicePathLib/UefiDevicePathLib/OUTPUT/UefiDevicePathLib.lib(UefiDevicePathLib.obj)
                              (--whole-archive)
/home/hcj/UEFIWorkspace/Build/NetworkPkg/DEBUG_GCC5/X64/MdePkg/Library/UefiRuntimeServicesTableLib/UefiRuntimeServicesTableLib/OUTPUT/UefiRuntimeServicesTableLib.lib(UefiRuntimeServicesTableLib.obj)
                              (--whole-archive)
/home/hcj/UEFIWorkspace/Build/NetworkPkg/DEBUG_GCC5/X64/NetworkPkg/Library/DxeDpcLib/DxeDpcLib/OUTPUT/DxeDpcLib.lib(DpcLib.obj)
                              (--whole-archive)
/home/hcj/UEFIWorkspace/Build/NetworkPkg/DEBUG_GCC5/X64/MdePkg/Library/UefiLib/UefiLib/OUTPUT/UefiLib.lib(UefiLibPrint.obj)
                              (--whole-archive)
/home/hcj/UEFIWorkspace/Build/NetworkPkg/DEBUG_GCC5/X64/MdePkg/Library/UefiLib/UefiLib/OUTPUT/UefiLib.lib(UefiNotTiano.obj)
                              (--whole-archive)
/home/hcj/UEFIWorkspace/Build/NetworkPkg/DEBUG_GCC5/X64/MdePkg/Library/UefiLib/UefiLib/OUTPUT/UefiLib.lib(UefiDriverModel.obj)
                              (--whole-archive)
/home/hcj/UEFIWorkspace/Build/NetworkPkg/DEBUG_GCC5/X64/MdePkg/Library/UefiLib/UefiLib/OUTPUT/UefiLib.lib(Console.obj)
                              (--whole-archive)
/home/hcj/UEFIWorkspace/Build/NetworkPkg/DEBUG_GCC5/X64/MdePkg/Library/UefiLib/UefiLib/OUTPUT/UefiLib.lib(UefiLib.obj)
                              (--whole-archive)
/home/hcj/UEFIWorkspace/Build/NetworkPkg/DEBUG_GCC5/X64/MdePkg/Library/UefiLib/UefiLib/OUTPUT/UefiLib.lib(Acpi.obj)
                              (--whole-archive)
/home/hcj/UEFIWorkspace/Build/NetworkPkg/DEBUG_GCC5/X64/MdePkg/Library/UefiDriverEntryPoint/UefiDriverEntryPoint/OUTPUT/UefiDriverEntryPoint.lib(DriverEntryPoint.obj)
                              (--whole-archive)
/home/hcj/UEFIWorkspace/Build/NetworkPkg/DEBUG_GCC5/X64/NetworkPkg/Library/DxeIpIoLib/DxeIpIoLib/OUTPUT/DxeIpIoLib.lib(DxeIpIoLib.obj)
                              (--whole-archive)
/home/hcj/UEFIWorkspace/Build/NetworkPkg/DEBUG_GCC5/X64/NetworkPkg/Library/DxeNetLib/DxeNetLib/OUTPUT/DxeNetLib.lib(DxeNetLib.obj)
                              (--whole-archive)
/home/hcj/UEFIWorkspace/Build/NetworkPkg/DEBUG_GCC5/X64/NetworkPkg/Library/DxeNetLib/DxeNetLib/OUTPUT/DxeNetLib.lib(NetBuffer.obj)
                              (--whole-archive)

Discarded input sections

 .text          0x0000000000000000        0x0 /tmp/cch3Vd0b.ltrans0.ltrans.o
 .data          0x0000000000000000        0x0 /tmp/cch3Vd0b.ltrans0.ltrans.o
 .bss           0x0000000000000000        0x0 /tmp/cch3Vd0b.ltrans0.ltrans.o
 .text.unlikely.UdpComponentNameGetDriverName
                0x0000000000000000        0x0 /tmp/cch3Vd0b.ltrans0.ltrans.o
 .text.unlikely.UdpComponentNameGetControllerName
                0x0000000000000000        0x0 /tmp/cch3Vd0b.ltrans0.ltrans.o
 .text.unlikely.Udp4Poll
                0x0000000000000000        0x0 /tmp/cch3Vd0b.ltrans0.ltrans.o
 .text.unlikely.Udp4Routes
                0x0000000000000000        0x0 /tmp/cch3Vd0b.ltrans0.ltrans.o
 .text.unlikely.Udp4Cancel
                0x0000000000000000        0x0 /tmp/cch3Vd0b.ltrans0.ltrans.o
 .text.unlikely.Udp4Receive
                0x0000000000000000        0x0 /tmp/cch3Vd0b.ltrans0.ltrans.o
 .text.unlikely.Udp4GetModeData
                0x0000000000000000        0x0 /tmp/cch3Vd0b.ltrans0.ltrans.o
 .text.unlikely.Udp4Groups
                0x0000000000000000        0x0 /tmp/cch3Vd0b.ltrans0.ltrans.o
 .text.unlikely.Udp4Transmit
                0x0000000000000000        0x0 /tmp/cch3Vd0b.ltrans0.ltrans.o
 .text.unlikely.Udp4Configure
                0x0000000000000000        0x0 /tmp/cch3Vd0b.ltrans0.ltrans.o
 .comment       0x0000000000000000       0x2e /tmp/cch3Vd0b.ltrans0.ltrans.o
 .note.GNU-stack
                0x0000000000000000        0x0 /tmp/cch3Vd0b.ltrans0.ltrans.o
 .text          0x0000000000000000        0x0 /tmp/cch3Vd0b.ltrans1.ltrans.o
 .data          0x0000000000000000        0x0 /tmp/cch3Vd0b.ltrans1.ltrans.o
 .bss           0x0000000000000000        0x0 /tmp/cch3Vd0b.ltrans1.ltrans.o
 .text.unlikely.IpIoTransmitHandler
                0x0000000000000000        0x0 /tmp/cch3Vd0b.ltrans1.ltrans.o
 .text.unlikely.IpIoListenHandler
                0x0000000000000000        0x0 /tmp/cch3Vd0b.ltrans1.ltrans.o
 .text.unlikely.IpIoDummyHandler
                0x0000000000000000        0x0 /tmp/cch3Vd0b.ltrans1.ltrans.o
 .text.unlikely.IpIoDummyHandlerDpc
                0x0000000000000000        0x0 /tmp/cch3Vd0b.ltrans1.ltrans.o
 .text.unlikely.IpIoDestroySndEntry
                0x0000000000000000        0x0 /tmp/cch3Vd0b.ltrans1.ltrans.o
 .text.unlikely.IpIoTransmitHandlerDpc
                0x0000000000000000        0x0 /tmp/cch3Vd0b.ltrans1.ltrans.o
 .text.unlikely.IpIoListenHandlerDpc
                0x0000000000000000        0x0 /tmp/cch3Vd0b.ltrans1.ltrans.o
 .text.unlikely.IpIoSend.part.2.lto_priv.40
                0x0000000000000000        0x0 /tmp/cch3Vd0b.ltrans1.ltrans.o
 .text.unlikely.IpIoRemoveIp
                0x0000000000000000        0x0 /tmp/cch3Vd0b.ltrans1.ltrans.o
 .text.unlikely.IpIoConfigIp
                0x0000000000000000        0x0 /tmp/cch3Vd0b.ltrans1.ltrans.o
 .text.unlikely.IpIoDestroy
                0x0000000000000000        0x0 /tmp/cch3Vd0b.ltrans1.ltrans.o
 .comment       0x0000000000000000       0x2e /tmp/cch3Vd0b.ltrans1.ltrans.o
 .note.GNU-stack
                0x0000000000000000        0x0 /tmp/cch3Vd0b.ltrans1.ltrans.o
 .text          0x0000000000000000        0x0 /tmp/cch3Vd0b.ltrans2.ltrans.o
 .data          0x0000000000000000        0x0 /tmp/cch3Vd0b.ltrans2.ltrans.o
 .bss           0x0000000000000000        0x0 /tmp/cch3Vd0b.ltrans2.ltrans.o
 .text.unlikely.Udp4TokenExist
                0x0000000000000000        0x0 /tmp/cch3Vd0b.ltrans2.ltrans.o
 .text.unlikely.Udp4RecycleRxDataWrap
                0x0000000000000000        0x0 /tmp/cch3Vd0b.ltrans2.ltrans.o
 .text.unlikely.Udp4CheckTimeout
                0x0000000000000000        0x0 /tmp/cch3Vd0b.ltrans2.ltrans.o
 .text.unlikely.Udp4MatchDgram
                0x0000000000000000        0x0 /tmp/cch3Vd0b.ltrans2.ltrans.o
 .text.unlikely.Udp4CancelTokens
                0x0000000000000000        0x0 /tmp/cch3Vd0b.ltrans2.ltrans.o
 .text.unlikely.Udp4LeaveGroup
                0x0000000000000000        0x0 /tmp/cch3Vd0b.ltrans2.ltrans.o
 .text.unlikely.Udp4DgramSent
                0x0000000000000000        0x0 /tmp/cch3Vd0b.ltrans2.ltrans.o
 .text.unlikely.Udp4InstanceDeliverDgram
                0x0000000000000000        0x0 /tmp/cch3Vd0b.ltrans2.ltrans.o
 .text.unlikely.Udp4Checksum
                0x0000000000000000        0x0 /tmp/cch3Vd0b.ltrans2.ltrans.o
 .text.unlikely.Udp4DgramRcvd
                0x0000000000000000        0x0 /tmp/cch3Vd0b.ltrans2.ltrans.o
 .text.unlikely.Udp4FindInstanceByPort
                0x0000000000000000        0x0 /tmp/cch3Vd0b.ltrans2.ltrans.o
 .text.unlikely.Udp4CleanService
                0x0000000000000000        0x0 /tmp/cch3Vd0b.ltrans2.ltrans.o
 .comment       0x0000000000000000       0x2e /tmp/cch3Vd0b.ltrans2.ltrans.o
 .note.GNU-stack
                0x0000000000000000        0x0 /tmp/cch3Vd0b.ltrans2.ltrans.o
 .text          0x0000000000000000        0x0 /tmp/cch3Vd0b.ltrans3.ltrans.o
 .data          0x0000000000000000        0x0 /tmp/cch3Vd0b.ltrans3.ltrans.o
 .bss           0x0000000000000000        0x0 /tmp/cch3Vd0b.ltrans3.ltrans.o
 .text.unlikely.NetblockTrim
                0x0000000000000000        0x0 /tmp/cch3Vd0b.ltrans3.ltrans.o
 .text.unlikely.UnicodeSPrint.constprop.13
                0x0000000000000000        0x0 /tmp/cch3Vd0b.ltrans3.ltrans.o
 .text.unlikely.AddUnicodeString2.constprop.11
                0x0000000000000000        0x0 /tmp/cch3Vd0b.ltrans3.ltrans.o
 .text.unlikely.NetbufTrim.constprop.6
                0x0000000000000000        0x0 /tmp/cch3Vd0b.ltrans3.ltrans.o
 .text.unlikely.QueueDpc.constprop.0
                0x0000000000000000        0x0 /tmp/cch3Vd0b.ltrans3.ltrans.o
 .text.unlikely.NetblockChecksum
                0x0000000000000000        0x0 /tmp/cch3Vd0b.ltrans3.ltrans.o
 .text.unlikely.NetbufChecksum
                0x0000000000000000        0x0 /tmp/cch3Vd0b.ltrans3.ltrans.o
 .text.unlikely.NetbufBuildExt
                0x0000000000000000        0x0 /tmp/cch3Vd0b.ltrans3.ltrans.o
 .text.unlikely.NetbufSetBlock
                0x0000000000000000        0x0 /tmp/cch3Vd0b.ltrans3.ltrans.o
 .text.unlikely.NetbufGetByte
                0x0000000000000000        0x0 /tmp/cch3Vd0b.ltrans3.ltrans.o
 .text.unlikely.NetbufAllocSpace
                0x0000000000000000        0x0 /tmp/cch3Vd0b.ltrans3.ltrans.o
 .text.unlikely.NetbufFree
                0x0000000000000000        0x0 /tmp/cch3Vd0b.ltrans3.ltrans.o
 .text.unlikely.NetbufAllocStruct
                0x0000000000000000        0x0 /tmp/cch3Vd0b.ltrans3.ltrans.o
 .text.unlikely.NetbufAlloc
                0x0000000000000000        0x0 /tmp/cch3Vd0b.ltrans3.ltrans.o
 .text.unlikely.NetLibDestroyServiceChild
                0x0000000000000000        0x0 /tmp/cch3Vd0b.ltrans3.ltrans.o
 .text.unlikely.NetMapIterate
                0x0000000000000000        0x0 /tmp/cch3Vd0b.ltrans3.ltrans.o
 .text.unlikely.NetMapFindKey
                0x0000000000000000        0x0 /tmp/cch3Vd0b.ltrans3.ltrans.o
 .text.unlikely.NetMapGetCount
                0x0000000000000000        0x0 /tmp/cch3Vd0b.ltrans3.ltrans.o
 .text.unlikely.NetMapIsEmpty
                0x0000000000000000        0x0 /tmp/cch3Vd0b.ltrans3.ltrans.o
 .text.unlikely.NetMapClean
                0x0000000000000000        0x0 /tmp/cch3Vd0b.ltrans3.ltrans.o
 .text.unlikely.NetMapInit
                0x0000000000000000        0x0 /tmp/cch3Vd0b.ltrans3.ltrans.o
 .text.unlikely.NetListRemoveHead
                0x0000000000000000        0x0 /tmp/cch3Vd0b.ltrans3.ltrans.o
 .text.unlikely.NetMapInsertTail
                0x0000000000000000        0x0 /tmp/cch3Vd0b.ltrans3.ltrans.o
 .text.unlikely.NetIp4IsUnicast
                0x0000000000000000        0x0 /tmp/cch3Vd0b.ltrans3.ltrans.o
 .rodata._gPcd_FixedAtBuild_PcdDebugPropertyMask
                0x0000000000000000        0x1 /tmp/cch3Vd0b.ltrans3.ltrans.o
 .comment       0x0000000000000000       0x2e /tmp/cch3Vd0b.ltrans3.ltrans.o
 .note.GNU-stack
                0x0000000000000000        0x0 /tmp/cch3Vd0b.ltrans3.ltrans.o
 .text          0x0000000000000000        0x0 /tmp/cch3Vd0b.ltrans4.ltrans.o
 .data          0x0000000000000000        0x0 /tmp/cch3Vd0b.ltrans4.ltrans.o
 .bss           0x0000000000000000        0x0 /tmp/cch3Vd0b.ltrans4.ltrans.o
 .text.unlikely.BasePrintLibSPrintMarker.constprop.36
                0x0000000000000000        0x0 /tmp/cch3Vd0b.ltrans4.ltrans.o
 .text.unlikely.UnicodeVSPrintAsciiFormat.constprop.35
                0x0000000000000000        0x0 /tmp/cch3Vd0b.ltrans4.ltrans.o
 .text.unlikely.DebugPrintMarker.constprop.32
                0x0000000000000000        0x0 /tmp/cch3Vd0b.ltrans4.ltrans.o
 .text.unlikely.UnicodeSPrintAsciiFormat.constprop.34
                0x0000000000000000        0x0 /tmp/cch3Vd0b.ltrans4.ltrans.o
 .text.unlikely.DebugPrint.constprop.30
                0x0000000000000000        0x0 /tmp/cch3Vd0b.ltrans4.ltrans.o
 .text.unlikely.NetPseudoHeadChecksum.constprop.25
                0x0000000000000000        0x0 /tmp/cch3Vd0b.ltrans4.ltrans.o
 .text.unlikely.InternalAllocatePool.constprop.24
                0x0000000000000000        0x0 /tmp/cch3Vd0b.ltrans4.ltrans.o
 .text.unlikely.NetbufFromExt.constprop.22
                0x0000000000000000        0x0 /tmp/cch3Vd0b.ltrans4.ltrans.o
 .text.unlikely.NetMapRemoveItem.constprop.20
                0x0000000000000000        0x0 /tmp/cch3Vd0b.ltrans4.ltrans.o
 .text.unlikely.NetMapRemoveHead.constprop.19
                0x0000000000000000        0x0 /tmp/cch3Vd0b.ltrans4.ltrans.o
 .comment       0x0000000000000000       0x2e /tmp/cch3Vd0b.ltrans4.ltrans.o
 .note.GNU-stack
                0x0000000000000000        0x0 /tmp/cch3Vd0b.ltrans4.ltrans.o
 .text          0x0000000000000000        0x0 /tmp/cch3Vd0b.ltrans5.ltrans.o
 .data          0x0000000000000000        0x0 /tmp/cch3Vd0b.ltrans5.ltrans.o
 .bss           0x0000000000000000        0x0 /tmp/cch3Vd0b.ltrans5.ltrans.o
 .text.unlikely.IpIoExtFree
                0x0000000000000000        0x0 /tmp/cch3Vd0b.ltrans5.ltrans.o
 .text.unlikely.ExitBootServicesCallback
                0x0000000000000000        0x0 /tmp/cch3Vd0b.ltrans5.ltrans.o
 .text.unlikely._DriverUnloadHandler
                0x0000000000000000        0x0 /tmp/cch3Vd0b.ltrans5.ltrans.o
 .text.unlikely.DebugAssert.part.0
                0x0000000000000000        0x0 /tmp/cch3Vd0b.ltrans5.ltrans.o
 .text.unlikely.IpIoCloseProtocolDestroyIpChild
                0x0000000000000000        0x0 /tmp/cch3Vd0b.ltrans5.ltrans.o
 .text.unlikely.IsLanguageSupported
                0x0000000000000000        0x0 /tmp/cch3Vd0b.ltrans5.ltrans.o
 .text.unlikely.LookupUnicodeString2
                0x0000000000000000        0x0 /tmp/cch3Vd0b.ltrans5.ltrans.o
 .text.unlikely.DispatchDpc
                0x0000000000000000        0x0 /tmp/cch3Vd0b.ltrans5.ltrans.o
 .text.unlikely.AllocateZeroPool
                0x0000000000000000        0x0 /tmp/cch3Vd0b.ltrans5.ltrans.o
 .text.unlikely.AllocatePool
                0x0000000000000000        0x0 /tmp/cch3Vd0b.ltrans5.ltrans.o
 .text.unlikely.DebugPrintEnabled
                0x0000000000000000        0x0 /tmp/cch3Vd0b.ltrans5.ltrans.o
 .text.unlikely.DebugAssertEnabled
                0x0000000000000000        0x0 /tmp/cch3Vd0b.ltrans5.ltrans.o
 .text.unlikely.DebugAssert
                0x0000000000000000        0x0 /tmp/cch3Vd0b.ltrans5.ltrans.o
 .text.unlikely.IpIoCreateIpChildOpenProtocol
                0x0000000000000000        0x0 /tmp/cch3Vd0b.ltrans5.ltrans.o
 .text.unlikely._ModuleEntryPoint
                0x0000000000000000        0x0 /tmp/cch3Vd0b.ltrans5.ltrans.o
 .text.unlikely.FreePool
                0x0000000000000000        0x0 /tmp/cch3Vd0b.ltrans5.ltrans.o
 .text.unlikely.FreeUnicodeStringTable
                0x0000000000000000        0x0 /tmp/cch3Vd0b.ltrans5.ltrans.o
 .text.unlikely.AllocateCopyPool
                0x0000000000000000        0x0 /tmp/cch3Vd0b.ltrans5.ltrans.o
 .text.unlikely.BasePrintLibFillBuffer
                0x0000000000000000        0x0 /tmp/cch3Vd0b.ltrans5.ltrans.o
 .rodata._gPcd_FixedAtBuild_PcdFixedDebugPrintErrorLevel
                0x0000000000000000        0x4 /tmp/cch3Vd0b.ltrans5.ltrans.o
 .rodata._gUefiDriverRevision
                0x0000000000000000        0x4 /tmp/cch3Vd0b.ltrans5.ltrans.o
 .comment       0x0000000000000000       0x2e /tmp/cch3Vd0b.ltrans5.ltrans.o
 .note.GNU-stack
                0x0000000000000000        0x0 /tmp/cch3Vd0b.ltrans5.ltrans.o
 .text          0x0000000000000000        0x0 /tmp/cch3Vd0b.ltrans6.ltrans.o
 .data          0x0000000000000000        0x0 /tmp/cch3Vd0b.ltrans6.ltrans.o
 .bss           0x0000000000000000        0x0 /tmp/cch3Vd0b.ltrans6.ltrans.o
 .text.unlikely.ReadUnaligned24
                0x0000000000000000        0x0 /tmp/cch3Vd0b.ltrans6.ltrans.o
 .text.unlikely.ReadUnaligned16
                0x0000000000000000        0x0 /tmp/cch3Vd0b.ltrans6.ltrans.o
 .text.unlikely.AsciiStrLen
                0x0000000000000000        0x0 /tmp/cch3Vd0b.ltrans6.ltrans.o
 .text.unlikely.AsciiStrnCmp.part.4.lto_priv.38
                0x0000000000000000        0x0 /tmp/cch3Vd0b.ltrans6.ltrans.o
 .text.unlikely.AsciiStrnLenS
                0x0000000000000000        0x0 /tmp/cch3Vd0b.ltrans6.ltrans.o
 .text.unlikely.StrnLenS
                0x0000000000000000        0x0 /tmp/cch3Vd0b.ltrans6.ltrans.o
 .text.unlikely.InitializeListHead
                0x0000000000000000        0x0 /tmp/cch3Vd0b.ltrans6.ltrans.o
 .text.unlikely.InternalBaseLibIsListValid
                0x0000000000000000        0x0 /tmp/cch3Vd0b.ltrans6.ltrans.o
 .text.unlikely.IsListEmpty
                0x0000000000000000        0x0 /tmp/cch3Vd0b.ltrans6.ltrans.o
 .text.unlikely.RemoveEntryList
                0x0000000000000000        0x0 /tmp/cch3Vd0b.ltrans6.ltrans.o
 .text.unlikely.Udp4ServiceBindingDestroyChild
                0x0000000000000000        0x0 /tmp/cch3Vd0b.ltrans6.ltrans.o
 .text.unlikely.GetFirstNode
                0x0000000000000000        0x0 /tmp/cch3Vd0b.ltrans6.ltrans.o
 .text.unlikely.IsNodeInList
                0x0000000000000000        0x0 /tmp/cch3Vd0b.ltrans6.ltrans.o
 .text.unlikely.InsertTailList
                0x0000000000000000        0x0 /tmp/cch3Vd0b.ltrans6.ltrans.o
 .text.unlikely.InsertHeadList
                0x0000000000000000        0x0 /tmp/cch3Vd0b.ltrans6.ltrans.o
 .text.unlikely.InternalAssertJumpBuffer
                0x0000000000000000        0x0 /tmp/cch3Vd0b.ltrans6.ltrans.o
 .text.InternalAssertJumpBuffer
                0x0000000000000000       0x56 /tmp/cch3Vd0b.ltrans6.ltrans.o
 .text.unlikely.SwapBytes32
                0x0000000000000000        0x0 /tmp/cch3Vd0b.ltrans6.ltrans.o
 .text.unlikely.CopyMem
                0x0000000000000000        0x0 /tmp/cch3Vd0b.ltrans6.ltrans.o
 .text.unlikely.CompareMem
                0x0000000000000000        0x0 /tmp/cch3Vd0b.ltrans6.ltrans.o
 .text.unlikely.ZeroMem
                0x0000000000000000        0x0 /tmp/cch3Vd0b.ltrans6.ltrans.o
 .text.unlikely.ProcessLibraryDestructorList
                0x0000000000000000        0x0 /tmp/cch3Vd0b.ltrans6.ltrans.o
 .comment       0x0000000000000000       0x2e /tmp/cch3Vd0b.ltrans6.ltrans.o
 .note.GNU-stack
                0x0000000000000000        0x0 /tmp/cch3Vd0b.ltrans6.ltrans.o
 .text          0x0000000000000000        0x0 /tmp/cch3Vd0b.ltrans7.ltrans.o
 .data          0x0000000000000000        0x0 /tmp/cch3Vd0b.ltrans7.ltrans.o
 .bss           0x0000000000000000        0x0 /tmp/cch3Vd0b.ltrans7.ltrans.o
 .text.unlikely.Udp4DriverBindingSupported
                0x0000000000000000        0x0 /tmp/cch3Vd0b.ltrans7.ltrans.o
 .text.unlikely.Udp4NetVectorExtFree
                0x0000000000000000        0x0 /tmp/cch3Vd0b.ltrans7.ltrans.o
 .text.unlikely.Udp4DestroyChildEntryInHandleBuffer
                0x0000000000000000        0x0 /tmp/cch3Vd0b.ltrans7.ltrans.o
 .text.unlikely.Udp4ServiceBindingCreateChild
                0x0000000000000000        0x0 /tmp/cch3Vd0b.ltrans7.ltrans.o
 .text.unlikely.Udp4DriverBindingStop
                0x0000000000000000        0x0 /tmp/cch3Vd0b.ltrans7.ltrans.o
 .text.unlikely.Udp4DriverBindingStart
                0x0000000000000000        0x0 /tmp/cch3Vd0b.ltrans7.ltrans.o
 .text.unlikely.Udp4ReportIcmpError
                0x0000000000000000        0x0 /tmp/cch3Vd0b.ltrans7.ltrans.o
 .comment       0x0000000000000000       0x2e /tmp/cch3Vd0b.ltrans7.ltrans.o
 .note.GNU-stack
                0x0000000000000000        0x0 /tmp/cch3Vd0b.ltrans7.ltrans.o
 .text          0x0000000000000000        0x0 /tmp/cch3Vd0b.ltrans8.ltrans.o
 .data          0x0000000000000000        0x0 /tmp/cch3Vd0b.ltrans8.ltrans.o
 .bss           0x0000000000000000        0x0 /tmp/cch3Vd0b.ltrans8.ltrans.o
 .text.unlikely.BasePrintLibSPrint.constprop.37
                0x0000000000000000        0x0 /tmp/cch3Vd0b.ltrans8.ltrans.o
 .comment       0x0000000000000000       0x2e /tmp/cch3Vd0b.ltrans8.ltrans.o
 .note.GNU-stack
                0x0000000000000000        0x0 /tmp/cch3Vd0b.ltrans8.ltrans.o
 .text          0x0000000000000000      0x204 /home/hcj/UEFIWorkspace/Build/NetworkPkg/DEBUG_GCC5/X64/MdePkg/Library/BaseLib/BaseLib/OUTPUT/BaseLib.lib(Thunk16.obj)
 .data          0x0000000000000000        0xa /home/hcj/UEFIWorkspace/Build/NetworkPkg/DEBUG_GCC5/X64/MdePkg/Library/BaseLib/BaseLib/OUTPUT/BaseLib.lib(Thunk16.obj)
 .text          0x0000000000000000       0x2f /home/hcj/UEFIWorkspace/Build/NetworkPkg/DEBUG_GCC5/X64/MdePkg/Library/BaseLib/BaseLib/OUTPUT/BaseLib.lib(CpuIdEx.obj)
 .text          0x0000000000000000       0x27 /home/hcj/UEFIWorkspace/Build/NetworkPkg/DEBUG_GCC5/X64/MdePkg/Library/BaseLib/BaseLib/OUTPUT/BaseLib.lib(CpuId.obj)
 .text          0x0000000000000000       0xac /home/hcj/UEFIWorkspace/Build/NetworkPkg/DEBUG_GCC5/X64/MdePkg/Library/BaseLib/BaseLib/OUTPUT/BaseLib.lib(LongJump.obj)
 .text          0x0000000000000000       0xc2 /home/hcj/UEFIWorkspace/Build/NetworkPkg/DEBUG_GCC5/X64/MdePkg/Library/BaseLib/BaseLib/OUTPUT/BaseLib.lib(SetJump.obj)
 .text          0x0000000000000000        0xf /home/hcj/UEFIWorkspace/Build/NetworkPkg/DEBUG_GCC5/X64/MdePkg/Library/BaseLib/BaseLib/OUTPUT/BaseLib.lib(SwitchStack.obj)
 .text          0x0000000000000000       0x13 /home/hcj/UEFIWorkspace/Build/NetworkPkg/DEBUG_GCC5/X64/MdePkg/Library/BaseLib/BaseLib/OUTPUT/BaseLib.lib(EnableCache.obj)
 .text          0x0000000000000000       0x13 /home/hcj/UEFIWorkspace/Build/NetworkPkg/DEBUG_GCC5/X64/MdePkg/Library/BaseLib/BaseLib/OUTPUT/BaseLib.lib(DisableCache.obj)
 .text          0x0000000000000000        0x6 /home/hcj/UEFIWorkspace/Build/NetworkPkg/DEBUG_GCC5/X64/MdePkg/Library/BaseLib/BaseLib/OUTPUT/BaseLib.lib(WriteTr.obj)
 .text          0x0000000000000000        0x4 /home/hcj/UEFIWorkspace/Build/NetworkPkg/DEBUG_GCC5/X64/MdePkg/Library/BaseLib/BaseLib/OUTPUT/BaseLib.lib(Lfence.obj)
 .text          0x0000000000000000        0x3 /home/hcj/UEFIWorkspace/Build/NetworkPkg/DEBUG_GCC5/X64/MdePkg/Library/BaseLib/BaseLib/OUTPUT/BaseLib.lib(EnableDisableInterrupts.obj)
 .text          0x0000000000000000       0x61 /home/hcj/UEFIWorkspace/Build/NetworkPkg/DEBUG_GCC5/X64/MdePkg/Library/BaseLib/BaseLib/OUTPUT/BaseLib.lib(DisablePaging64.obj)
 .text          0x0000000000000000       0x1b /home/hcj/UEFIWorkspace/Build/NetworkPkg/DEBUG_GCC5/X64/MdePkg/Library/BaseLib/BaseLib/OUTPUT/BaseLib.lib(Pvalidate.obj)
 .text          0x0000000000000000       0x36 /home/hcj/UEFIWorkspace/Build/NetworkPkg/DEBUG_GCC5/X64/MdePkg/Library/BaseLib/BaseLib/OUTPUT/BaseLib.lib(RdRand.obj)
 .text          0x0000000000000000        0xe /home/hcj/UEFIWorkspace/Build/NetworkPkg/DEBUG_GCC5/X64/MdePkg/Library/BaseLib/BaseLib/OUTPUT/BaseLib.lib(RmpAdjust.obj)
 .text          0x0000000000000000        0xb /home/hcj/UEFIWorkspace/Build/NetworkPkg/DEBUG_GCC5/X64/MdePkg/Library/BaseLib/BaseLib/OUTPUT/BaseLib.lib(XGetBv.obj)
 .text          0x0000000000000000        0xb /home/hcj/UEFIWorkspace/Build/NetworkPkg/DEBUG_GCC5/X64/MdePkg/Library/BaseLib/BaseLib/OUTPUT/BaseLib.lib(XSetBv.obj)
 .text          0x0000000000000000        0x5 /home/hcj/UEFIWorkspace/Build/NetworkPkg/DEBUG_GCC5/X64/MdePkg/Library/BaseLib/BaseLib/OUTPUT/BaseLib.lib(VmgExit.obj)

Memory Configuration

Name             Origin             Length             Attributes
*default*        0x0000000000000000 0xffffffffffffffff

Linker script and memory map

LOAD /tmp/cch3Vd0b.ltrans0.ltrans.o
LOAD /tmp/cch3Vd0b.ltrans1.ltrans.o
LOAD /tmp/cch3Vd0b.ltrans2.ltrans.o
LOAD /tmp/cch3Vd0b.ltrans3.ltrans.o
LOAD /tmp/cch3Vd0b.ltrans4.ltrans.o
LOAD /tmp/cch3Vd0b.ltrans5.ltrans.o
LOAD /tmp/cch3Vd0b.ltrans6.ltrans.o
LOAD /tmp/cch3Vd0b.ltrans7.ltrans.o
LOAD /tmp/cch3Vd0b.ltrans8.ltrans.o
START GROUP
LOAD /home/hcj/UEFIWorkspace/Build/NetworkPkg/DEBUG_GCC5/X64/NetworkPkg/Udp4Dxe/Udp4Dxe/OUTPUT/Udp4Dxe.lib
LOAD /home/hcj/UEFIWorkspace/Build/NetworkPkg/DEBUG_GCC5/X64/MdePkg/Library/RegisterFilterLibNull/RegisterFilterLibNull/OUTPUT/FilterLibNull.lib
LOAD /home/hcj/UEFIWorkspace/Build/NetworkPkg/DEBUG_GCC5/X64/MdePkg/Library/BasePcdLibNull/BasePcdLibNull/OUTPUT/BasePcdLibNull.lib
LOAD /home/hcj/UEFIWorkspace/Build/NetworkPkg/DEBUG_GCC5/X64/MdePkg/Library/BaseMemoryLib/BaseMemoryLib/OUTPUT/BaseMemoryLib.lib
LOAD /home/hcj/UEFIWorkspace/Build/NetworkPkg/DEBUG_GCC5/X64/MdePkg/Library/BaseLib/BaseLib/OUTPUT/BaseLib.lib
LOAD /home/hcj/UEFIWorkspace/Build/NetworkPkg/DEBUG_GCC5/X64/MdePkg/Library/BaseDebugPrintErrorLevelLib/BaseDebugPrintErrorLevelLib/OUTPUT/BaseDebugPrintErrorLevelLib.lib
LOAD /home/hcj/UEFIWorkspace/Build/NetworkPkg/DEBUG_GCC5/X64/MdePkg/Library/BasePrintLib/BasePrintLib/OUTPUT/BasePrintLib.lib
LOAD /home/hcj/UEFIWorkspace/Build/NetworkPkg/DEBUG_GCC5/X64/MdePkg/Library/UefiDebugLibConOut/UefiDebugLibConOut/OUTPUT/UefiDebugLibConOut.lib
LOAD /home/hcj/UEFIWorkspace/Build/NetworkPkg/DEBUG_GCC5/X64/MdePkg/Library/UefiBootServicesTableLib/UefiBootServicesTableLib/OUTPUT/UefiBootServicesTableLib.lib
LOAD /home/hcj/UEFIWorkspace/Build/NetworkPkg/DEBUG_GCC5/X64/MdePkg/Library/UefiMemoryAllocationLib/UefiMemoryAllocationLib/OUTPUT/UefiMemoryAllocationLib.lib
LOAD /home/hcj/UEFIWorkspace/Build/NetworkPkg/DEBUG_GCC5/X64/MdePkg/Library/UefiDevicePathLib/UefiDevicePathLib/OUTPUT/UefiDevicePathLib.lib
LOAD /home/hcj/UEFIWorkspace/Build/NetworkPkg/DEBUG_GCC5/X64/MdePkg/Library/UefiRuntimeServicesTableLib/UefiRuntimeServicesTableLib/OUTPUT/UefiRuntimeServicesTableLib.lib
LOAD /home/hcj/UEFIWorkspace/Build/NetworkPkg/DEBUG_GCC5/X64/NetworkPkg/Library/DxeDpcLib/DxeDpcLib/OUTPUT/DxeDpcLib.lib
LOAD /home/hcj/UEFIWorkspace/Build/NetworkPkg/DEBUG_GCC5/X64/MdePkg/Library/UefiLib/UefiLib/OUTPUT/UefiLib.lib
LOAD /home/hcj/UEFIWorkspace/Build/NetworkPkg/DEBUG_GCC5/X64/MdePkg/Library/UefiDriverEntryPoint/UefiDriverEntryPoint/OUTPUT/UefiDriverEntryPoint.lib
LOAD /home/hcj/UEFIWorkspace/Build/NetworkPkg/DEBUG_GCC5/X64/NetworkPkg/Library/DxeIpIoLib/DxeIpIoLib/OUTPUT/DxeIpIoLib.lib
LOAD /home/hcj/UEFIWorkspace/Build/NetworkPkg/DEBUG_GCC5/X64/NetworkPkg/Library/DxeNetLib/DxeNetLib/OUTPUT/DxeNetLib.lib
END GROUP
                0x0000000000000228                PECOFF_HEADER_SIZE = 0x228
                0x0000000000000228                . = PECOFF_HEADER_SIZE

.text           0x0000000000000240     0x9e57
 *(.text .text.* .stub .gnu.linkonce.t.*)
 .text.UdpComponentNameGetDriverName
                0x0000000000000240       0x36 /tmp/cch3Vd0b.ltrans0.ltrans.o
                0x0000000000000240                UdpComponentNameGetDriverName
 .text.UdpComponentNameGetControllerName
                0x0000000000000276      0x21d /tmp/cch3Vd0b.ltrans0.ltrans.o
                0x0000000000000276                UdpComponentNameGetControllerName
 .text.Udp4Poll
                0x0000000000000493       0x5e /tmp/cch3Vd0b.ltrans0.ltrans.o
                0x0000000000000493                Udp4Poll
 .text.Udp4Routes
                0x00000000000004f1       0xc1 /tmp/cch3Vd0b.ltrans0.ltrans.o
                0x00000000000004f1                Udp4Routes
 .text.Udp4Cancel
                0x00000000000005b2      0x161 /tmp/cch3Vd0b.ltrans0.ltrans.o
                0x00000000000005b2                Udp4Cancel
 .text.Udp4Receive
                0x0000000000000713      0x1e2 /tmp/cch3Vd0b.ltrans0.ltrans.o
                0x0000000000000713                Udp4Receive
 .text.Udp4GetModeData
                0x00000000000008f5       0xd3 /tmp/cch3Vd0b.ltrans0.ltrans.o
                0x00000000000008f5                Udp4GetModeData
 .text.Udp4Groups
                0x00000000000009c8      0x148 /tmp/cch3Vd0b.ltrans0.ltrans.o
                0x00000000000009c8                Udp4Groups
 .text.Udp4Transmit
                0x0000000000000b10      0x5b2 /tmp/cch3Vd0b.ltrans0.ltrans.o
                0x0000000000000b10                Udp4Transmit
 .text.Udp4Configure
                0x00000000000010c2      0x594 /tmp/cch3Vd0b.ltrans0.ltrans.o
                0x00000000000010c2                Udp4Configure
 .text.IpIoTransmitHandler
                0x0000000000001656       0x14 /tmp/cch3Vd0b.ltrans1.ltrans.o
 .text.IpIoListenHandler
                0x000000000000166a       0x14 /tmp/cch3Vd0b.ltrans1.ltrans.o
                0x000000000000166a                IpIoListenHandler
 .text.IpIoDummyHandler
                0x000000000000167e       0x14 /tmp/cch3Vd0b.ltrans1.ltrans.o
                0x000000000000167e                IpIoDummyHandler
 .text.IpIoDummyHandlerDpc
                0x0000000000001692       0x9b /tmp/cch3Vd0b.ltrans1.ltrans.o
 .text.IpIoDestroySndEntry
                0x000000000000172d       0x88 /tmp/cch3Vd0b.ltrans1.ltrans.o
 .text.IpIoTransmitHandlerDpc
                0x00000000000017b5       0xde /tmp/cch3Vd0b.ltrans1.ltrans.o
 .text.IpIoListenHandlerDpc
                0x0000000000001893      0x517 /tmp/cch3Vd0b.ltrans1.ltrans.o
 .text.IpIoSend.part.2.lto_priv.40
                0x0000000000001daa      0x2d5 /tmp/cch3Vd0b.ltrans1.ltrans.o
                0x0000000000001daa                IpIoSend.part.2.lto_priv.40
 .text.IpIoRemoveIp
                0x000000000000207f      0x1d7 /tmp/cch3Vd0b.ltrans1.ltrans.o
                0x000000000000207f                IpIoRemoveIp
 .text.IpIoConfigIp
                0x0000000000002256      0x22a /tmp/cch3Vd0b.ltrans1.ltrans.o
                0x0000000000002256                IpIoConfigIp
 .text.IpIoDestroy
                0x0000000000002480      0x1ac /tmp/cch3Vd0b.ltrans1.ltrans.o
                0x0000000000002480                IpIoDestroy
 .text.Udp4TokenExist
                0x000000000000262c       0x23 /tmp/cch3Vd0b.ltrans2.ltrans.o
                0x000000000000262c                Udp4TokenExist
 .text.Udp4RecycleRxDataWrap
                0x000000000000264f       0x34 /tmp/cch3Vd0b.ltrans2.ltrans.o
                0x000000000000264f                Udp4RecycleRxDataWrap
 .text.Udp4CheckTimeout
                0x0000000000002683       0xcf /tmp/cch3Vd0b.ltrans2.ltrans.o
                0x0000000000002683                Udp4CheckTimeout
 .text.Udp4MatchDgram
                0x0000000000002752      0x156 /tmp/cch3Vd0b.ltrans2.ltrans.o
 .text.Udp4CancelTokens
                0x00000000000028a8       0xc4 /tmp/cch3Vd0b.ltrans2.ltrans.o
                0x00000000000028a8                Udp4CancelTokens
 .text.Udp4LeaveGroup
                0x000000000000296c       0x55 /tmp/cch3Vd0b.ltrans2.ltrans.o
                0x000000000000296c                Udp4LeaveGroup
 .text.Udp4DgramSent
                0x00000000000029c1       0x57 /tmp/cch3Vd0b.ltrans2.ltrans.o
                0x00000000000029c1                Udp4DgramSent
 .text.Udp4InstanceDeliverDgram
                0x0000000000002a18      0x41c /tmp/cch3Vd0b.ltrans2.ltrans.o
                0x0000000000002a18                Udp4InstanceDeliverDgram
 .text.Udp4Checksum
                0x0000000000002e34       0x4d /tmp/cch3Vd0b.ltrans2.ltrans.o
                0x0000000000002e34                Udp4Checksum
 .text.Udp4DgramRcvd
                0x0000000000002e81      0x6c6 /tmp/cch3Vd0b.ltrans2.ltrans.o
                0x0000000000002e81                Udp4DgramRcvd
 .text.Udp4FindInstanceByPort
                0x0000000000003547       0x5e /tmp/cch3Vd0b.ltrans2.ltrans.o
                0x0000000000003547                Udp4FindInstanceByPort
 .text.Udp4CleanService
                0x00000000000035a5       0x38 /tmp/cch3Vd0b.ltrans2.ltrans.o
                0x00000000000035a5                Udp4CleanService
 .text.NetblockTrim
                0x00000000000035dd       0x5e /tmp/cch3Vd0b.ltrans3.ltrans.o
 .text.UnicodeSPrint.constprop.13
                0x000000000000363b       0xc3 /tmp/cch3Vd0b.ltrans3.ltrans.o
                0x000000000000363b                UnicodeSPrint.constprop.13
 .text.AddUnicodeString2.constprop.11
                0x00000000000036fe      0x21a /tmp/cch3Vd0b.ltrans3.ltrans.o
                0x00000000000036fe                AddUnicodeString2.constprop.11
 .text.NetbufTrim.constprop.6
                0x0000000000003918      0x148 /tmp/cch3Vd0b.ltrans3.ltrans.o
                0x0000000000003918                NetbufTrim.constprop.6
 .text.QueueDpc.constprop.0
                0x0000000000003a60       0x17 /tmp/cch3Vd0b.ltrans3.ltrans.o
                0x0000000000003a60                QueueDpc.constprop.0
 .text.NetblockChecksum
                0x0000000000003a77       0x32 /tmp/cch3Vd0b.ltrans3.ltrans.o
                0x0000000000003a77                NetblockChecksum
 .text.NetbufChecksum
                0x0000000000003aa9       0x9d /tmp/cch3Vd0b.ltrans3.ltrans.o
                0x0000000000003aa9                NetbufChecksum
 .text.NetbufBuildExt
                0x0000000000003b46       0x61 /tmp/cch3Vd0b.ltrans3.ltrans.o
                0x0000000000003b46                NetbufBuildExt
 .text.NetbufSetBlock
                0x0000000000003ba7       0xfd /tmp/cch3Vd0b.ltrans3.ltrans.o
                0x0000000000003ba7                NetbufSetBlock
 .text.NetbufGetByte
                0x0000000000003ca4       0x8d /tmp/cch3Vd0b.ltrans3.ltrans.o
                0x0000000000003ca4                NetbufGetByte
 .text.NetbufAllocSpace
                0x0000000000003d31      0x1d2 /tmp/cch3Vd0b.ltrans3.ltrans.o
                0x0000000000003d31                NetbufAllocSpace
 .text.NetbufFree
                0x0000000000003f03      0x15c /tmp/cch3Vd0b.ltrans3.ltrans.o
                0x0000000000003f03                NetbufFree
 .text.NetbufAllocStruct
                0x000000000000405f       0xea /tmp/cch3Vd0b.ltrans3.ltrans.o
                0x000000000000405f                NetbufAllocStruct
 .text.NetbufAlloc
                0x0000000000004149      0x138 /tmp/cch3Vd0b.ltrans3.ltrans.o
                0x0000000000004149                NetbufAlloc
 .text.NetLibDestroyServiceChild
                0x0000000000004281       0x7e /tmp/cch3Vd0b.ltrans3.ltrans.o
                0x0000000000004281                NetLibDestroyServiceChild
 .text.NetMapIterate
                0x00000000000042ff       0x75 /tmp/cch3Vd0b.ltrans3.ltrans.o
                0x00000000000042ff                NetMapIterate
 .text.NetMapFindKey
                0x0000000000004374       0x53 /tmp/cch3Vd0b.ltrans3.ltrans.o
                0x0000000000004374                NetMapFindKey
 .text.NetMapGetCount
                0x00000000000043c7       0x38 /tmp/cch3Vd0b.ltrans3.ltrans.o
                0x00000000000043c7                NetMapGetCount
 .text.NetMapIsEmpty
                0x00000000000043ff       0x3c /tmp/cch3Vd0b.ltrans3.ltrans.o
                0x00000000000043ff                NetMapIsEmpty
 .text.NetMapClean
                0x000000000000443b       0xfb /tmp/cch3Vd0b.ltrans3.ltrans.o
                0x000000000000443b                NetMapClean
 .text.NetMapInit
                0x0000000000004536       0x4d /tmp/cch3Vd0b.ltrans3.ltrans.o
                0x0000000000004536                NetMapInit
 .text.NetListRemoveHead
                0x0000000000004583       0x63 /tmp/cch3Vd0b.ltrans3.ltrans.o
                0x0000000000004583                NetListRemoveHead
 .text.NetMapInsertTail
                0x00000000000045e6       0xd8 /tmp/cch3Vd0b.ltrans3.ltrans.o
                0x00000000000045e6                NetMapInsertTail
 .text.NetIp4IsUnicast
                0x00000000000046be       0x76 /tmp/cch3Vd0b.ltrans3.ltrans.o
                0x00000000000046be                NetIp4IsUnicast
 .text.BasePrintLibSPrintMarker.constprop.36
                0x0000000000004734     0x10bd /tmp/cch3Vd0b.ltrans4.ltrans.o
                0x0000000000004734                BasePrintLibSPrintMarker.constprop.36
 .text.UnicodeVSPrintAsciiFormat.constprop.35
                0x00000000000057f1       0xe6 /tmp/cch3Vd0b.ltrans4.ltrans.o
 .text.DebugPrintMarker.constprop.32
                0x00000000000058d7       0x62 /tmp/cch3Vd0b.ltrans4.ltrans.o
 .text.UnicodeSPrintAsciiFormat.constprop.34
                0x0000000000005939       0x29 /tmp/cch3Vd0b.ltrans4.ltrans.o
                0x0000000000005939                UnicodeSPrintAsciiFormat.constprop.34
 .text.DebugPrint.constprop.30
                0x0000000000005962       0xbb /tmp/cch3Vd0b.ltrans4.ltrans.o
                0x0000000000005962                DebugPrint.constprop.30
 .text.NetPseudoHeadChecksum.constprop.25
                0x0000000000005a1d       0x46 /tmp/cch3Vd0b.ltrans4.ltrans.o
                0x0000000000005a1d                NetPseudoHeadChecksum.constprop.25
 .text.InternalAllocatePool.constprop.24
                0x0000000000005a63       0x37 /tmp/cch3Vd0b.ltrans4.ltrans.o
                0x0000000000005a63                InternalAllocatePool.constprop.24
 .text.NetbufFromExt.constprop.22
                0x0000000000005a9a      0x1f1 /tmp/cch3Vd0b.ltrans4.ltrans.o
                0x0000000000005a9a                NetbufFromExt.constprop.22
 .text.NetMapRemoveItem.constprop.20
                0x0000000000005c8b       0x9c /tmp/cch3Vd0b.ltrans4.ltrans.o
                0x0000000000005c8b                NetMapRemoveItem.constprop.20
 .text.NetMapRemoveHead.constprop.19
                0x0000000000005d27       0x63 /tmp/cch3Vd0b.ltrans4.ltrans.o
                0x0000000000005d27                NetMapRemoveHead.constprop.19
 .text.IpIoExtFree
                0x0000000000005d8a        0xa /tmp/cch3Vd0b.ltrans5.ltrans.o
                0x0000000000005d8a                IpIoExtFree
 .text.ExitBootServicesCallback
                0x0000000000005d94        0x8 /tmp/cch3Vd0b.ltrans5.ltrans.o
 .text._DriverUnloadHandler
                0x0000000000005d9c      0x1a5 /tmp/cch3Vd0b.ltrans5.ltrans.o
 .text.DebugAssert.part.0
                0x0000000000005f41       0x75 /tmp/cch3Vd0b.ltrans5.ltrans.o
 .text.IpIoCloseProtocolDestroyIpChild
                0x0000000000005fb6       0x87 /tmp/cch3Vd0b.ltrans5.ltrans.o
                0x0000000000005fb6                IpIoCloseProtocolDestroyIpChild
 .text.IsLanguageSupported
                0x000000000000603d       0x69 /tmp/cch3Vd0b.ltrans5.ltrans.o
                0x000000000000603d                IsLanguageSupported
 .text.LookupUnicodeString2
                0x00000000000060a6       0xe1 /tmp/cch3Vd0b.ltrans5.ltrans.o
                0x00000000000060a6                LookupUnicodeString2
 .text.DispatchDpc
                0x0000000000006187        0xd /tmp/cch3Vd0b.ltrans5.ltrans.o
                0x0000000000006187                DispatchDpc
 .text.AllocateZeroPool
                0x0000000000006194       0xf9 /tmp/cch3Vd0b.ltrans5.ltrans.o
                0x0000000000006194                AllocateZeroPool
 .text.AllocatePool
                0x000000000000628d       0x99 /tmp/cch3Vd0b.ltrans5.ltrans.o
                0x000000000000628d                AllocatePool
 .text.DebugPrintEnabled
                0x0000000000006326        0x3 /tmp/cch3Vd0b.ltrans5.ltrans.o
                0x0000000000006326                DebugPrintEnabled
 .text.DebugAssertEnabled
                0x0000000000006329        0x3 /tmp/cch3Vd0b.ltrans5.ltrans.o
                0x0000000000006329                DebugAssertEnabled
 .text.DebugAssert
                0x000000000000632c        0xf /tmp/cch3Vd0b.ltrans5.ltrans.o
                0x000000000000632c                DebugAssert
 .text.IpIoCreateIpChildOpenProtocol
                0x000000000000633b      0x12e /tmp/cch3Vd0b.ltrans5.ltrans.o
                0x000000000000633b                IpIoCreateIpChildOpenProtocol
 .text._ModuleEntryPoint
                0x0000000000006469      0x319 /tmp/cch3Vd0b.ltrans5.ltrans.o
                0x0000000000006469                _ModuleEntryPoint
 .text.FreePool
                0x0000000000006782       0x5a /tmp/cch3Vd0b.ltrans5.ltrans.o
                0x0000000000006782                FreePool
 .text.FreeUnicodeStringTable
                0x00000000000067dc       0x46 /tmp/cch3Vd0b.ltrans5.ltrans.o
                0x00000000000067dc                FreeUnicodeStringTable
 .text.AllocateCopyPool
                0x0000000000006822      0x160 /tmp/cch3Vd0b.ltrans5.ltrans.o
                0x0000000000006822                AllocateCopyPool
 .text.BasePrintLibFillBuffer
                0x0000000000006982       0x2e /tmp/cch3Vd0b.ltrans5.ltrans.o
                0x0000000000006982                BasePrintLibFillBuffer
 .text.ReadUnaligned24
                0x00000000000069b0       0x3b /tmp/cch3Vd0b.ltrans6.ltrans.o
                0x00000000000069b0                ReadUnaligned24
 .text.ReadUnaligned16
                0x00000000000069eb       0x37 /tmp/cch3Vd0b.ltrans6.ltrans.o
                0x00000000000069eb                ReadUnaligned16
 .text.AsciiStrLen
                0x0000000000006a22       0x85 /tmp/cch3Vd0b.ltrans6.ltrans.o
                0x0000000000006a22                AsciiStrLen
 .text.AsciiStrnCmp.part.4.lto_priv.38
                0x0000000000006aa7       0xd6 /tmp/cch3Vd0b.ltrans6.ltrans.o
                0x0000000000006aa7                AsciiStrnCmp.part.4.lto_priv.38
 .text.AsciiStrnLenS
                0x0000000000006b7d       0x26 /tmp/cch3Vd0b.ltrans6.ltrans.o
                0x0000000000006b7d                AsciiStrnLenS
 .text.StrnLenS
                0x0000000000006ba3       0x5e /tmp/cch3Vd0b.ltrans6.ltrans.o
                0x0000000000006ba3                StrnLenS
 .text.InitializeListHead
                0x0000000000006c01       0x3e /tmp/cch3Vd0b.ltrans6.ltrans.o
                0x0000000000006c01                InitializeListHead
 .text.InternalBaseLibIsListValid
                0x0000000000006c3f       0x9e /tmp/cch3Vd0b.ltrans6.ltrans.o
                0x0000000000006c3f                InternalBaseLibIsListValid
 .text.IsListEmpty
                0x0000000000006cdd       0x41 /tmp/cch3Vd0b.ltrans6.ltrans.o
                0x0000000000006cdd                IsListEmpty
 .text.RemoveEntryList
                0x0000000000006d1e       0x53 /tmp/cch3Vd0b.ltrans6.ltrans.o
                0x0000000000006d1e                RemoveEntryList
 .text.Udp4ServiceBindingDestroyChild
                0x0000000000006d71      0x1f6 /tmp/cch3Vd0b.ltrans6.ltrans.o
                0x0000000000006d71                Udp4ServiceBindingDestroyChild
 .text.GetFirstNode
                0x0000000000006f67       0x3e /tmp/cch3Vd0b.ltrans6.ltrans.o
                0x0000000000006f67                GetFirstNode
 .text.IsNodeInList
                0x0000000000006fa5       0x93 /tmp/cch3Vd0b.ltrans6.ltrans.o
                0x0000000000006fa5                IsNodeInList
 .text.InsertTailList
                0x0000000000007038       0x7f /tmp/cch3Vd0b.ltrans6.ltrans.o
                0x0000000000007038                InsertTailList
 .text.InsertHeadList
                0x00000000000070b7       0x7e /tmp/cch3Vd0b.ltrans6.ltrans.o
                0x00000000000070b7                InsertHeadList
 .text.SwapBytes32
                0x0000000000007135       0x12 /tmp/cch3Vd0b.ltrans6.ltrans.o
                0x0000000000007135                SwapBytes32
 .text.CopyMem  0x0000000000007147      0x260 /tmp/cch3Vd0b.ltrans6.ltrans.o
                0x0000000000007147                CopyMem
 .text.CompareMem
                0x00000000000073a7       0xec /tmp/cch3Vd0b.ltrans6.ltrans.o
                0x00000000000073a7                CompareMem
 .text.ZeroMem  0x0000000000007493       0xf8 /tmp/cch3Vd0b.ltrans6.ltrans.o
                0x0000000000007493                ZeroMem
 .text.ProcessLibraryDestructorList
                0x000000000000758b       0x14 /tmp/cch3Vd0b.ltrans6.ltrans.o
                0x000000000000758b                ProcessLibraryDestructorList
 .text.Udp4DriverBindingSupported
                0x000000000000759f       0x7b /tmp/cch3Vd0b.ltrans7.ltrans.o
                0x000000000000759f                Udp4DriverBindingSupported
 .text.Udp4NetVectorExtFree
                0x000000000000761a        0x1 /tmp/cch3Vd0b.ltrans7.ltrans.o
                0x000000000000761a                Udp4NetVectorExtFree
 .text.Udp4DestroyChildEntryInHandleBuffer
                0x000000000000761b       0xa2 /tmp/cch3Vd0b.ltrans7.ltrans.o
 .text.Udp4ServiceBindingCreateChild
                0x00000000000076bd      0x49c /tmp/cch3Vd0b.ltrans7.ltrans.o
 .text.Udp4DriverBindingStop
                0x0000000000007b59      0x33b /tmp/cch3Vd0b.ltrans7.ltrans.o
                0x0000000000007b59                Udp4DriverBindingStop
 .text.Udp4DriverBindingStart
                0x0000000000007e94      0x4c4 /tmp/cch3Vd0b.ltrans7.ltrans.o
                0x0000000000007e94                Udp4DriverBindingStart
 .text.Udp4ReportIcmpError
                0x0000000000008358       0x70 /tmp/cch3Vd0b.ltrans7.ltrans.o
                0x0000000000008358                Udp4ReportIcmpError
 .text.BasePrintLibSPrint.constprop.37
                0x00000000000083c8       0xb8 /tmp/cch3Vd0b.ltrans8.ltrans.o
                0x00000000000083c8                BasePrintLibSPrint.constprop.37
 *(.rodata .rodata.* .gnu.linkonce.r.*)
 .rodata.str2.2
                0x0000000000008480       0x9e /tmp/cch3Vd0b.ltrans0.ltrans.o
 .rodata.str1.1
                0x000000000000851e      0x155 /tmp/cch3Vd0b.ltrans0.ltrans.o
                                        0x158 (size before relaxing)
 .rodata.str1.1
                0x0000000000008673      0x1e5 /tmp/cch3Vd0b.ltrans1.ltrans.o
 .rodata.IpIoListenHandlerDpc
                0x0000000000008858       0x34 /tmp/cch3Vd0b.ltrans1.ltrans.o
 .rodata.str1.1
                0x000000000000888c      0x3a4 /tmp/cch3Vd0b.ltrans2.ltrans.o
                                        0x442 (size before relaxing)
 .rodata.Udp4DgramRcvd
                0x0000000000008c30       0x28 /tmp/cch3Vd0b.ltrans2.ltrans.o
 .rodata.str1.1
                0x0000000000008c58      0x289 /tmp/cch3Vd0b.ltrans3.ltrans.o
                                        0x410 (size before relaxing)
 *fill*         0x0000000000008ee1       0x1f 
 .rodata.gIp4AllMasks
                0x0000000000008f00       0x84 /tmp/cch3Vd0b.ltrans3.ltrans.o
                0x0000000000008f00                gIp4AllMasks
 .rodata.str1.1
                0x0000000000008f84      0x412 /tmp/cch3Vd0b.ltrans4.ltrans.o
                                        0x4b5 (size before relaxing)
 *fill*         0x0000000000009396        0xa 
 .rodata.mHexStr
                0x00000000000093a0       0x10 /tmp/cch3Vd0b.ltrans4.ltrans.o
 *fill*         0x00000000000093b0       0x10 
 .rodata.mWarningString
                0x00000000000093c0       0x96 /tmp/cch3Vd0b.ltrans4.ltrans.o
 *fill*         0x0000000000009456        0xa 
 .rodata.mErrorString
                0x0000000000009460      0x2b5 /tmp/cch3Vd0b.ltrans4.ltrans.o
 *fill*         0x0000000000009715        0x3 
 .rodata._gPcd_FixedAtBuild_PcdMaximumUnicodeStringLength
                0x0000000000009718        0x4 /tmp/cch3Vd0b.ltrans4.ltrans.o
                0x0000000000009718                _gPcd_FixedAtBuild_PcdMaximumLinkedListLength
                0x0000000000009718                _gPcd_FixedAtBuild_PcdMaximumAsciiStringLength
                0x0000000000009718                _gPcd_FixedAtBuild_PcdMaximumUnicodeStringLength
 .rodata.str1.1
                0x000000000000971c      0x358 /tmp/cch3Vd0b.ltrans5.ltrans.o
                                        0x3f5 (size before relaxing)
 .rodata._gPcd_FixedAtBuild_PcdComponentNameDisable
                0x0000000000009a74        0x1 /tmp/cch3Vd0b.ltrans5.ltrans.o
                0x0000000000009a74                _gPcd_FixedAtBuild_PcdVerifyNodeInList
                0x0000000000009a74                _gPcd_FixedAtBuild_PcdComponentNameDisable
 .rodata.str1.1
                0x0000000000009a75      0x57e /tmp/cch3Vd0b.ltrans6.ltrans.o
                                        0x5e7 (size before relaxing)
 .rodata.str1.1
                0x0000000000009ff3       0xa4 /tmp/cch3Vd0b.ltrans7.ltrans.o
                                        0x1c6 (size before relaxing)
 *(.got .got.*)
 .got           0x000000000000a097        0x0 Udp4Main.obj (symbol from plugin)
 .got.plt       0x000000000000a097        0x0 Udp4Main.obj (symbol from plugin)
 *:AutoGen.obj(.data.g*Guid)

.plt            0x000000000000a0a0        0x0
 .plt           0x000000000000a0a0        0x0 Udp4Main.obj (symbol from plugin)

.plt.got        0x000000000000a098        0x0
 .plt.got       0x000000000000a098        0x0 Udp4Main.obj (symbol from plugin)

.data           0x000000000000a0c0      0x22c
 *(.data .data.* .gnu.linkonce.d.*)
 .data.rel.local.mUdpDriverNameTable
                0x000000000000a0c0       0x20 /tmp/cch3Vd0b.ltrans0.ltrans.o
 .data.gEfiComponentNameProtocolGuid
                0x000000000000a0e0       0x10 /tmp/cch3Vd0b.ltrans5.ltrans.o
 .data.gEfiComponentName2ProtocolGuid
                0x000000000000a0f0       0x10 /tmp/cch3Vd0b.ltrans5.ltrans.o
 .data.gEfiDriverBindingProtocolGuid
                0x000000000000a100       0x10 /tmp/cch3Vd0b.ltrans5.ltrans.o
 .data.rel.local.gUdp4ComponentName2
                0x000000000000a110       0x18 /tmp/cch3Vd0b.ltrans5.ltrans.o
                0x000000000000a110                gUdp4ComponentName2
 *fill*         0x000000000000a128        0x8 
 .data.rel.local.gUdp4ComponentName
                0x000000000000a130       0x18 /tmp/cch3Vd0b.ltrans5.ltrans.o
                0x000000000000a130                gUdp4ComponentName
 *fill*         0x000000000000a148       0x18 
 .data.rel.local.gUdp4DriverBinding
                0x000000000000a160       0x30 /tmp/cch3Vd0b.ltrans5.ltrans.o
                0x000000000000a160                gUdp4DriverBinding
 .data.gEfiDpcProtocolGuid
                0x000000000000a190       0x10 /tmp/cch3Vd0b.ltrans5.ltrans.o
 .data.gEfiLoadedImageProtocolGuid
                0x000000000000a1a0       0x10 /tmp/cch3Vd0b.ltrans5.ltrans.o
 .data.gEfiIp6ProtocolGuid
                0x000000000000a1b0       0x10 /tmp/cch3Vd0b.ltrans5.ltrans.o
 .data.gEfiIp4ProtocolGuid
                0x000000000000a1c0       0x10 /tmp/cch3Vd0b.ltrans5.ltrans.o
                0x000000000000a1c0                gEfiIp4ProtocolGuid
 .data.gEfiIp6ServiceBindingProtocolGuid
                0x000000000000a1d0       0x10 /tmp/cch3Vd0b.ltrans5.ltrans.o
 .data.gEfiIp4ServiceBindingProtocolGuid
                0x000000000000a1e0       0x10 /tmp/cch3Vd0b.ltrans5.ltrans.o
                0x000000000000a1e0                gEfiIp4ServiceBindingProtocolGuid
 .data.gEfiUdp4ProtocolGuid
                0x000000000000a1f0       0x10 /tmp/cch3Vd0b.ltrans6.ltrans.o
                0x000000000000a1f0                gEfiUdp4ProtocolGuid
 .data.rel.local.mActiveIpIoList
                0x000000000000a200       0x10 /tmp/cch3Vd0b.ltrans7.ltrans.o
                0x000000000000a200                mActiveIpIoList
 .data.mIp4IoDefaultIpConfigData
                0x000000000000a210       0x1c /tmp/cch3Vd0b.ltrans7.ltrans.o
                0x000000000000a210                mIp4IoDefaultIpConfigData
 *fill*         0x000000000000a22c        0x4 
 .data.rel.ro.local.mUdp4ServiceBinding
                0x000000000000a230       0x10 /tmp/cch3Vd0b.ltrans7.ltrans.o
 .data.gEfiUdp4ServiceBindingProtocolGuid
                0x000000000000a240       0x10 /tmp/cch3Vd0b.ltrans7.ltrans.o
 *fill*         0x000000000000a250       0x10 
 .data.rel.local.mUdp4Protocol
                0x000000000000a260       0x40 /tmp/cch3Vd0b.ltrans7.ltrans.o
 .data.rel.ro   0x000000000000a2a0        0x0 Udp4Main.obj (symbol from plugin)
 *(.bss .bss.*)
 .bss.mDpc      0x000000000000a2a0        0x8 /tmp/cch3Vd0b.ltrans3.ltrans.o
                0x000000000000a2a0                mDpc
 .bss.gUdpControllerNameTable
                0x000000000000a2a8        0x8 /tmp/cch3Vd0b.ltrans3.ltrans.o
                0x000000000000a2a8                gUdpControllerNameTable
 .bss.gBS       0x000000000000a2b0        0x8 /tmp/cch3Vd0b.ltrans4.ltrans.o
                0x000000000000a2b0                gBS
 .bss.mDebugST  0x000000000000a2b8        0x8 /tmp/cch3Vd0b.ltrans4.ltrans.o
                0x000000000000a2b8                mDebugST
 .bss.mPostEBS  0x000000000000a2c0        0x1 /tmp/cch3Vd0b.ltrans4.ltrans.o
                0x000000000000a2c0                mPostEBS
 *fill*         0x000000000000a2c1        0x1 
 .bss.mUdp4RandomPort
                0x000000000000a2c2        0x2 /tmp/cch3Vd0b.ltrans5.ltrans.o
                0x000000000000a2c2                mUdp4RandomPort
 *fill*         0x000000000000a2c4        0x4 
 .bss.mExitBootServicesEvent.lto_priv.39
                0x000000000000a2c8        0x8 /tmp/cch3Vd0b.ltrans5.ltrans.o
                0x000000000000a2c8                mExitBootServicesEvent.lto_priv.39
 .bss.gST       0x000000000000a2d0        0x8 /tmp/cch3Vd0b.ltrans5.ltrans.o
 .bss.gImageHandle
                0x000000000000a2d8        0x8 /tmp/cch3Vd0b.ltrans5.ltrans.o
 .bss.gRT       0x000000000000a2e0        0x8 /tmp/cch3Vd0b.ltrans5.ltrans.o
 .bss.mZeroIp4Addr
                0x000000000000a2e8        0x4 /tmp/cch3Vd0b.ltrans7.ltrans.o
                0x000000000000a2e8                mZeroIp4Addr

.eh_frame       0x000000000000a300        0x0
 *(.eh_frame)
 .eh_frame      0x000000000000a300        0x0 Udp4Main.obj (symbol from plugin)
 .eh_frame      0x000000000000a300        0x0 Udp4Main.obj (symbol from plugin)

.dynbss         0x000000000000a300        0x0
 .dynbss        0x000000000000a300        0x0 Udp4Main.obj (symbol from plugin)

.gnu.version_d  0x000000000000a300        0x0
 .gnu.version_d
                0x000000000000a300        0x0 Udp4Main.obj (symbol from plugin)

.gnu.version    0x000000000000a300        0x0
 .gnu.version   0x000000000000a300        0x0 Udp4Main.obj (symbol from plugin)

.gnu.version_r  0x000000000000a300        0x0
 .gnu.version_r
                0x000000000000a300        0x0 Udp4Main.obj (symbol from plugin)

.rela           0x000000000000a300      0x228
 *(.rela .rela.*)
 .rela.plt      0x000000000000a300        0x0 Udp4Main.obj (symbol from plugin)
 .rela.got      0x000000000000a300        0x0 Udp4Main.obj (symbol from plugin)
 .rela.bss      0x000000000000a300        0x0 Udp4Main.obj (symbol from plugin)
 .rela.data.rel.ro
                0x000000000000a300        0x0 Udp4Main.obj (symbol from plugin)
 .rela.ifunc    0x000000000000a300        0x0 Udp4Main.obj (symbol from plugin)
 .rela.data.rel.local.mUdpDriverNameTable
                0x000000000000a300       0x30 Udp4Main.obj (symbol from plugin)
 .rela.data.rel.local.gUdp4ComponentName2
                0x000000000000a330       0x48 Udp4Main.obj (symbol from plugin)
 .rela.data.rel.local.gUdp4ComponentName
                0x000000000000a378       0x48 Udp4Main.obj (symbol from plugin)
 .rela.data.rel.local.gUdp4DriverBinding
                0x000000000000a3c0       0x48 Udp4Main.obj (symbol from plugin)
 .rela.data.rel.local.mActiveIpIoList
                0x000000000000a408       0x30 Udp4Main.obj (symbol from plugin)
 .rela.data.rel.ro.local.mUdp4ServiceBinding
                0x000000000000a438       0x30 Udp4Main.obj (symbol from plugin)
 .rela.data.rel.local.mUdp4Protocol
                0x000000000000a468       0xc0 Udp4Main.obj (symbol from plugin)

.hii
 *(.hii)

.build-id       0x000000000000a528       0x24
 *(.note.gnu.build-id)
 .note.gnu.build-id
                0x000000000000a528       0x24 Udp4Main.obj (symbol from plugin)

/DISCARD/
 *(.note.GNU-stack)
 *(.gnu_debuglink)
 *(.interp)
 *(.dynsym)
 *(.dynstr)
 *(.dynamic)
 *(.hash .gnu.hash)
 *(.comment)
OUTPUT(/home/hcj/UEFIWorkspace/Build/NetworkPkg/DEBUG_GCC5/X64/NetworkPkg/Udp4Dxe/Udp4Dxe/DEBUG/Udp4Dxe.dll elf64-x86-64)

.debug_info     0x0000000000000000    0x1c146
 .debug_info    0x0000000000000000     0x4528 /tmp/cch3Vd0b.ltrans0.ltrans.o
 .debug_info    0x0000000000004528     0x2e93 /tmp/cch3Vd0b.ltrans1.ltrans.o
 .debug_info    0x00000000000073bb     0x3e0c /tmp/cch3Vd0b.ltrans2.ltrans.o
 .debug_info    0x000000000000b1c7     0x246f /tmp/cch3Vd0b.ltrans3.ltrans.o
 .debug_info    0x000000000000d636     0x30a8 /tmp/cch3Vd0b.ltrans4.ltrans.o
 .debug_info    0x00000000000106de     0x3685 /tmp/cch3Vd0b.ltrans5.ltrans.o
 .debug_info    0x0000000000013d63     0x4a9a /tmp/cch3Vd0b.ltrans6.ltrans.o
 .debug_info    0x00000000000187fd     0x37ed /tmp/cch3Vd0b.ltrans7.ltrans.o
 .debug_info    0x000000000001bfea      0x15c /tmp/cch3Vd0b.ltrans8.ltrans.o

.debug_abbrev   0x0000000000000000     0x22c9
 .debug_abbrev  0x0000000000000000      0x3df /tmp/cch3Vd0b.ltrans0.ltrans.o
 .debug_abbrev  0x00000000000003df      0x451 /tmp/cch3Vd0b.ltrans1.ltrans.o
 .debug_abbrev  0x0000000000000830      0x42c /tmp/cch3Vd0b.ltrans2.ltrans.o
 .debug_abbrev  0x0000000000000c5c      0x48e /tmp/cch3Vd0b.ltrans3.ltrans.o
 .debug_abbrev  0x00000000000010ea      0x376 /tmp/cch3Vd0b.ltrans4.ltrans.o
 .debug_abbrev  0x0000000000001460      0x4f5 /tmp/cch3Vd0b.ltrans5.ltrans.o
 .debug_abbrev  0x0000000000001955      0x498 /tmp/cch3Vd0b.ltrans6.ltrans.o
 .debug_abbrev  0x0000000000001ded      0x416 /tmp/cch3Vd0b.ltrans7.ltrans.o
 .debug_abbrev  0x0000000000002203       0xc6 /tmp/cch3Vd0b.ltrans8.ltrans.o

.debug_loc      0x0000000000000000     0xf7d6
 .debug_loc     0x0000000000000000     0x229b /tmp/cch3Vd0b.ltrans0.ltrans.o
 .debug_loc     0x000000000000229b     0x1949 /tmp/cch3Vd0b.ltrans1.ltrans.o
 .debug_loc     0x0000000000003be4     0x23f1 /tmp/cch3Vd0b.ltrans2.ltrans.o
 .debug_loc     0x0000000000005fd5     0x2222 /tmp/cch3Vd0b.ltrans3.ltrans.o
 .debug_loc     0x00000000000081f7     0x22c0 /tmp/cch3Vd0b.ltrans4.ltrans.o
 .debug_loc     0x000000000000a4b7     0x1938 /tmp/cch3Vd0b.ltrans5.ltrans.o
 .debug_loc     0x000000000000bdef     0x247d /tmp/cch3Vd0b.ltrans6.ltrans.o
 .debug_loc     0x000000000000e26c     0x1473 /tmp/cch3Vd0b.ltrans7.ltrans.o
 .debug_loc     0x000000000000f6df       0xf7 /tmp/cch3Vd0b.ltrans8.ltrans.o

.debug_aranges  0x0000000000000000      0x850
 .debug_aranges
                0x0000000000000000       0xc0 /tmp/cch3Vd0b.ltrans0.ltrans.o
 .debug_aranges
                0x00000000000000c0       0xd0 /tmp/cch3Vd0b.ltrans1.ltrans.o
 .debug_aranges
                0x0000000000000190       0xe0 /tmp/cch3Vd0b.ltrans2.ltrans.o
 .debug_aranges
                0x0000000000000270      0x1a0 /tmp/cch3Vd0b.ltrans3.ltrans.o
 .debug_aranges
                0x0000000000000410       0xc0 /tmp/cch3Vd0b.ltrans4.ltrans.o
 .debug_aranges
                0x00000000000004d0      0x150 /tmp/cch3Vd0b.ltrans5.ltrans.o
 .debug_aranges
                0x0000000000000620      0x170 /tmp/cch3Vd0b.ltrans6.ltrans.o
 .debug_aranges
                0x0000000000000790       0x90 /tmp/cch3Vd0b.ltrans7.ltrans.o
 .debug_aranges
                0x0000000000000820       0x30 /tmp/cch3Vd0b.ltrans8.ltrans.o

.debug_ranges   0x0000000000000000     0x1bf0
 .debug_ranges  0x0000000000000000      0x5e0 /tmp/cch3Vd0b.ltrans0.ltrans.o
 .debug_ranges  0x00000000000005e0      0x2d0 /tmp/cch3Vd0b.ltrans1.ltrans.o
 .debug_ranges  0x00000000000008b0      0x440 /tmp/cch3Vd0b.ltrans2.ltrans.o
 .debug_ranges  0x0000000000000cf0      0x320 /tmp/cch3Vd0b.ltrans3.ltrans.o
 .debug_ranges  0x0000000000001010       0xe0 /tmp/cch3Vd0b.ltrans4.ltrans.o
 .debug_ranges  0x00000000000010f0      0x410 /tmp/cch3Vd0b.ltrans5.ltrans.o
 .debug_ranges  0x0000000000001500      0x230 /tmp/cch3Vd0b.ltrans6.ltrans.o
 .debug_ranges  0x0000000000001730      0x4a0 /tmp/cch3Vd0b.ltrans7.ltrans.o
 .debug_ranges  0x0000000000001bd0       0x20 /tmp/cch3Vd0b.ltrans8.ltrans.o

.debug_line     0x0000000000000000     0x4016
 .debug_line    0x0000000000000000      0x7d5 /tmp/cch3Vd0b.ltrans0.ltrans.o
 .debug_line    0x00000000000007d5      0x549 /tmp/cch3Vd0b.ltrans1.ltrans.o
 .debug_line    0x0000000000000d1e      0x69b /tmp/cch3Vd0b.ltrans2.ltrans.o
 .debug_line    0x00000000000013b9      0x8b8 /tmp/cch3Vd0b.ltrans3.ltrans.o
 .debug_line    0x0000000000001c71      0x917 /tmp/cch3Vd0b.ltrans4.ltrans.o
 .debug_line    0x0000000000002588      0xa78 /tmp/cch3Vd0b.ltrans5.ltrans.o
 .debug_line    0x0000000000003000      0x84a /tmp/cch3Vd0b.ltrans6.ltrans.o
 .debug_line    0x000000000000384a      0x6bb /tmp/cch3Vd0b.ltrans7.ltrans.o
 .debug_line    0x0000000000003f05      0x111 /tmp/cch3Vd0b.ltrans8.ltrans.o

.debug_str      0x0000000000000000     0x4433
 .debug_str     0x0000000000000000     0x16bd /tmp/cch3Vd0b.ltrans0.ltrans.o
                                       0x1a63 (size before relaxing)
 .debug_str     0x00000000000016bd      0x2b3 /tmp/cch3Vd0b.ltrans1.ltrans.o
                                       0x13e5 (size before relaxing)
 .debug_str     0x0000000000001970      0x2e1 /tmp/cch3Vd0b.ltrans2.ltrans.o
                                       0x1888 (size before relaxing)
 .debug_str     0x0000000000001c51      0x4cd /tmp/cch3Vd0b.ltrans3.ltrans.o
                                        0xbd9 (size before relaxing)
 .debug_str     0x000000000000211e     0x1372 /tmp/cch3Vd0b.ltrans4.ltrans.o
                                       0x1b43 (size before relaxing)
 .debug_str     0x0000000000003490      0x82b /tmp/cch3Vd0b.ltrans5.ltrans.o
                                       0x1eb5 (size before relaxing)
 .debug_str     0x0000000000003cbb      0x3b1 /tmp/cch3Vd0b.ltrans6.ltrans.o
                                       0x287e (size before relaxing)
 .debug_str     0x000000000000406c      0x394 /tmp/cch3Vd0b.ltrans7.ltrans.o
                                       0x198f (size before relaxing)
 .debug_str     0x0000000000004400       0x33 /tmp/cch3Vd0b.ltrans8.ltrans.o
                                        0x27b (size before relaxing)

.debug_frame    0x0000000000000000     0x2108
 .debug_frame   0x0000000000000000      0x3a8 /tmp/cch3Vd0b.ltrans0.ltrans.o
 .debug_frame   0x00000000000003a8      0x360 /tmp/cch3Vd0b.ltrans1.ltrans.o
 .debug_frame   0x0000000000000708      0x3f8 /tmp/cch3Vd0b.ltrans2.ltrans.o
 .debug_frame   0x0000000000000b00      0x660 /tmp/cch3Vd0b.ltrans3.ltrans.o
 .debug_frame   0x0000000000001160      0x3e8 /tmp/cch3Vd0b.ltrans4.ltrans.o
 .debug_frame   0x0000000000001548      0x4c0 /tmp/cch3Vd0b.ltrans5.ltrans.o
 .debug_frame   0x0000000000001a08      0x428 /tmp/cch3Vd0b.ltrans6.ltrans.o
 .debug_frame   0x0000000000001e30      0x268 /tmp/cch3Vd0b.ltrans7.ltrans.o
 .debug_frame   0x0000000000002098       0x70 /tmp/cch3Vd0b.ltrans8.ltrans.o
