Archive member included to satisfy reference by file (symbol)

/home/hcj/UEFIWorkspace/Build/MdeModule/DEBUG_GCC5/X64/MdeModulePkg/Universal/DriverSampleDxe/DriverSampleDxe/OUTPUT/DriverSample.lib(DriverSample.obj)
                              (--whole-archive)
/home/hcj/UEFIWorkspace/Build/MdeModule/DEBUG_GCC5/X64/MdeModulePkg/Universal/DriverSampleDxe/DriverSampleDxe/OUTPUT/DriverSample.lib(Inventory.obj)
                              (--whole-archive)
/home/hcj/UEFIWorkspace/Build/MdeModule/DEBUG_GCC5/X64/MdeModulePkg/Universal/DriverSampleDxe/DriverSampleDxe/OUTPUT/DriverSample.lib(Vfr.obj)
                              (--whole-archive)
/home/hcj/UEFIWorkspace/Build/MdeModule/DEBUG_GCC5/X64/MdeModulePkg/Universal/DriverSampleDxe/DriverSampleDxe/OUTPUT/DriverSample.lib(AutoGen.obj)
                              (--whole-archive)
/home/hcj/UEFIWorkspace/Build/MdeModule/DEBUG_GCC5/X64/MdePkg/Library/RegisterFilterLibNull/RegisterFilterLibNull/OUTPUT/FilterLibNull.lib(RegisterFilterLibNull.obj)
                              (--whole-archive)
/home/hcj/UEFIWorkspace/Build/MdeModule/DEBUG_GCC5/X64/MdePkg/Library/BasePcdLibNull/BasePcdLibNull/OUTPUT/BasePcdLibNull.lib(PcdLib.obj)
                              (--whole-archive)
/home/hcj/UEFIWorkspace/Build/MdeModule/DEBUG_GCC5/X64/MdePkg/Library/BaseDebugLibNull/BaseDebugLibNull/OUTPUT/BaseDebugLibNull.lib(DebugLib.obj)
                              (--whole-archive)
/home/hcj/UEFIWorkspace/Build/MdeModule/DEBUG_GCC5/X64/MdePkg/Library/BaseMemoryLib/BaseMemoryLib/OUTPUT/BaseMemoryLib.lib(SetMem.obj)
                              (--whole-archive)
/home/hcj/UEFIWorkspace/Build/MdeModule/DEBUG_GCC5/X64/MdePkg/Library/BaseMemoryLib/BaseMemoryLib/OUTPUT/BaseMemoryLib.lib(ScanMem64Wrapper.obj)
                              (--whole-archive)
/home/hcj/UEFIWorkspace/Build/MdeModule/DEBUG_GCC5/X64/MdePkg/Library/BaseMemoryLib/BaseMemoryLib/OUTPUT/BaseMemoryLib.lib(ScanMem32Wrapper.obj)
                              (--whole-archive)
/home/hcj/UEFIWorkspace/Build/MdeModule/DEBUG_GCC5/X64/MdePkg/Library/BaseMemoryLib/BaseMemoryLib/OUTPUT/BaseMemoryLib.lib(ScanMem16Wrapper.obj)
                              (--whole-archive)
/home/hcj/UEFIWorkspace/Build/MdeModule/DEBUG_GCC5/X64/MdePkg/Library/BaseMemoryLib/BaseMemoryLib/OUTPUT/BaseMemoryLib.lib(ScanMem8Wrapper.obj)
                              (--whole-archive)
/home/hcj/UEFIWorkspace/Build/MdeModule/DEBUG_GCC5/X64/MdePkg/Library/BaseMemoryLib/BaseMemoryLib/OUTPUT/BaseMemoryLib.lib(ZeroMemWrapper.obj)
                              (--whole-archive)
/home/hcj/UEFIWorkspace/Build/MdeModule/DEBUG_GCC5/X64/MdePkg/Library/BaseMemoryLib/BaseMemoryLib/OUTPUT/BaseMemoryLib.lib(CompareMemWrapper.obj)
                              (--whole-archive)
/home/hcj/UEFIWorkspace/Build/MdeModule/DEBUG_GCC5/X64/MdePkg/Library/BaseMemoryLib/BaseMemoryLib/OUTPUT/BaseMemoryLib.lib(SetMem64Wrapper.obj)
                              (--whole-archive)
/home/hcj/UEFIWorkspace/Build/MdeModule/DEBUG_GCC5/X64/MdePkg/Library/BaseMemoryLib/BaseMemoryLib/OUTPUT/BaseMemoryLib.lib(SetMem32Wrapper.obj)
                              (--whole-archive)
/home/hcj/UEFIWorkspace/Build/MdeModule/DEBUG_GCC5/X64/MdePkg/Library/BaseMemoryLib/BaseMemoryLib/OUTPUT/BaseMemoryLib.lib(SetMem16Wrapper.obj)
                              (--whole-archive)
/home/hcj/UEFIWorkspace/Build/MdeModule/DEBUG_GCC5/X64/MdePkg/Library/BaseMemoryLib/BaseMemoryLib/OUTPUT/BaseMemoryLib.lib(SetMemWrapper.obj)
                              (--whole-archive)
/home/hcj/UEFIWorkspace/Build/MdeModule/DEBUG_GCC5/X64/MdePkg/Library/BaseMemoryLib/BaseMemoryLib/OUTPUT/BaseMemoryLib.lib(CopyMemWrapper.obj)
                              (--whole-archive)
/home/hcj/UEFIWorkspace/Build/MdeModule/DEBUG_GCC5/X64/MdePkg/Library/BaseMemoryLib/BaseMemoryLib/OUTPUT/BaseMemoryLib.lib(IsZeroBufferWrapper.obj)
                              (--whole-archive)
/home/hcj/UEFIWorkspace/Build/MdeModule/DEBUG_GCC5/X64/MdePkg/Library/BaseMemoryLib/BaseMemoryLib/OUTPUT/BaseMemoryLib.lib(MemLibGeneric.obj)
                              (--whole-archive)
/home/hcj/UEFIWorkspace/Build/MdeModule/DEBUG_GCC5/X64/MdePkg/Library/BaseMemoryLib/BaseMemoryLib/OUTPUT/BaseMemoryLib.lib(MemLibGuid.obj)
                              (--whole-archive)
/home/hcj/UEFIWorkspace/Build/MdeModule/DEBUG_GCC5/X64/MdePkg/Library/BaseMemoryLib/BaseMemoryLib/OUTPUT/BaseMemoryLib.lib(CopyMem.obj)
                              (--whole-archive)
/home/hcj/UEFIWorkspace/Build/MdeModule/DEBUG_GCC5/X64/MdePkg/Library/BaseLib/BaseLib/OUTPUT/BaseLib.lib(CheckSum.obj)
                              (--whole-archive)
/home/hcj/UEFIWorkspace/Build/MdeModule/DEBUG_GCC5/X64/MdePkg/Library/BaseLib/BaseLib/OUTPUT/BaseLib.lib(SwitchStack.obj)
                              (--whole-archive)
/home/hcj/UEFIWorkspace/Build/MdeModule/DEBUG_GCC5/X64/MdePkg/Library/BaseLib/BaseLib/OUTPUT/BaseLib.lib(SwapBytes64.obj)
                              (--whole-archive)
/home/hcj/UEFIWorkspace/Build/MdeModule/DEBUG_GCC5/X64/MdePkg/Library/BaseLib/BaseLib/OUTPUT/BaseLib.lib(SwapBytes32.obj)
                              (--whole-archive)
/home/hcj/UEFIWorkspace/Build/MdeModule/DEBUG_GCC5/X64/MdePkg/Library/BaseLib/BaseLib/OUTPUT/BaseLib.lib(SwapBytes16.obj)
                              (--whole-archive)
/home/hcj/UEFIWorkspace/Build/MdeModule/DEBUG_GCC5/X64/MdePkg/Library/BaseLib/BaseLib/OUTPUT/BaseLib.lib(LongJump.obj)
                              (--whole-archive)
/home/hcj/UEFIWorkspace/Build/MdeModule/DEBUG_GCC5/X64/MdePkg/Library/BaseLib/BaseLib/OUTPUT/BaseLib.lib(SetJump.obj)
                              (--whole-archive)
/home/hcj/UEFIWorkspace/Build/MdeModule/DEBUG_GCC5/X64/MdePkg/Library/BaseLib/BaseLib/OUTPUT/BaseLib.lib(QuickSort.obj)
                              (--whole-archive)
/home/hcj/UEFIWorkspace/Build/MdeModule/DEBUG_GCC5/X64/MdePkg/Library/BaseLib/BaseLib/OUTPUT/BaseLib.lib(RShiftU64.obj)
                              (--whole-archive)
/home/hcj/UEFIWorkspace/Build/MdeModule/DEBUG_GCC5/X64/MdePkg/Library/BaseLib/BaseLib/OUTPUT/BaseLib.lib(RRotU64.obj)
                              (--whole-archive)
/home/hcj/UEFIWorkspace/Build/MdeModule/DEBUG_GCC5/X64/MdePkg/Library/BaseLib/BaseLib/OUTPUT/BaseLib.lib(RRotU32.obj)
                              (--whole-archive)
/home/hcj/UEFIWorkspace/Build/MdeModule/DEBUG_GCC5/X64/MdePkg/Library/BaseLib/BaseLib/OUTPUT/BaseLib.lib(MultU64x64.obj)
                              (--whole-archive)
/home/hcj/UEFIWorkspace/Build/MdeModule/DEBUG_GCC5/X64/MdePkg/Library/BaseLib/BaseLib/OUTPUT/BaseLib.lib(MultU64x32.obj)
                              (--whole-archive)
/home/hcj/UEFIWorkspace/Build/MdeModule/DEBUG_GCC5/X64/MdePkg/Library/BaseLib/BaseLib/OUTPUT/BaseLib.lib(MultS64x64.obj)
                              (--whole-archive)
/home/hcj/UEFIWorkspace/Build/MdeModule/DEBUG_GCC5/X64/MdePkg/Library/BaseLib/BaseLib/OUTPUT/BaseLib.lib(ModU64x32.obj)
                              (--whole-archive)
/home/hcj/UEFIWorkspace/Build/MdeModule/DEBUG_GCC5/X64/MdePkg/Library/BaseLib/BaseLib/OUTPUT/BaseLib.lib(LShiftU64.obj)
                              (--whole-archive)
/home/hcj/UEFIWorkspace/Build/MdeModule/DEBUG_GCC5/X64/MdePkg/Library/BaseLib/BaseLib/OUTPUT/BaseLib.lib(LRotU64.obj)
                              (--whole-archive)
/home/hcj/UEFIWorkspace/Build/MdeModule/DEBUG_GCC5/X64/MdePkg/Library/BaseLib/BaseLib/OUTPUT/BaseLib.lib(LRotU32.obj)
                              (--whole-archive)
/home/hcj/UEFIWorkspace/Build/MdeModule/DEBUG_GCC5/X64/MdePkg/Library/BaseLib/BaseLib/OUTPUT/BaseLib.lib(LowBitSet64.obj)
                              (--whole-archive)
/home/hcj/UEFIWorkspace/Build/MdeModule/DEBUG_GCC5/X64/MdePkg/Library/BaseLib/BaseLib/OUTPUT/BaseLib.lib(LowBitSet32.obj)
                              (--whole-archive)
/home/hcj/UEFIWorkspace/Build/MdeModule/DEBUG_GCC5/X64/MdePkg/Library/BaseLib/BaseLib/OUTPUT/BaseLib.lib(HighBitSet64.obj)
                              (--whole-archive)
/home/hcj/UEFIWorkspace/Build/MdeModule/DEBUG_GCC5/X64/MdePkg/Library/BaseLib/BaseLib/OUTPUT/BaseLib.lib(HighBitSet32.obj)
                              (--whole-archive)
/home/hcj/UEFIWorkspace/Build/MdeModule/DEBUG_GCC5/X64/MdePkg/Library/BaseLib/BaseLib/OUTPUT/BaseLib.lib(GetPowerOfTwo64.obj)
                              (--whole-archive)
/home/hcj/UEFIWorkspace/Build/MdeModule/DEBUG_GCC5/X64/MdePkg/Library/BaseLib/BaseLib/OUTPUT/BaseLib.lib(GetPowerOfTwo32.obj)
                              (--whole-archive)
/home/hcj/UEFIWorkspace/Build/MdeModule/DEBUG_GCC5/X64/MdePkg/Library/BaseLib/BaseLib/OUTPUT/BaseLib.lib(DivU64x64Remainder.obj)
                              (--whole-archive)
/home/hcj/UEFIWorkspace/Build/MdeModule/DEBUG_GCC5/X64/MdePkg/Library/BaseLib/BaseLib/OUTPUT/BaseLib.lib(DivU64x32Remainder.obj)
                              (--whole-archive)
/home/hcj/UEFIWorkspace/Build/MdeModule/DEBUG_GCC5/X64/MdePkg/Library/BaseLib/BaseLib/OUTPUT/BaseLib.lib(DivU64x32.obj)
                              (--whole-archive)
/home/hcj/UEFIWorkspace/Build/MdeModule/DEBUG_GCC5/X64/MdePkg/Library/BaseLib/BaseLib/OUTPUT/BaseLib.lib(DivS64x64Remainder.obj)
                              (--whole-archive)
/home/hcj/UEFIWorkspace/Build/MdeModule/DEBUG_GCC5/X64/MdePkg/Library/BaseLib/BaseLib/OUTPUT/BaseLib.lib(ARShiftU64.obj)
                              (--whole-archive)
/home/hcj/UEFIWorkspace/Build/MdeModule/DEBUG_GCC5/X64/MdePkg/Library/BaseLib/BaseLib/OUTPUT/BaseLib.lib(BitField.obj)
                              (--whole-archive)
/home/hcj/UEFIWorkspace/Build/MdeModule/DEBUG_GCC5/X64/MdePkg/Library/BaseLib/BaseLib/OUTPUT/BaseLib.lib(CpuDeadLoop.obj)
                              (--whole-archive)
/home/hcj/UEFIWorkspace/Build/MdeModule/DEBUG_GCC5/X64/MdePkg/Library/BaseLib/BaseLib/OUTPUT/BaseLib.lib(Cpu.obj)
                              (--whole-archive)
/home/hcj/UEFIWorkspace/Build/MdeModule/DEBUG_GCC5/X64/MdePkg/Library/BaseLib/BaseLib/OUTPUT/BaseLib.lib(LinkedList.obj)
                              (--whole-archive)
/home/hcj/UEFIWorkspace/Build/MdeModule/DEBUG_GCC5/X64/MdePkg/Library/BaseLib/BaseLib/OUTPUT/BaseLib.lib(SafeString.obj)
                              (--whole-archive)
/home/hcj/UEFIWorkspace/Build/MdeModule/DEBUG_GCC5/X64/MdePkg/Library/BaseLib/BaseLib/OUTPUT/BaseLib.lib(String.obj)
                              (--whole-archive)
/home/hcj/UEFIWorkspace/Build/MdeModule/DEBUG_GCC5/X64/MdePkg/Library/BaseLib/BaseLib/OUTPUT/BaseLib.lib(FilePaths.obj)
                              (--whole-archive)
/home/hcj/UEFIWorkspace/Build/MdeModule/DEBUG_GCC5/X64/MdePkg/Library/BaseLib/BaseLib/OUTPUT/BaseLib.lib(Thunk16.obj)
                              (--whole-archive)
/home/hcj/UEFIWorkspace/Build/MdeModule/DEBUG_GCC5/X64/MdePkg/Library/BaseLib/BaseLib/OUTPUT/BaseLib.lib(CpuIdEx.obj)
                              (--whole-archive)
/home/hcj/UEFIWorkspace/Build/MdeModule/DEBUG_GCC5/X64/MdePkg/Library/BaseLib/BaseLib/OUTPUT/BaseLib.lib(CpuId.obj)
                              (--whole-archive)
/home/hcj/UEFIWorkspace/Build/MdeModule/DEBUG_GCC5/X64/MdePkg/Library/BaseLib/BaseLib/OUTPUT/BaseLib.lib(LongJump.obj)
                              (--whole-archive)
/home/hcj/UEFIWorkspace/Build/MdeModule/DEBUG_GCC5/X64/MdePkg/Library/BaseLib/BaseLib/OUTPUT/BaseLib.lib(SetJump.obj)
                              (--whole-archive)
/home/hcj/UEFIWorkspace/Build/MdeModule/DEBUG_GCC5/X64/MdePkg/Library/BaseLib/BaseLib/OUTPUT/BaseLib.lib(SwitchStack.obj)
                              (--whole-archive)
/home/hcj/UEFIWorkspace/Build/MdeModule/DEBUG_GCC5/X64/MdePkg/Library/BaseLib/BaseLib/OUTPUT/BaseLib.lib(EnableCache.obj)
                              (--whole-archive)
/home/hcj/UEFIWorkspace/Build/MdeModule/DEBUG_GCC5/X64/MdePkg/Library/BaseLib/BaseLib/OUTPUT/BaseLib.lib(DisableCache.obj)
                              (--whole-archive)
/home/hcj/UEFIWorkspace/Build/MdeModule/DEBUG_GCC5/X64/MdePkg/Library/BaseLib/BaseLib/OUTPUT/BaseLib.lib(WriteTr.obj)
                              (--whole-archive)
/home/hcj/UEFIWorkspace/Build/MdeModule/DEBUG_GCC5/X64/MdePkg/Library/BaseLib/BaseLib/OUTPUT/BaseLib.lib(Lfence.obj)
                              (--whole-archive)
/home/hcj/UEFIWorkspace/Build/MdeModule/DEBUG_GCC5/X64/MdePkg/Library/BaseLib/BaseLib/OUTPUT/BaseLib.lib(Non-existing.obj)
                              (--whole-archive)
/home/hcj/UEFIWorkspace/Build/MdeModule/DEBUG_GCC5/X64/MdePkg/Library/BaseLib/BaseLib/OUTPUT/BaseLib.lib(Math64.obj)
                              (--whole-archive)
/home/hcj/UEFIWorkspace/Build/MdeModule/DEBUG_GCC5/X64/MdePkg/Library/BaseLib/BaseLib/OUTPUT/BaseLib.lib(Unaligned.obj)
                              (--whole-archive)
/home/hcj/UEFIWorkspace/Build/MdeModule/DEBUG_GCC5/X64/MdePkg/Library/BaseLib/BaseLib/OUTPUT/BaseLib.lib(X86WriteIdtr.obj)
                              (--whole-archive)
/home/hcj/UEFIWorkspace/Build/MdeModule/DEBUG_GCC5/X64/MdePkg/Library/BaseLib/BaseLib/OUTPUT/BaseLib.lib(X86WriteGdtr.obj)
                              (--whole-archive)
/home/hcj/UEFIWorkspace/Build/MdeModule/DEBUG_GCC5/X64/MdePkg/Library/BaseLib/BaseLib/OUTPUT/BaseLib.lib(X86Thunk.obj)
                              (--whole-archive)
/home/hcj/UEFIWorkspace/Build/MdeModule/DEBUG_GCC5/X64/MdePkg/Library/BaseLib/BaseLib/OUTPUT/BaseLib.lib(X86ReadIdtr.obj)
                              (--whole-archive)
/home/hcj/UEFIWorkspace/Build/MdeModule/DEBUG_GCC5/X64/MdePkg/Library/BaseLib/BaseLib/OUTPUT/BaseLib.lib(X86ReadGdtr.obj)
                              (--whole-archive)
/home/hcj/UEFIWorkspace/Build/MdeModule/DEBUG_GCC5/X64/MdePkg/Library/BaseLib/BaseLib/OUTPUT/BaseLib.lib(X86Msr.obj)
                              (--whole-archive)
/home/hcj/UEFIWorkspace/Build/MdeModule/DEBUG_GCC5/X64/MdePkg/Library/BaseLib/BaseLib/OUTPUT/BaseLib.lib(X86GetInterruptState.obj)
                              (--whole-archive)
/home/hcj/UEFIWorkspace/Build/MdeModule/DEBUG_GCC5/X64/MdePkg/Library/BaseLib/BaseLib/OUTPUT/BaseLib.lib(X86FxSave.obj)
                              (--whole-archive)
/home/hcj/UEFIWorkspace/Build/MdeModule/DEBUG_GCC5/X64/MdePkg/Library/BaseLib/BaseLib/OUTPUT/BaseLib.lib(X86FxRestore.obj)
                              (--whole-archive)
/home/hcj/UEFIWorkspace/Build/MdeModule/DEBUG_GCC5/X64/MdePkg/Library/BaseLib/BaseLib/OUTPUT/BaseLib.lib(X86EnablePaging64.obj)
                              (--whole-archive)
/home/hcj/UEFIWorkspace/Build/MdeModule/DEBUG_GCC5/X64/MdePkg/Library/BaseLib/BaseLib/OUTPUT/BaseLib.lib(X86EnablePaging32.obj)
                              (--whole-archive)
/home/hcj/UEFIWorkspace/Build/MdeModule/DEBUG_GCC5/X64/MdePkg/Library/BaseLib/BaseLib/OUTPUT/BaseLib.lib(X86DisablePaging64.obj)
                              (--whole-archive)
/home/hcj/UEFIWorkspace/Build/MdeModule/DEBUG_GCC5/X64/MdePkg/Library/BaseLib/BaseLib/OUTPUT/BaseLib.lib(X86DisablePaging32.obj)
                              (--whole-archive)
/home/hcj/UEFIWorkspace/Build/MdeModule/DEBUG_GCC5/X64/MdePkg/Library/BaseLib/BaseLib/OUTPUT/BaseLib.lib(X86RdRand.obj)
                              (--whole-archive)
/home/hcj/UEFIWorkspace/Build/MdeModule/DEBUG_GCC5/X64/MdePkg/Library/BaseLib/BaseLib/OUTPUT/BaseLib.lib(X86PatchInstruction.obj)
                              (--whole-archive)
/home/hcj/UEFIWorkspace/Build/MdeModule/DEBUG_GCC5/X64/MdePkg/Library/BaseLib/BaseLib/OUTPUT/BaseLib.lib(X86SpeculationBarrier.obj)
                              (--whole-archive)
/home/hcj/UEFIWorkspace/Build/MdeModule/DEBUG_GCC5/X64/MdePkg/Library/BaseLib/BaseLib/OUTPUT/BaseLib.lib(GccInline.obj)
                              (--whole-archive)
/home/hcj/UEFIWorkspace/Build/MdeModule/DEBUG_GCC5/X64/MdePkg/Library/BaseLib/BaseLib/OUTPUT/BaseLib.lib(GccInlinePriv.obj)
                              (--whole-archive)
/home/hcj/UEFIWorkspace/Build/MdeModule/DEBUG_GCC5/X64/MdePkg/Library/BaseLib/BaseLib/OUTPUT/BaseLib.lib(EnableDisableInterrupts.obj)
                              (--whole-archive)
/home/hcj/UEFIWorkspace/Build/MdeModule/DEBUG_GCC5/X64/MdePkg/Library/BaseLib/BaseLib/OUTPUT/BaseLib.lib(DisablePaging64.obj)
                              (--whole-archive)
/home/hcj/UEFIWorkspace/Build/MdeModule/DEBUG_GCC5/X64/MdePkg/Library/BaseLib/BaseLib/OUTPUT/BaseLib.lib(Pvalidate.obj)
                              (--whole-archive)
/home/hcj/UEFIWorkspace/Build/MdeModule/DEBUG_GCC5/X64/MdePkg/Library/BaseLib/BaseLib/OUTPUT/BaseLib.lib(RdRand.obj)
                              (--whole-archive)
/home/hcj/UEFIWorkspace/Build/MdeModule/DEBUG_GCC5/X64/MdePkg/Library/BaseLib/BaseLib/OUTPUT/BaseLib.lib(RmpAdjust.obj)
                              (--whole-archive)
/home/hcj/UEFIWorkspace/Build/MdeModule/DEBUG_GCC5/X64/MdePkg/Library/BaseLib/BaseLib/OUTPUT/BaseLib.lib(XGetBv.obj)
                              (--whole-archive)
/home/hcj/UEFIWorkspace/Build/MdeModule/DEBUG_GCC5/X64/MdePkg/Library/BaseLib/BaseLib/OUTPUT/BaseLib.lib(XSetBv.obj)
                              (--whole-archive)
/home/hcj/UEFIWorkspace/Build/MdeModule/DEBUG_GCC5/X64/MdePkg/Library/BaseLib/BaseLib/OUTPUT/BaseLib.lib(VmgExit.obj)
                              (--whole-archive)
/home/hcj/UEFIWorkspace/Build/MdeModule/DEBUG_GCC5/X64/MdePkg/Library/BaseLib/BaseLib/OUTPUT/BaseLib.lib(ChkStkGcc.obj)
                              (--whole-archive)
/home/hcj/UEFIWorkspace/Build/MdeModule/DEBUG_GCC5/X64/MdePkg/Library/UefiBootServicesTableLib/UefiBootServicesTableLib/OUTPUT/UefiBootServicesTableLib.lib(UefiBootServicesTableLib.obj)
                              (--whole-archive)
/home/hcj/UEFIWorkspace/Build/MdeModule/DEBUG_GCC5/X64/MdePkg/Library/BasePrintLib/BasePrintLib/OUTPUT/BasePrintLib.lib(PrintLibInternal.obj)
                              (--whole-archive)
/home/hcj/UEFIWorkspace/Build/MdeModule/DEBUG_GCC5/X64/MdePkg/Library/BasePrintLib/BasePrintLib/OUTPUT/BasePrintLib.lib(PrintLib.obj)
                              (--whole-archive)
/home/hcj/UEFIWorkspace/Build/MdeModule/DEBUG_GCC5/X64/MdePkg/Library/UefiMemoryAllocationLib/UefiMemoryAllocationLib/OUTPUT/UefiMemoryAllocationLib.lib(MemoryAllocationLib.obj)
                              (--whole-archive)
/home/hcj/UEFIWorkspace/Build/MdeModule/DEBUG_GCC5/X64/MdePkg/Library/UefiDevicePathLib/UefiDevicePathLib/OUTPUT/UefiDevicePathLib.lib(DevicePathUtilities.obj)
                              (--whole-archive)
/home/hcj/UEFIWorkspace/Build/MdeModule/DEBUG_GCC5/X64/MdePkg/Library/UefiDevicePathLib/UefiDevicePathLib/OUTPUT/UefiDevicePathLib.lib(DevicePathUtilitiesDxeSmm.obj)
                              (--whole-archive)
/home/hcj/UEFIWorkspace/Build/MdeModule/DEBUG_GCC5/X64/MdePkg/Library/UefiDevicePathLib/UefiDevicePathLib/OUTPUT/UefiDevicePathLib.lib(DevicePathToText.obj)
                              (--whole-archive)
/home/hcj/UEFIWorkspace/Build/MdeModule/DEBUG_GCC5/X64/MdePkg/Library/UefiDevicePathLib/UefiDevicePathLib/OUTPUT/UefiDevicePathLib.lib(DevicePathFromText.obj)
                              (--whole-archive)
/home/hcj/UEFIWorkspace/Build/MdeModule/DEBUG_GCC5/X64/MdePkg/Library/UefiDevicePathLib/UefiDevicePathLib/OUTPUT/UefiDevicePathLib.lib(UefiDevicePathLib.obj)
                              (--whole-archive)
/home/hcj/UEFIWorkspace/Build/MdeModule/DEBUG_GCC5/X64/MdePkg/Library/UefiRuntimeServicesTableLib/UefiRuntimeServicesTableLib/OUTPUT/UefiRuntimeServicesTableLib.lib(UefiRuntimeServicesTableLib.obj)
                              (--whole-archive)
/home/hcj/UEFIWorkspace/Build/MdeModule/DEBUG_GCC5/X64/MdeModulePkg/Library/UefiHiiServicesLib/UefiHiiServicesLib/OUTPUT/UefiHiiServicesLib.lib(UefiHiiServicesLib.obj)
                              (--whole-archive)
/home/hcj/UEFIWorkspace/Build/MdeModule/DEBUG_GCC5/X64/MdePkg/Library/UefiLib/UefiLib/OUTPUT/UefiLib.lib(UefiLibPrint.obj)
                              (--whole-archive)
/home/hcj/UEFIWorkspace/Build/MdeModule/DEBUG_GCC5/X64/MdePkg/Library/UefiLib/UefiLib/OUTPUT/UefiLib.lib(UefiNotTiano.obj)
                              (--whole-archive)
/home/hcj/UEFIWorkspace/Build/MdeModule/DEBUG_GCC5/X64/MdePkg/Library/UefiLib/UefiLib/OUTPUT/UefiLib.lib(UefiDriverModel.obj)
                              (--whole-archive)
/home/hcj/UEFIWorkspace/Build/MdeModule/DEBUG_GCC5/X64/MdePkg/Library/UefiLib/UefiLib/OUTPUT/UefiLib.lib(Console.obj)
                              (--whole-archive)
/home/hcj/UEFIWorkspace/Build/MdeModule/DEBUG_GCC5/X64/MdePkg/Library/UefiLib/UefiLib/OUTPUT/UefiLib.lib(UefiLib.obj)
                              (--whole-archive)
/home/hcj/UEFIWorkspace/Build/MdeModule/DEBUG_GCC5/X64/MdePkg/Library/UefiLib/UefiLib/OUTPUT/UefiLib.lib(Acpi.obj)
                              (--whole-archive)
/home/hcj/UEFIWorkspace/Build/MdeModule/DEBUG_GCC5/X64/MdePkg/Library/UefiDriverEntryPoint/UefiDriverEntryPoint/OUTPUT/UefiDriverEntryPoint.lib(DriverEntryPoint.obj)
                              (--whole-archive)
/home/hcj/UEFIWorkspace/Build/MdeModule/DEBUG_GCC5/X64/MdeModulePkg/Library/UefiHiiLib/UefiHiiLib/OUTPUT/UefiHiiLib.lib(HiiLib.obj)
                              (--whole-archive)
/home/hcj/UEFIWorkspace/Build/MdeModule/DEBUG_GCC5/X64/MdeModulePkg/Library/UefiHiiLib/UefiHiiLib/OUTPUT/UefiHiiLib.lib(HiiString.obj)
                              (--whole-archive)
/home/hcj/UEFIWorkspace/Build/MdeModule/DEBUG_GCC5/X64/MdeModulePkg/Library/UefiHiiLib/UefiHiiLib/OUTPUT/UefiHiiLib.lib(HiiLanguage.obj)
                              (--whole-archive)

Discarded input sections

 .text          0x0000000000000000        0x0 /tmp/ccih1Te5.ltrans0.ltrans.o
 .data          0x0000000000000000        0x0 /tmp/ccih1Te5.ltrans0.ltrans.o
 .bss           0x0000000000000000        0x0 /tmp/ccih1Te5.ltrans0.ltrans.o
 .text.unlikely.InternalHiiIfrValueAction
                0x0000000000000000        0x0 /tmp/ccih1Te5.ltrans0.ltrans.o
 .comment       0x0000000000000000       0x2e /tmp/ccih1Te5.ltrans0.ltrans.o
 .note.GNU-stack
                0x0000000000000000        0x0 /tmp/ccih1Te5.ltrans0.ltrans.o
 .text          0x0000000000000000        0x0 /tmp/ccih1Te5.ltrans1.ltrans.o
 .data          0x0000000000000000        0x0 /tmp/ccih1Te5.ltrans1.ltrans.o
 .bss           0x0000000000000000        0x0 /tmp/ccih1Te5.ltrans1.ltrans.o
 .text.unlikely._ModuleEntryPoint
                0x0000000000000000        0x0 /tmp/ccih1Te5.ltrans1.ltrans.o
 .comment       0x0000000000000000       0x2e /tmp/ccih1Te5.ltrans1.ltrans.o
 .note.GNU-stack
                0x0000000000000000        0x0 /tmp/ccih1Te5.ltrans1.ltrans.o
 .text          0x0000000000000000        0x0 /tmp/ccih1Te5.ltrans2.ltrans.o
 .data          0x0000000000000000        0x0 /tmp/ccih1Te5.ltrans2.ltrans.o
 .bss           0x0000000000000000        0x0 /tmp/ccih1Te5.ltrans2.ltrans.o
 .text.unlikely.DriverCallback
                0x0000000000000000        0x0 /tmp/ccih1Te5.ltrans2.ltrans.o
 .comment       0x0000000000000000       0x2e /tmp/ccih1Te5.ltrans2.ltrans.o
 .note.GNU-stack
                0x0000000000000000        0x0 /tmp/ccih1Te5.ltrans2.ltrans.o
 .text          0x0000000000000000        0x0 /tmp/ccih1Te5.ltrans3.ltrans.o
 .data          0x0000000000000000        0x0 /tmp/ccih1Te5.ltrans3.ltrans.o
 .bss           0x0000000000000000        0x0 /tmp/ccih1Te5.ltrans3.ltrans.o
 .text.unlikely.UefiDevicePathLibCatPrint
                0x0000000000000000        0x0 /tmp/ccih1Te5.ltrans3.ltrans.o
 .text.unlikely.DevPathToTextUsbClass
                0x0000000000000000        0x0 /tmp/ccih1Te5.ltrans3.ltrans.o
 .text.unlikely.DevPathToTextLogicalUnit
                0x0000000000000000        0x0 /tmp/ccih1Te5.ltrans3.ltrans.o
 .text.unlikely.DevPathToTextUsb
                0x0000000000000000        0x0 /tmp/ccih1Te5.ltrans3.ltrans.o
 .text.unlikely.DevPathToText1394
                0x0000000000000000        0x0 /tmp/ccih1Te5.ltrans3.ltrans.o
 .text.unlikely.DevPathToTextEmmc
                0x0000000000000000        0x0 /tmp/ccih1Te5.ltrans3.ltrans.o
 .text.unlikely.DevPathToTextSd
                0x0000000000000000        0x0 /tmp/ccih1Te5.ltrans3.ltrans.o
 .text.unlikely.DevPathToTextUfs
                0x0000000000000000        0x0 /tmp/ccih1Te5.ltrans3.ltrans.o
 .text.unlikely.DevPathToTextNVMe
                0x0000000000000000        0x0 /tmp/ccih1Te5.ltrans3.ltrans.o
 .text.unlikely.DevPathToTextSasEx
                0x0000000000000000        0x0 /tmp/ccih1Te5.ltrans3.ltrans.o
 .text.unlikely.DevPathToTextFibreEx
                0x0000000000000000        0x0 /tmp/ccih1Te5.ltrans3.ltrans.o
 .text.unlikely.DevPathToTextFibre
                0x0000000000000000        0x0 /tmp/ccih1Te5.ltrans3.ltrans.o
 .text.unlikely.DevPathToTextScsi
                0x0000000000000000        0x0 /tmp/ccih1Te5.ltrans3.ltrans.o
 .text.unlikely.DevPathToTextAtapi
                0x0000000000000000        0x0 /tmp/ccih1Te5.ltrans3.ltrans.o
 .text.unlikely.DevPathToTextAcpi
                0x0000000000000000        0x0 /tmp/ccih1Te5.ltrans3.ltrans.o
 .text.unlikely.DevPathToTextBmc
                0x0000000000000000        0x0 /tmp/ccih1Te5.ltrans3.ltrans.o
 .text.unlikely.DevPathToTextController
                0x0000000000000000        0x0 /tmp/ccih1Te5.ltrans3.ltrans.o
 .text.unlikely.DevPathToTextMemMap
                0x0000000000000000        0x0 /tmp/ccih1Te5.ltrans3.ltrans.o
 .text.unlikely.DevPathToTextPccard
                0x0000000000000000        0x0 /tmp/ccih1Te5.ltrans3.ltrans.o
 .text.unlikely.DevPathToTextPci
                0x0000000000000000        0x0 /tmp/ccih1Te5.ltrans3.ltrans.o
 .text.unlikely.DevicePathNodeLength
                0x0000000000000000        0x0 /tmp/ccih1Te5.ltrans3.ltrans.o
 .text.unlikely.DevPathToTextUsbWWID
                0x0000000000000000        0x0 /tmp/ccih1Te5.ltrans3.ltrans.o
 .text.unlikely.DevPathToTextAcpiAdr
                0x0000000000000000        0x0 /tmp/ccih1Te5.ltrans3.ltrans.o
 .text.unlikely.NextDevicePathNode
                0x0000000000000000        0x0 /tmp/ccih1Te5.ltrans3.ltrans.o
 .text.unlikely.DevicePathSubType
                0x0000000000000000        0x0 /tmp/ccih1Te5.ltrans3.ltrans.o
 .text.unlikely.DevicePathType
                0x0000000000000000        0x0 /tmp/ccih1Te5.ltrans3.ltrans.o
 .text.unlikely.DevPathToTextVendor
                0x0000000000000000        0x0 /tmp/ccih1Te5.ltrans3.ltrans.o
 .text.unlikely.IsDevicePathEnd
                0x0000000000000000        0x0 /tmp/ccih1Te5.ltrans3.ltrans.o
 .text.unlikely.FreePool
                0x0000000000000000        0x0 /tmp/ccih1Te5.ltrans3.ltrans.o
 .text.unlikely.AllocateZeroPool
                0x0000000000000000        0x0 /tmp/ccih1Te5.ltrans3.ltrans.o
 .text.unlikely.UnicodeSPrint
                0x0000000000000000        0x0 /tmp/ccih1Te5.ltrans3.ltrans.o
 .text.unlikely.DevPathToTextAcpiEx
                0x0000000000000000        0x0 /tmp/ccih1Te5.ltrans3.ltrans.o
 .comment       0x0000000000000000       0x2e /tmp/ccih1Te5.ltrans3.ltrans.o
 .note.GNU-stack
                0x0000000000000000        0x0 /tmp/ccih1Te5.ltrans3.ltrans.o
 .text          0x0000000000000000        0x0 /tmp/ccih1Te5.ltrans4.ltrans.o
 .data          0x0000000000000000        0x0 /tmp/ccih1Te5.ltrans4.ltrans.o
 .bss           0x0000000000000000        0x0 /tmp/ccih1Te5.ltrans4.ltrans.o
 .text.unlikely.InternalHiiBrowserCallback.constprop.25
                0x0000000000000000        0x0 /tmp/ccih1Te5.ltrans4.ltrans.o
 .text.unlikely.InternalReallocatePool.constprop.32
                0x0000000000000000        0x0 /tmp/ccih1Te5.ltrans4.ltrans.o
 .text.unlikely.BasePrintLibSPrintMarker.constprop.23
                0x0000000000000000        0x0 /tmp/ccih1Te5.ltrans4.ltrans.o
 .text.unlikely.BasePrintLibSPrint.constprop.24
                0x0000000000000000        0x0 /tmp/ccih1Te5.ltrans4.ltrans.o
 .text.unlikely.HiiSetBrowserData.constprop.22
                0x0000000000000000        0x0 /tmp/ccih1Te5.ltrans4.ltrans.o
 .text.unlikely.HiiGetBrowserData.constprop.21
                0x0000000000000000        0x0 /tmp/ccih1Te5.ltrans4.ltrans.o
 .text.unlikely.HiiCreateOneOfOptionOpCode.constprop.20
                0x0000000000000000        0x0 /tmp/ccih1Te5.ltrans4.ltrans.o
 .text.unlikely.HiiCreateActionOpCode.constprop.19
                0x0000000000000000        0x0 /tmp/ccih1Te5.ltrans4.ltrans.o
 .rodata._gPcd_FixedAtBuild_PcdMaximumUnicodeStringLength
                0x0000000000000000        0x4 /tmp/ccih1Te5.ltrans4.ltrans.o
 .comment       0x0000000000000000       0x2e /tmp/ccih1Te5.ltrans4.ltrans.o
 .note.GNU-stack
                0x0000000000000000        0x0 /tmp/ccih1Te5.ltrans4.ltrans.o
 .text          0x0000000000000000        0x0 /tmp/ccih1Te5.ltrans5.ltrans.o
 .data          0x0000000000000000        0x0 /tmp/ccih1Te5.ltrans5.ltrans.o
 .bss           0x0000000000000000        0x0 /tmp/ccih1Te5.ltrans5.ltrans.o
 .text.unlikely.InternalBaseLibIsListValid
                0x0000000000000000        0x0 /tmp/ccih1Te5.ltrans5.ltrans.o
 .text.InternalBaseLibIsListValid
                0x0000000000000000       0x2e /tmp/ccih1Te5.ltrans5.ltrans.o
 .text.unlikely.StrnLenS
                0x0000000000000000        0x0 /tmp/ccih1Te5.ltrans5.ltrans.o
 .text.unlikely.InternalSafeStringNoStrOverlap
                0x0000000000000000        0x0 /tmp/ccih1Te5.ltrans5.ltrans.o
 .text.unlikely.StrnCpyS
                0x0000000000000000        0x0 /tmp/ccih1Te5.ltrans5.ltrans.o
 .text.unlikely.StrCpyS
                0x0000000000000000        0x0 /tmp/ccih1Te5.ltrans5.ltrans.o
 .text.unlikely.IsListEmpty
                0x0000000000000000        0x0 /tmp/ccih1Te5.ltrans5.ltrans.o
 .text.unlikely.RemoveEntryList
                0x0000000000000000        0x0 /tmp/ccih1Te5.ltrans5.ltrans.o
 .text.unlikely.InsertTailList
                0x0000000000000000        0x0 /tmp/ccih1Te5.ltrans5.ltrans.o
 .text.unlikely.BitFieldRead32
                0x0000000000000000        0x0 /tmp/ccih1Te5.ltrans5.ltrans.o
 .text.unlikely.InternalAssertJumpBuffer
                0x0000000000000000        0x0 /tmp/ccih1Te5.ltrans5.ltrans.o
 .text.InternalAssertJumpBuffer
                0x0000000000000000        0x1 /tmp/ccih1Te5.ltrans5.ltrans.o
 .text.unlikely.CompareGuid
                0x0000000000000000        0x0 /tmp/ccih1Te5.ltrans5.ltrans.o
 .text.unlikely.CopyGuid
                0x0000000000000000        0x0 /tmp/ccih1Te5.ltrans5.ltrans.o
 .text.unlikely.CopyMem
                0x0000000000000000        0x0 /tmp/ccih1Te5.ltrans5.ltrans.o
 .text.unlikely.SetMem16.part.0.lto_priv.43
                0x0000000000000000        0x0 /tmp/ccih1Te5.ltrans5.ltrans.o
 .comment       0x0000000000000000       0x2e /tmp/ccih1Te5.ltrans5.ltrans.o
 .note.GNU-stack
                0x0000000000000000        0x0 /tmp/ccih1Te5.ltrans5.ltrans.o
 .text          0x0000000000000000        0x0 /tmp/ccih1Te5.ltrans6.ltrans.o
 .data          0x0000000000000000        0x0 /tmp/ccih1Te5.ltrans6.ltrans.o
 .bss           0x0000000000000000        0x0 /tmp/ccih1Te5.ltrans6.ltrans.o
 .text.unlikely._DriverUnloadHandler
                0x0000000000000000        0x0 /tmp/ccih1Te5.ltrans6.ltrans.o
 .text.unlikely.DevPathToTextEndInstance
                0x0000000000000000        0x0 /tmp/ccih1Te5.ltrans6.ltrans.o
 .text.unlikely.DevPathToTextBBS
                0x0000000000000000        0x0 /tmp/ccih1Te5.ltrans6.ltrans.o
 .text.unlikely.DevPathRelativeOffsetRange
                0x0000000000000000        0x0 /tmp/ccih1Te5.ltrans6.ltrans.o
 .text.unlikely.DevPathToTextFvFile
                0x0000000000000000        0x0 /tmp/ccih1Te5.ltrans6.ltrans.o
 .text.unlikely.DevPathToTextFv
                0x0000000000000000        0x0 /tmp/ccih1Te5.ltrans6.ltrans.o
 .text.unlikely.DevPathToTextMediaProtocol
                0x0000000000000000        0x0 /tmp/ccih1Te5.ltrans6.ltrans.o
 .text.unlikely.DevPathToTextFilePath
                0x0000000000000000        0x0 /tmp/ccih1Te5.ltrans6.ltrans.o
 .text.unlikely.DevPathToTextCDROM
                0x0000000000000000        0x0 /tmp/ccih1Te5.ltrans6.ltrans.o
 .text.unlikely.DevPathToTextHardDrive
                0x0000000000000000        0x0 /tmp/ccih1Te5.ltrans6.ltrans.o
 .text.unlikely.DevPathToTextBluetoothLE
                0x0000000000000000        0x0 /tmp/ccih1Te5.ltrans6.ltrans.o
 .text.unlikely.DevPathToTextBluetooth
                0x0000000000000000        0x0 /tmp/ccih1Te5.ltrans6.ltrans.o
 .text.unlikely.DevPathToTextVlan
                0x0000000000000000        0x0 /tmp/ccih1Te5.ltrans6.ltrans.o
 .text.unlikely.DevPathToTextiSCSI
                0x0000000000000000        0x0 /tmp/ccih1Te5.ltrans6.ltrans.o
 .text.unlikely.DevPathToTextUart
                0x0000000000000000        0x0 /tmp/ccih1Te5.ltrans6.ltrans.o
 .text.unlikely.DevPathToTextInfiniBand
                0x0000000000000000        0x0 /tmp/ccih1Te5.ltrans6.ltrans.o
 .text.unlikely.CatIPv6Address
                0x0000000000000000        0x0 /tmp/ccih1Te5.ltrans6.ltrans.o
 .text.unlikely.CatIPv4Address
                0x0000000000000000        0x0 /tmp/ccih1Te5.ltrans6.ltrans.o
 .text.unlikely.CatNetworkProtocol
                0x0000000000000000        0x0 /tmp/ccih1Te5.ltrans6.ltrans.o
 .text.unlikely.DevPathToTextMacAddr
                0x0000000000000000        0x0 /tmp/ccih1Te5.ltrans6.ltrans.o
 .text.unlikely.DevPathToTextI2O
                0x0000000000000000        0x0 /tmp/ccih1Te5.ltrans6.ltrans.o
 .text.unlikely.DevPathToTextSata
                0x0000000000000000        0x0 /tmp/ccih1Te5.ltrans6.ltrans.o
 .text.unlikely.DevPathToTextDns
                0x0000000000000000        0x0 /tmp/ccih1Te5.ltrans6.ltrans.o
 .text.unlikely.DevPathToTextIPv6
                0x0000000000000000        0x0 /tmp/ccih1Te5.ltrans6.ltrans.o
 .text.unlikely.DevPathToTextIPv4
                0x0000000000000000        0x0 /tmp/ccih1Te5.ltrans6.ltrans.o
 .text.unlikely.DevPathToTextNodeGeneric
                0x0000000000000000        0x0 /tmp/ccih1Te5.ltrans6.ltrans.o
 .text.unlikely.DevPathToTextRamDisk
                0x0000000000000000        0x0 /tmp/ccih1Te5.ltrans6.ltrans.o
 .text.unlikely.DevPathToTextWiFi
                0x0000000000000000        0x0 /tmp/ccih1Te5.ltrans6.ltrans.o
 .text.unlikely.DevPathToTextUri
                0x0000000000000000        0x0 /tmp/ccih1Te5.ltrans6.ltrans.o
 .text.unlikely.ProcessLibraryDestructorList
                0x0000000000000000        0x0 /tmp/ccih1Te5.ltrans6.ltrans.o
 .text.unlikely.UefiLibGetStringWidth
                0x0000000000000000        0x0 /tmp/ccih1Te5.ltrans6.ltrans.o
 .comment       0x0000000000000000       0x2e /tmp/ccih1Te5.ltrans6.ltrans.o
 .note.GNU-stack
                0x0000000000000000        0x0 /tmp/ccih1Te5.ltrans6.ltrans.o
 .text          0x0000000000000000        0x0 /tmp/ccih1Te5.ltrans7.ltrans.o
 .data          0x0000000000000000        0x0 /tmp/ccih1Te5.ltrans7.ltrans.o
 .bss           0x0000000000000000        0x0 /tmp/ccih1Te5.ltrans7.ltrans.o
 .text.unlikely.UnicodeVSPrint
                0x0000000000000000        0x0 /tmp/ccih1Te5.ltrans7.ltrans.o
 .text.unlikely.BasePrintLibValueToString
                0x0000000000000000        0x0 /tmp/ccih1Te5.ltrans7.ltrans.o
 .text.unlikely.BasePrintLibFillBuffer
                0x0000000000000000        0x0 /tmp/ccih1Te5.ltrans7.ltrans.o
 .text.unlikely.ReadUnaligned64
                0x0000000000000000        0x0 /tmp/ccih1Te5.ltrans7.ltrans.o
 .text.unlikely.AsciiStrLen
                0x0000000000000000        0x0 /tmp/ccih1Te5.ltrans7.ltrans.o
 .text.unlikely.AsciiStrnCmp.part.4.lto_priv.44
                0x0000000000000000        0x0 /tmp/ccih1Te5.ltrans7.ltrans.o
 .text.unlikely.StrHexToUint64
                0x0000000000000000        0x0 /tmp/ccih1Te5.ltrans7.ltrans.o
 .text.unlikely.StrLen
                0x0000000000000000        0x0 /tmp/ccih1Te5.ltrans7.ltrans.o
 .text.unlikely.StrSize
                0x0000000000000000        0x0 /tmp/ccih1Te5.ltrans7.ltrans.o
 .text.unlikely.StrStr
                0x0000000000000000        0x0 /tmp/ccih1Te5.ltrans7.ltrans.o
 .text.unlikely.StrnCmp
                0x0000000000000000        0x0 /tmp/ccih1Te5.ltrans7.ltrans.o
 .text.unlikely.AsciiStrnLenS
                0x0000000000000000        0x0 /tmp/ccih1Te5.ltrans7.ltrans.o
 .text.unlikely.StrCatS
                0x0000000000000000        0x0 /tmp/ccih1Te5.ltrans7.ltrans.o
 .comment       0x0000000000000000       0x2e /tmp/ccih1Te5.ltrans7.ltrans.o
 .note.GNU-stack
                0x0000000000000000        0x0 /tmp/ccih1Te5.ltrans7.ltrans.o
 .text          0x0000000000000000        0x0 /tmp/ccih1Te5.ltrans8.ltrans.o
 .data          0x0000000000000000        0x0 /tmp/ccih1Te5.ltrans8.ltrans.o
 .bss           0x0000000000000000        0x0 /tmp/ccih1Te5.ltrans8.ltrans.o
 .text.unlikely.NotificationFunction
                0x0000000000000000        0x0 /tmp/ccih1Te5.ltrans8.ltrans.o
 .text.unlikely.LoadNameValueNames
                0x0000000000000000        0x0 /tmp/ccih1Te5.ltrans8.ltrans.o
 .text.unlikely.RouteConfig
                0x0000000000000000        0x0 /tmp/ccih1Te5.ltrans8.ltrans.o
 .text.unlikely.ExtractConfig
                0x0000000000000000        0x0 /tmp/ccih1Te5.ltrans8.ltrans.o
 .comment       0x0000000000000000       0x2e /tmp/ccih1Te5.ltrans8.ltrans.o
 .note.GNU-stack
                0x0000000000000000        0x0 /tmp/ccih1Te5.ltrans8.ltrans.o
 .text          0x0000000000000000        0x0 /tmp/ccih1Te5.ltrans9.ltrans.o
 .data          0x0000000000000000        0x0 /tmp/ccih1Te5.ltrans9.ltrans.o
 .bss           0x0000000000000000        0x0 /tmp/ccih1Te5.ltrans9.ltrans.o
 .text.unlikely.InternalHiiGrowOpCodeHandle
                0x0000000000000000        0x0 /tmp/ccih1Te5.ltrans9.ltrans.o
 .text.unlikely.InternalHiiCompareSubString
                0x0000000000000000        0x0 /tmp/ccih1Te5.ltrans9.ltrans.o
 .text.unlikely.HiiConstructConfigHdr.constprop.8
                0x0000000000000000        0x0 /tmp/ccih1Te5.ltrans9.ltrans.o
 .text.unlikely.HiiIsConfigHdrMatch.constprop.7
                0x0000000000000000        0x0 /tmp/ccih1Te5.ltrans9.ltrans.o
 .text.unlikely.InternalAllocateCopyPool.constprop.3
                0x0000000000000000        0x0 /tmp/ccih1Te5.ltrans9.ltrans.o
 .text.unlikely.HiiGetSupportedLanguages
                0x0000000000000000        0x0 /tmp/ccih1Te5.ltrans9.ltrans.o
 .text.unlikely.HiiSetString.constprop.2
                0x0000000000000000        0x0 /tmp/ccih1Te5.ltrans9.ltrans.o
 .text.unlikely.InternalHiiGetBufferFromString.part.0.lto_priv.45
                0x0000000000000000        0x0 /tmp/ccih1Te5.ltrans9.ltrans.o
 .text.unlikely.InternalHiiAppendOpCodes
                0x0000000000000000        0x0 /tmp/ccih1Te5.ltrans9.ltrans.o
 .text.unlikely.InternalHiiCreateOpCodeExtended
                0x0000000000000000        0x0 /tmp/ccih1Te5.ltrans9.ltrans.o
 .text.unlikely.InternalHiiCreateOpCode
                0x0000000000000000        0x0 /tmp/ccih1Te5.ltrans9.ltrans.o
 .text.unlikely.HiiFreeOpCodeHandle
                0x0000000000000000        0x0 /tmp/ccih1Te5.ltrans9.ltrans.o
 .text.unlikely.HiiAllocateOpCodeHandle
                0x0000000000000000        0x0 /tmp/ccih1Te5.ltrans9.ltrans.o
 .text.unlikely.HiiValidateSettings
                0x0000000000000000        0x0 /tmp/ccih1Te5.ltrans9.ltrans.o
 .rodata._gUefiDriverRevision
                0x0000000000000000        0x4 /tmp/ccih1Te5.ltrans9.ltrans.o
 .comment       0x0000000000000000       0x2e /tmp/ccih1Te5.ltrans9.ltrans.o
 .note.GNU-stack
                0x0000000000000000        0x0 /tmp/ccih1Te5.ltrans9.ltrans.o
 .text          0x0000000000000000        0x0 /tmp/ccih1Te5.ltrans10.ltrans.o
 .data          0x0000000000000000        0x0 /tmp/ccih1Te5.ltrans10.ltrans.o
 .bss           0x0000000000000000        0x0 /tmp/ccih1Te5.ltrans10.ltrans.o
 .text.unlikely.InternalAllocatePool.constprop.41
                0x0000000000000000        0x0 /tmp/ccih1Te5.ltrans10.ltrans.o
 .text.unlikely.CreatePopUp.constprop.35
                0x0000000000000000        0x0 /tmp/ccih1Te5.ltrans10.ltrans.o
 .text.unlikely.HiiUpdateForm.constprop.33
                0x0000000000000000        0x0 /tmp/ccih1Te5.ltrans10.ltrans.o
 .comment       0x0000000000000000       0x2e /tmp/ccih1Te5.ltrans10.ltrans.o
 .note.GNU-stack
                0x0000000000000000        0x0 /tmp/ccih1Te5.ltrans10.ltrans.o
 .text          0x0000000000000000        0x0 /tmp/ccih1Te5.ltrans11.ltrans.o
 .data          0x0000000000000000        0x0 /tmp/ccih1Te5.ltrans11.ltrans.o
 .bss           0x0000000000000000        0x0 /tmp/ccih1Te5.ltrans11.ltrans.o
 .text.unlikely.GetBestLanguage.constprop.17
                0x0000000000000000        0x0 /tmp/ccih1Te5.ltrans11.ltrans.o
 .text.unlikely.HiiCreateGuidOpCode.constprop.18
                0x0000000000000000        0x0 /tmp/ccih1Te5.ltrans11.ltrans.o
 .text.unlikely.HiiGetStringEx.constprop.14
                0x0000000000000000        0x0 /tmp/ccih1Te5.ltrans11.ltrans.o
 .text.unlikely.UnicodeValueToStringS.constprop.11
                0x0000000000000000        0x0 /tmp/ccih1Te5.ltrans11.ltrans.o
 .comment       0x0000000000000000       0x2e /tmp/ccih1Te5.ltrans11.ltrans.o
 .note.GNU-stack
                0x0000000000000000        0x0 /tmp/ccih1Te5.ltrans11.ltrans.o
 .text          0x0000000000000000        0x0 /tmp/ccih1Te5.ltrans12.ltrans.o
 .data          0x0000000000000000        0x0 /tmp/ccih1Te5.ltrans12.ltrans.o
 .bss           0x0000000000000000        0x0 /tmp/ccih1Te5.ltrans12.ltrans.o
 .text.unlikely.CompareMem
                0x0000000000000000        0x0 /tmp/ccih1Te5.ltrans12.ltrans.o
 .text.unlikely.ZeroMem
                0x0000000000000000        0x0 /tmp/ccih1Te5.ltrans12.ltrans.o
 .text.unlikely.GetValueOfNumber.part.1.lto_priv.46
                0x0000000000000000        0x0 /tmp/ccih1Te5.ltrans12.ltrans.o
 .text.unlikely.DriverSampleUnload
                0x0000000000000000        0x0 /tmp/ccih1Te5.ltrans12.ltrans.o
 .comment       0x0000000000000000       0x2e /tmp/ccih1Te5.ltrans12.ltrans.o
 .note.GNU-stack
                0x0000000000000000        0x0 /tmp/ccih1Te5.ltrans12.ltrans.o
 .text          0x0000000000000000        0x0 /tmp/ccih1Te5.ltrans13.ltrans.o
 .data          0x0000000000000000        0x0 /tmp/ccih1Te5.ltrans13.ltrans.o
 .bss           0x0000000000000000        0x0 /tmp/ccih1Te5.ltrans13.ltrans.o
 .text.unlikely.InternalHiiGetValueOfNumber
                0x0000000000000000        0x0 /tmp/ccih1Te5.ltrans13.ltrans.o
 .text.unlikely.GetValueFromRequest
                0x0000000000000000        0x0 /tmp/ccih1Te5.ltrans13.ltrans.o
 .text.unlikely.BlockArrayCheck
                0x0000000000000000        0x0 /tmp/ccih1Te5.ltrans13.ltrans.o
 .text.unlikely.HiiRemovePackages
                0x0000000000000000        0x0 /tmp/ccih1Te5.ltrans13.ltrans.o
 .text.unlikely.HiiAddPackages
                0x0000000000000000        0x0 /tmp/ccih1Te5.ltrans13.ltrans.o
 .comment       0x0000000000000000       0x2e /tmp/ccih1Te5.ltrans13.ltrans.o
 .note.GNU-stack
                0x0000000000000000        0x0 /tmp/ccih1Te5.ltrans13.ltrans.o
 .text          0x0000000000000000      0x204 /home/hcj/UEFIWorkspace/Build/MdeModule/DEBUG_GCC5/X64/MdePkg/Library/BaseLib/BaseLib/OUTPUT/BaseLib.lib(Thunk16.obj)
 .data          0x0000000000000000        0xa /home/hcj/UEFIWorkspace/Build/MdeModule/DEBUG_GCC5/X64/MdePkg/Library/BaseLib/BaseLib/OUTPUT/BaseLib.lib(Thunk16.obj)
 .text          0x0000000000000000       0x2f /home/hcj/UEFIWorkspace/Build/MdeModule/DEBUG_GCC5/X64/MdePkg/Library/BaseLib/BaseLib/OUTPUT/BaseLib.lib(CpuIdEx.obj)
 .text          0x0000000000000000       0x27 /home/hcj/UEFIWorkspace/Build/MdeModule/DEBUG_GCC5/X64/MdePkg/Library/BaseLib/BaseLib/OUTPUT/BaseLib.lib(CpuId.obj)
 .text          0x0000000000000000       0xac /home/hcj/UEFIWorkspace/Build/MdeModule/DEBUG_GCC5/X64/MdePkg/Library/BaseLib/BaseLib/OUTPUT/BaseLib.lib(LongJump.obj)
 .text          0x0000000000000000       0xc2 /home/hcj/UEFIWorkspace/Build/MdeModule/DEBUG_GCC5/X64/MdePkg/Library/BaseLib/BaseLib/OUTPUT/BaseLib.lib(SetJump.obj)
 .text          0x0000000000000000        0xf /home/hcj/UEFIWorkspace/Build/MdeModule/DEBUG_GCC5/X64/MdePkg/Library/BaseLib/BaseLib/OUTPUT/BaseLib.lib(SwitchStack.obj)
 .text          0x0000000000000000       0x13 /home/hcj/UEFIWorkspace/Build/MdeModule/DEBUG_GCC5/X64/MdePkg/Library/BaseLib/BaseLib/OUTPUT/BaseLib.lib(EnableCache.obj)
 .text          0x0000000000000000       0x13 /home/hcj/UEFIWorkspace/Build/MdeModule/DEBUG_GCC5/X64/MdePkg/Library/BaseLib/BaseLib/OUTPUT/BaseLib.lib(DisableCache.obj)
 .text          0x0000000000000000        0x6 /home/hcj/UEFIWorkspace/Build/MdeModule/DEBUG_GCC5/X64/MdePkg/Library/BaseLib/BaseLib/OUTPUT/BaseLib.lib(WriteTr.obj)
 .text          0x0000000000000000        0x4 /home/hcj/UEFIWorkspace/Build/MdeModule/DEBUG_GCC5/X64/MdePkg/Library/BaseLib/BaseLib/OUTPUT/BaseLib.lib(Lfence.obj)
 .text          0x0000000000000000        0x3 /home/hcj/UEFIWorkspace/Build/MdeModule/DEBUG_GCC5/X64/MdePkg/Library/BaseLib/BaseLib/OUTPUT/BaseLib.lib(EnableDisableInterrupts.obj)
 .text          0x0000000000000000       0x61 /home/hcj/UEFIWorkspace/Build/MdeModule/DEBUG_GCC5/X64/MdePkg/Library/BaseLib/BaseLib/OUTPUT/BaseLib.lib(DisablePaging64.obj)
 .text          0x0000000000000000       0x1b /home/hcj/UEFIWorkspace/Build/MdeModule/DEBUG_GCC5/X64/MdePkg/Library/BaseLib/BaseLib/OUTPUT/BaseLib.lib(Pvalidate.obj)
 .text          0x0000000000000000       0x36 /home/hcj/UEFIWorkspace/Build/MdeModule/DEBUG_GCC5/X64/MdePkg/Library/BaseLib/BaseLib/OUTPUT/BaseLib.lib(RdRand.obj)
 .text          0x0000000000000000        0xe /home/hcj/UEFIWorkspace/Build/MdeModule/DEBUG_GCC5/X64/MdePkg/Library/BaseLib/BaseLib/OUTPUT/BaseLib.lib(RmpAdjust.obj)
 .text          0x0000000000000000        0xb /home/hcj/UEFIWorkspace/Build/MdeModule/DEBUG_GCC5/X64/MdePkg/Library/BaseLib/BaseLib/OUTPUT/BaseLib.lib(XGetBv.obj)
 .text          0x0000000000000000        0xb /home/hcj/UEFIWorkspace/Build/MdeModule/DEBUG_GCC5/X64/MdePkg/Library/BaseLib/BaseLib/OUTPUT/BaseLib.lib(XSetBv.obj)
 .text          0x0000000000000000        0x5 /home/hcj/UEFIWorkspace/Build/MdeModule/DEBUG_GCC5/X64/MdePkg/Library/BaseLib/BaseLib/OUTPUT/BaseLib.lib(VmgExit.obj)

Memory Configuration

Name             Origin             Length             Attributes
*default*        0x0000000000000000 0xffffffffffffffff

Linker script and memory map

LOAD /tmp/ccih1Te5.ltrans0.ltrans.o
LOAD /tmp/ccih1Te5.ltrans1.ltrans.o
LOAD /tmp/ccih1Te5.ltrans2.ltrans.o
LOAD /tmp/ccih1Te5.ltrans3.ltrans.o
LOAD /tmp/ccih1Te5.ltrans4.ltrans.o
LOAD /tmp/ccih1Te5.ltrans5.ltrans.o
LOAD /tmp/ccih1Te5.ltrans6.ltrans.o
LOAD /tmp/ccih1Te5.ltrans7.ltrans.o
LOAD /tmp/ccih1Te5.ltrans8.ltrans.o
LOAD /tmp/ccih1Te5.ltrans9.ltrans.o
LOAD /tmp/ccih1Te5.ltrans10.ltrans.o
LOAD /tmp/ccih1Te5.ltrans11.ltrans.o
LOAD /tmp/ccih1Te5.ltrans12.ltrans.o
LOAD /tmp/ccih1Te5.ltrans13.ltrans.o
START GROUP
LOAD /home/hcj/UEFIWorkspace/Build/MdeModule/DEBUG_GCC5/X64/MdeModulePkg/Universal/DriverSampleDxe/DriverSampleDxe/OUTPUT/DriverSample.lib
LOAD /home/hcj/UEFIWorkspace/Build/MdeModule/DEBUG_GCC5/X64/MdePkg/Library/RegisterFilterLibNull/RegisterFilterLibNull/OUTPUT/FilterLibNull.lib
LOAD /home/hcj/UEFIWorkspace/Build/MdeModule/DEBUG_GCC5/X64/MdePkg/Library/BasePcdLibNull/BasePcdLibNull/OUTPUT/BasePcdLibNull.lib
LOAD /home/hcj/UEFIWorkspace/Build/MdeModule/DEBUG_GCC5/X64/MdePkg/Library/BaseDebugLibNull/BaseDebugLibNull/OUTPUT/BaseDebugLibNull.lib
LOAD /home/hcj/UEFIWorkspace/Build/MdeModule/DEBUG_GCC5/X64/MdePkg/Library/BaseMemoryLib/BaseMemoryLib/OUTPUT/BaseMemoryLib.lib
LOAD /home/hcj/UEFIWorkspace/Build/MdeModule/DEBUG_GCC5/X64/MdePkg/Library/BaseLib/BaseLib/OUTPUT/BaseLib.lib
LOAD /home/hcj/UEFIWorkspace/Build/MdeModule/DEBUG_GCC5/X64/MdePkg/Library/UefiBootServicesTableLib/UefiBootServicesTableLib/OUTPUT/UefiBootServicesTableLib.lib
LOAD /home/hcj/UEFIWorkspace/Build/MdeModule/DEBUG_GCC5/X64/MdePkg/Library/BasePrintLib/BasePrintLib/OUTPUT/BasePrintLib.lib
LOAD /home/hcj/UEFIWorkspace/Build/MdeModule/DEBUG_GCC5/X64/MdePkg/Library/UefiMemoryAllocationLib/UefiMemoryAllocationLib/OUTPUT/UefiMemoryAllocationLib.lib
LOAD /home/hcj/UEFIWorkspace/Build/MdeModule/DEBUG_GCC5/X64/MdePkg/Library/UefiDevicePathLib/UefiDevicePathLib/OUTPUT/UefiDevicePathLib.lib
LOAD /home/hcj/UEFIWorkspace/Build/MdeModule/DEBUG_GCC5/X64/MdePkg/Library/UefiRuntimeServicesTableLib/UefiRuntimeServicesTableLib/OUTPUT/UefiRuntimeServicesTableLib.lib
LOAD /home/hcj/UEFIWorkspace/Build/MdeModule/DEBUG_GCC5/X64/MdeModulePkg/Library/UefiHiiServicesLib/UefiHiiServicesLib/OUTPUT/UefiHiiServicesLib.lib
LOAD /home/hcj/UEFIWorkspace/Build/MdeModule/DEBUG_GCC5/X64/MdePkg/Library/UefiLib/UefiLib/OUTPUT/UefiLib.lib
LOAD /home/hcj/UEFIWorkspace/Build/MdeModule/DEBUG_GCC5/X64/MdePkg/Library/UefiDriverEntryPoint/UefiDriverEntryPoint/OUTPUT/UefiDriverEntryPoint.lib
LOAD /home/hcj/UEFIWorkspace/Build/MdeModule/DEBUG_GCC5/X64/MdeModulePkg/Library/UefiHiiLib/UefiHiiLib/OUTPUT/UefiHiiLib.lib
END GROUP
                0x0000000000000228                PECOFF_HEADER_SIZE = 0x228
                0x0000000000000228                . = PECOFF_HEADER_SIZE

.text           0x0000000000000240     0xaee4
 *(.text .text.* .stub .gnu.linkonce.t.*)
 .text.InternalHiiIfrValueAction
                0x0000000000000240     0x17e4 /tmp/ccih1Te5.ltrans0.ltrans.o
                0x0000000000000240                InternalHiiIfrValueAction
 .text._ModuleEntryPoint
                0x0000000000001a24      0xae6 /tmp/ccih1Te5.ltrans1.ltrans.o
                0x0000000000001a24                _ModuleEntryPoint
 .text.DriverCallback
                0x000000000000250a      0xbe3 /tmp/ccih1Te5.ltrans2.ltrans.o
                0x000000000000250a                DriverCallback
 .text.UefiDevicePathLibCatPrint
                0x00000000000030ed      0x13f /tmp/ccih1Te5.ltrans3.ltrans.o
                0x00000000000030ed                UefiDevicePathLibCatPrint
 .text.DevPathToTextUsbClass
                0x000000000000322c      0x1ad /tmp/ccih1Te5.ltrans3.ltrans.o
                0x000000000000322c                DevPathToTextUsbClass
 .text.DevPathToTextLogicalUnit
                0x00000000000033d9       0x1d /tmp/ccih1Te5.ltrans3.ltrans.o
                0x00000000000033d9                DevPathToTextLogicalUnit
 .text.DevPathToTextUsb
                0x00000000000033f6       0x22 /tmp/ccih1Te5.ltrans3.ltrans.o
                0x00000000000033f6                DevPathToTextUsb
 .text.DevPathToText1394
                0x0000000000003418       0x1c /tmp/ccih1Te5.ltrans3.ltrans.o
                0x0000000000003418                DevPathToText1394
 .text.DevPathToTextEmmc
                0x0000000000003434       0x1d /tmp/ccih1Te5.ltrans3.ltrans.o
                0x0000000000003434                DevPathToTextEmmc
 .text.DevPathToTextSd
                0x0000000000003451       0x1d /tmp/ccih1Te5.ltrans3.ltrans.o
                0x0000000000003451                DevPathToTextSd
 .text.DevPathToTextUfs
                0x000000000000346e       0x22 /tmp/ccih1Te5.ltrans3.ltrans.o
                0x000000000000346e                DevPathToTextUfs
 .text.DevPathToTextNVMe
                0x0000000000003490       0x48 /tmp/ccih1Te5.ltrans3.ltrans.o
                0x0000000000003490                DevPathToTextNVMe
 .text.DevPathToTextSasEx
                0x00000000000034d8      0x1a0 /tmp/ccih1Te5.ltrans3.ltrans.o
                0x00000000000034d8                DevPathToTextSasEx
 .text.DevPathToTextFibreEx
                0x0000000000003678       0xa4 /tmp/ccih1Te5.ltrans3.ltrans.o
                0x0000000000003678                DevPathToTextFibreEx
 .text.DevPathToTextFibre
                0x000000000000371c       0x20 /tmp/ccih1Te5.ltrans3.ltrans.o
                0x000000000000371c                DevPathToTextFibre
 .text.DevPathToTextScsi
                0x000000000000373c       0x22 /tmp/ccih1Te5.ltrans3.ltrans.o
                0x000000000000373c                DevPathToTextScsi
 .text.DevPathToTextAtapi
                0x000000000000375e       0x6b /tmp/ccih1Te5.ltrans3.ltrans.o
                0x000000000000375e                DevPathToTextAtapi
 .text.DevPathToTextAcpi
                0x00000000000037c9       0xc6 /tmp/ccih1Te5.ltrans3.ltrans.o
                0x00000000000037c9                DevPathToTextAcpi
 .text.DevPathToTextBmc
                0x000000000000388f       0x33 /tmp/ccih1Te5.ltrans3.ltrans.o
                0x000000000000388f                DevPathToTextBmc
 .text.DevPathToTextController
                0x00000000000038c2       0x1c /tmp/ccih1Te5.ltrans3.ltrans.o
                0x00000000000038c2                DevPathToTextController
 .text.DevPathToTextMemMap
                0x00000000000038de       0x27 /tmp/ccih1Te5.ltrans3.ltrans.o
                0x00000000000038de                DevPathToTextMemMap
 .text.DevPathToTextPccard
                0x0000000000003905       0x1d /tmp/ccih1Te5.ltrans3.ltrans.o
                0x0000000000003905                DevPathToTextPccard
 .text.DevPathToTextPci
                0x0000000000003922       0x22 /tmp/ccih1Te5.ltrans3.ltrans.o
                0x0000000000003922                DevPathToTextPci
 .text.DevicePathNodeLength
                0x0000000000003944        0x5 /tmp/ccih1Te5.ltrans3.ltrans.o
                0x0000000000003944                DevicePathNodeLength
 .text.DevPathToTextUsbWWID
                0x0000000000003949       0x7d /tmp/ccih1Te5.ltrans3.ltrans.o
                0x0000000000003949                DevPathToTextUsbWWID
 .text.DevPathToTextAcpiAdr
                0x00000000000039c6       0x87 /tmp/ccih1Te5.ltrans3.ltrans.o
                0x00000000000039c6                DevPathToTextAcpiAdr
 .text.NextDevicePathNode
                0x0000000000003a4d       0x11 /tmp/ccih1Te5.ltrans3.ltrans.o
                0x0000000000003a4d                NextDevicePathNode
 .text.DevicePathSubType
                0x0000000000003a5e        0x4 /tmp/ccih1Te5.ltrans3.ltrans.o
                0x0000000000003a5e                DevicePathSubType
 .text.DevicePathType
                0x0000000000003a62        0x3 /tmp/ccih1Te5.ltrans3.ltrans.o
                0x0000000000003a62                DevicePathType
 .text.DevPathToTextVendor
                0x0000000000003a65      0x36a /tmp/ccih1Te5.ltrans3.ltrans.o
                0x0000000000003a65                DevPathToTextVendor
 .text.IsDevicePathEnd
                0x0000000000003dcf       0x22 /tmp/ccih1Te5.ltrans3.ltrans.o
                0x0000000000003dcf                IsDevicePathEnd
 .text.FreePool
                0x0000000000003df1        0xa /tmp/ccih1Te5.ltrans3.ltrans.o
                0x0000000000003df1                FreePool
 .text.AllocateZeroPool
                0x0000000000003dfb       0xf9 /tmp/ccih1Te5.ltrans3.ltrans.o
                0x0000000000003dfb                AllocateZeroPool
 .text.UnicodeSPrint
                0x0000000000003ef4       0x1d /tmp/ccih1Te5.ltrans3.ltrans.o
                0x0000000000003ef4                UnicodeSPrint
 .text.DevPathToTextAcpiEx
                0x0000000000003f11      0x2ba /tmp/ccih1Te5.ltrans3.ltrans.o
                0x0000000000003f11                DevPathToTextAcpiEx
 .text.InternalHiiBrowserCallback.constprop.25
                0x00000000000041cb      0x10b /tmp/ccih1Te5.ltrans4.ltrans.o
 .text.InternalReallocatePool.constprop.32
                0x00000000000042d6       0x70 /tmp/ccih1Te5.ltrans4.ltrans.o
                0x00000000000042d6                InternalReallocatePool.constprop.32
 .text.BasePrintLibSPrintMarker.constprop.23
                0x0000000000004346      0xe96 /tmp/ccih1Te5.ltrans4.ltrans.o
                0x0000000000004346                BasePrintLibSPrintMarker.constprop.23
 .text.BasePrintLibSPrint.constprop.24
                0x00000000000051dc       0xb8 /tmp/ccih1Te5.ltrans4.ltrans.o
 .text.HiiSetBrowserData.constprop.22
                0x0000000000005294       0xd5 /tmp/ccih1Te5.ltrans4.ltrans.o
                0x0000000000005294                HiiSetBrowserData.constprop.22
 .text.HiiGetBrowserData.constprop.21
                0x0000000000005369       0xc9 /tmp/ccih1Te5.ltrans4.ltrans.o
                0x0000000000005369                HiiGetBrowserData.constprop.21
 .text.HiiCreateOneOfOptionOpCode.constprop.20
                0x0000000000005432       0x63 /tmp/ccih1Te5.ltrans4.ltrans.o
                0x0000000000005432                HiiCreateOneOfOptionOpCode.constprop.20
 .text.HiiCreateActionOpCode.constprop.19
                0x0000000000005495       0x6e /tmp/ccih1Te5.ltrans4.ltrans.o
                0x0000000000005495                HiiCreateActionOpCode.constprop.19
 .text.StrnLenS
                0x0000000000005503       0x27 /tmp/ccih1Te5.ltrans5.ltrans.o
                0x0000000000005503                StrnLenS
 .text.InternalSafeStringNoStrOverlap
                0x000000000000552a       0x29 /tmp/ccih1Te5.ltrans5.ltrans.o
                0x000000000000552a                InternalSafeStringNoStrOverlap
 .text.StrnCpyS
                0x0000000000005553      0x150 /tmp/ccih1Te5.ltrans5.ltrans.o
                0x0000000000005553                StrnCpyS
 .text.StrCpyS  0x00000000000056a3      0x12a /tmp/ccih1Te5.ltrans5.ltrans.o
                0x00000000000056a3                StrCpyS
 .text.IsListEmpty
                0x00000000000057cd        0x7 /tmp/ccih1Te5.ltrans5.ltrans.o
                0x00000000000057cd                IsListEmpty
 .text.RemoveEntryList
                0x00000000000057d4       0x19 /tmp/ccih1Te5.ltrans5.ltrans.o
                0x00000000000057d4                RemoveEntryList
 .text.InsertTailList
                0x00000000000057ed       0x16 /tmp/ccih1Te5.ltrans5.ltrans.o
                0x00000000000057ed                InsertTailList
 .text.BitFieldRead32
                0x0000000000005803       0x1b /tmp/ccih1Te5.ltrans5.ltrans.o
                0x0000000000005803                BitFieldRead32
 .text.CompareGuid
                0x000000000000581e       0x4d /tmp/ccih1Te5.ltrans5.ltrans.o
                0x000000000000581e                CompareGuid
 .text.CopyGuid
                0x000000000000586b       0x2e /tmp/ccih1Te5.ltrans5.ltrans.o
                0x000000000000586b                CopyGuid
 .text.CopyMem  0x0000000000005899      0x201 /tmp/ccih1Te5.ltrans5.ltrans.o
                0x0000000000005899                CopyMem
 .text.SetMem16.part.0.lto_priv.43
                0x0000000000005a9a       0x17 /tmp/ccih1Te5.ltrans5.ltrans.o
                0x0000000000005a9a                SetMem16.part.0.lto_priv.43
 .text._DriverUnloadHandler
                0x0000000000005ab1        0x5 /tmp/ccih1Te5.ltrans6.ltrans.o
                0x0000000000005ab1                _DriverUnloadHandler
 .text.DevPathToTextEndInstance
                0x0000000000005ab6       0x18 /tmp/ccih1Te5.ltrans6.ltrans.o
                0x0000000000005ab6                DevPathToTextEndInstance
 .text.DevPathToTextBBS
                0x0000000000005ace       0xce /tmp/ccih1Te5.ltrans6.ltrans.o
                0x0000000000005ace                DevPathToTextBBS
 .text.DevPathRelativeOffsetRange
                0x0000000000005b9c       0x20 /tmp/ccih1Te5.ltrans6.ltrans.o
                0x0000000000005b9c                DevPathRelativeOffsetRange
 .text.DevPathToTextFvFile
                0x0000000000005bbc       0x1c /tmp/ccih1Te5.ltrans6.ltrans.o
                0x0000000000005bbc                DevPathToTextFvFile
 .text.DevPathToTextFv
                0x0000000000005bd8       0x1c /tmp/ccih1Te5.ltrans6.ltrans.o
                0x0000000000005bd8                DevPathToTextFv
 .text.DevPathToTextMediaProtocol
                0x0000000000005bf4       0x1c /tmp/ccih1Te5.ltrans6.ltrans.o
                0x0000000000005bf4                DevPathToTextMediaProtocol
 .text.DevPathToTextFilePath
                0x0000000000005c10       0x1c /tmp/ccih1Te5.ltrans6.ltrans.o
                0x0000000000005c10                DevPathToTextFilePath
 .text.DevPathToTextCDROM
                0x0000000000005c2c       0x40 /tmp/ccih1Te5.ltrans6.ltrans.o
                0x0000000000005c2c                DevPathToTextCDROM
 .text.DevPathToTextHardDrive
                0x0000000000005c6c       0x96 /tmp/ccih1Te5.ltrans6.ltrans.o
                0x0000000000005c6c                DevPathToTextHardDrive
 .text.DevPathToTextBluetoothLE
                0x0000000000005d02       0x3f /tmp/ccih1Te5.ltrans6.ltrans.o
                0x0000000000005d02                DevPathToTextBluetoothLE
 .text.DevPathToTextBluetooth
                0x0000000000005d41       0x37 /tmp/ccih1Te5.ltrans6.ltrans.o
                0x0000000000005d41                DevPathToTextBluetooth
 .text.DevPathToTextVlan
                0x0000000000005d78       0x1d /tmp/ccih1Te5.ltrans6.ltrans.o
                0x0000000000005d78                DevPathToTextVlan
 .text.DevPathToTextiSCSI
                0x0000000000005d95      0x121 /tmp/ccih1Te5.ltrans6.ltrans.o
                0x0000000000005d95                DevPathToTextiSCSI
 .text.DevPathToTextUart
                0x0000000000005eb6      0x107 /tmp/ccih1Te5.ltrans6.ltrans.o
                0x0000000000005eb6                DevPathToTextUart
 .text.DevPathToTextInfiniBand
                0x0000000000005fbd       0x2d /tmp/ccih1Te5.ltrans6.ltrans.o
                0x0000000000005fbd                DevPathToTextInfiniBand
 .text.CatIPv6Address
                0x0000000000005fea       0x6b /tmp/ccih1Te5.ltrans6.ltrans.o
 .text.CatIPv4Address
                0x0000000000006055       0x2c /tmp/ccih1Te5.ltrans6.ltrans.o
 .text.CatNetworkProtocol
                0x0000000000006081       0x49 /tmp/ccih1Te5.ltrans6.ltrans.o
 .text.DevPathToTextMacAddr
                0x00000000000060ca       0x7c /tmp/ccih1Te5.ltrans6.ltrans.o
                0x00000000000060ca                DevPathToTextMacAddr
 .text.DevPathToTextI2O
                0x0000000000006146       0x1c /tmp/ccih1Te5.ltrans6.ltrans.o
                0x0000000000006146                DevPathToTextI2O
 .text.DevPathToTextSata
                0x0000000000006162       0x2b /tmp/ccih1Te5.ltrans6.ltrans.o
                0x0000000000006162                DevPathToTextSata
 .text.DevPathToTextDns
                0x000000000000618d       0xa5 /tmp/ccih1Te5.ltrans6.ltrans.o
                0x000000000000618d                DevPathToTextDns
 .text.DevPathToTextIPv6
                0x0000000000006232      0x103 /tmp/ccih1Te5.ltrans6.ltrans.o
                0x0000000000006232                DevPathToTextIPv6
 .text.DevPathToTextIPv4
                0x0000000000006335      0x112 /tmp/ccih1Te5.ltrans6.ltrans.o
                0x0000000000006335                DevPathToTextIPv4
 .text.DevPathToTextNodeGeneric
                0x0000000000006447      0x117 /tmp/ccih1Te5.ltrans6.ltrans.o
                0x0000000000006447                DevPathToTextNodeGeneric
 .text.DevPathToTextRamDisk
                0x000000000000655e      0x122 /tmp/ccih1Te5.ltrans6.ltrans.o
                0x000000000000655e                DevPathToTextRamDisk
 .text.DevPathToTextWiFi
                0x0000000000006680       0x42 /tmp/ccih1Te5.ltrans6.ltrans.o
                0x0000000000006680                DevPathToTextWiFi
 .text.DevPathToTextUri
                0x00000000000066c2       0x74 /tmp/ccih1Te5.ltrans6.ltrans.o
                0x00000000000066c2                DevPathToTextUri
 .text.ProcessLibraryDestructorList
                0x0000000000006736        0x1 /tmp/ccih1Te5.ltrans6.ltrans.o
                0x0000000000006736                EfiEventEmptyFunction
                0x0000000000006736                ProcessLibraryDestructorList
 .text.UefiLibGetStringWidth
                0x0000000000006737       0x71 /tmp/ccih1Te5.ltrans6.ltrans.o
                0x0000000000006737                UefiLibGetStringWidth
 .text.UnicodeVSPrint
                0x00000000000067a8       0xaa /tmp/ccih1Te5.ltrans7.ltrans.o
                0x00000000000067a8                UnicodeVSPrint
 .text.BasePrintLibValueToString
                0x0000000000006852       0x25 /tmp/ccih1Te5.ltrans7.ltrans.o
                0x0000000000006852                BasePrintLibValueToString
 .text.BasePrintLibFillBuffer
                0x0000000000006877       0x2e /tmp/ccih1Te5.ltrans7.ltrans.o
                0x0000000000006877                BasePrintLibFillBuffer
 .text.ReadUnaligned64
                0x00000000000068a5        0x4 /tmp/ccih1Te5.ltrans7.ltrans.o
                0x00000000000068a5                ReadUnaligned64
 .text.AsciiStrLen
                0x00000000000068a9        0xe /tmp/ccih1Te5.ltrans7.ltrans.o
                0x00000000000068a9                AsciiStrLen
 .text.AsciiStrnCmp.part.4.lto_priv.44
                0x00000000000068b7       0x47 /tmp/ccih1Te5.ltrans7.ltrans.o
                0x00000000000068b7                AsciiStrnCmp.part.4.lto_priv.44
 .text.StrHexToUint64
                0x00000000000068fe       0xfc /tmp/ccih1Te5.ltrans7.ltrans.o
                0x00000000000068fe                StrHexToUint64
 .text.StrLen   0x00000000000069fa        0xf /tmp/ccih1Te5.ltrans7.ltrans.o
                0x00000000000069fa                StrLen
 .text.StrSize  0x0000000000006a09       0x13 /tmp/ccih1Te5.ltrans7.ltrans.o
                0x0000000000006a09                StrSize
 .text.StrStr   0x0000000000006a1c       0x44 /tmp/ccih1Te5.ltrans7.ltrans.o
                0x0000000000006a1c                StrStr
 .text.StrnCmp  0x0000000000006a60       0x43 /tmp/ccih1Te5.ltrans7.ltrans.o
                0x0000000000006a60                StrnCmp
 .text.AsciiStrnLenS
                0x0000000000006aa3       0x26 /tmp/ccih1Te5.ltrans7.ltrans.o
                0x0000000000006aa3                AsciiStrnLenS
 .text.StrCatS  0x0000000000006ac9      0x151 /tmp/ccih1Te5.ltrans7.ltrans.o
                0x0000000000006ac9                StrCatS
 .text.NotificationFunction
                0x0000000000006c1a       0x1c /tmp/ccih1Te5.ltrans8.ltrans.o
                0x0000000000006c1a                NotificationFunction
 .text.LoadNameValueNames
                0x0000000000006c36       0x52 /tmp/ccih1Te5.ltrans8.ltrans.o
 .text.RouteConfig
                0x0000000000006c88      0x449 /tmp/ccih1Te5.ltrans8.ltrans.o
                0x0000000000006c88                RouteConfig
 .text.ExtractConfig
                0x00000000000070d1      0x990 /tmp/ccih1Te5.ltrans8.ltrans.o
                0x00000000000070d1                ExtractConfig
 .text.InternalHiiGrowOpCodeHandle
                0x0000000000007a61       0xdf /tmp/ccih1Te5.ltrans9.ltrans.o
 .text.InternalHiiCompareSubString
                0x0000000000007b40       0x96 /tmp/ccih1Te5.ltrans9.ltrans.o
 .text.HiiConstructConfigHdr.constprop.8
                0x0000000000007bd6      0x2e7 /tmp/ccih1Te5.ltrans9.ltrans.o
                0x0000000000007bd6                HiiConstructConfigHdr.constprop.8
 .text.HiiIsConfigHdrMatch.constprop.7
                0x0000000000007ebd       0x7c /tmp/ccih1Te5.ltrans9.ltrans.o
                0x0000000000007ebd                HiiIsConfigHdrMatch.constprop.7
 .text.InternalAllocateCopyPool.constprop.3
                0x0000000000007f39       0x35 /tmp/ccih1Te5.ltrans9.ltrans.o
                0x0000000000007f39                InternalAllocateCopyPool.constprop.3
 .text.HiiGetSupportedLanguages
                0x0000000000007f6e       0x81 /tmp/ccih1Te5.ltrans9.ltrans.o
                0x0000000000007f6e                HiiGetSupportedLanguages
 .text.HiiSetString.constprop.2
                0x0000000000007fef      0x11f /tmp/ccih1Te5.ltrans9.ltrans.o
                0x0000000000007fef                HiiSetString.constprop.2
 .text.InternalHiiGetBufferFromString.part.0.lto_priv.45
                0x000000000000810e      0x186 /tmp/ccih1Te5.ltrans9.ltrans.o
                0x000000000000810e                InternalHiiGetBufferFromString.part.0.lto_priv.45
 .text.InternalHiiAppendOpCodes
                0x0000000000008294       0x2e /tmp/ccih1Te5.ltrans9.ltrans.o
                0x0000000000008294                InternalHiiAppendOpCodes
 .text.InternalHiiCreateOpCodeExtended
                0x00000000000082c2       0x46 /tmp/ccih1Te5.ltrans9.ltrans.o
                0x00000000000082c2                InternalHiiCreateOpCodeExtended
 .text.InternalHiiCreateOpCode
                0x0000000000008308       0x23 /tmp/ccih1Te5.ltrans9.ltrans.o
                0x0000000000008308                InternalHiiCreateOpCode
 .text.HiiFreeOpCodeHandle
                0x000000000000832b       0x22 /tmp/ccih1Te5.ltrans9.ltrans.o
                0x000000000000832b                HiiFreeOpCodeHandle
 .text.HiiAllocateOpCodeHandle
                0x000000000000834d       0xe4 /tmp/ccih1Te5.ltrans9.ltrans.o
                0x000000000000834d                HiiAllocateOpCodeHandle
 .text.HiiValidateSettings
                0x0000000000008431        0xd /tmp/ccih1Te5.ltrans9.ltrans.o
                0x0000000000008431                HiiValidateSettings
 .text.InternalAllocatePool.constprop.41
                0x000000000000843e       0x37 /tmp/ccih1Te5.ltrans10.ltrans.o
                0x000000000000843e                InternalAllocatePool.constprop.41
 .text.CreatePopUp.constprop.35
                0x0000000000008475      0x465 /tmp/ccih1Te5.ltrans10.ltrans.o
                0x0000000000008475                CreatePopUp.constprop.35
 .text.HiiUpdateForm.constprop.33
                0x00000000000088da      0x58e /tmp/ccih1Te5.ltrans10.ltrans.o
                0x00000000000088da                HiiUpdateForm.constprop.33
 .text.GetBestLanguage.constprop.17
                0x0000000000008e68       0xeb /tmp/ccih1Te5.ltrans11.ltrans.o
 .text.HiiCreateGuidOpCode.constprop.18
                0x0000000000008f53       0x5a /tmp/ccih1Te5.ltrans11.ltrans.o
                0x0000000000008f53                HiiCreateGuidOpCode.constprop.18
 .text.HiiGetStringEx.constprop.14
                0x0000000000008fad      0x252 /tmp/ccih1Te5.ltrans11.ltrans.o
                0x0000000000008fad                HiiGetStringEx.constprop.14
 .text.UnicodeValueToStringS.constprop.11
                0x00000000000091ff      0x1ed /tmp/ccih1Te5.ltrans11.ltrans.o
                0x00000000000091ff                UnicodeValueToStringS.constprop.11
 .text.CompareMem
                0x00000000000093ec       0x31 /tmp/ccih1Te5.ltrans12.ltrans.o
                0x00000000000093ec                CompareMem
 .text.ZeroMem  0x000000000000941d       0x9a /tmp/ccih1Te5.ltrans12.ltrans.o
                0x000000000000941d                ZeroMem
 .text.GetValueOfNumber.part.1.lto_priv.46
                0x00000000000094b7      0x134 /tmp/ccih1Te5.ltrans12.ltrans.o
                0x00000000000094b7                GetValueOfNumber.part.1.lto_priv.46
 .text.DriverSampleUnload
                0x00000000000095eb      0x12b /tmp/ccih1Te5.ltrans12.ltrans.o
                0x00000000000095eb                DriverSampleUnload
 .text.InternalHiiGetValueOfNumber
                0x0000000000009716       0xb4 /tmp/ccih1Te5.ltrans13.ltrans.o
                0x0000000000009716                InternalHiiGetValueOfNumber
 .text.GetValueFromRequest
                0x00000000000097ca       0x9b /tmp/ccih1Te5.ltrans13.ltrans.o
                0x00000000000097ca                GetValueFromRequest
 .text.BlockArrayCheck
                0x0000000000009865       0x3b /tmp/ccih1Te5.ltrans13.ltrans.o
                0x0000000000009865                BlockArrayCheck
 .text.HiiRemovePackages
                0x00000000000098a0        0xd /tmp/ccih1Te5.ltrans13.ltrans.o
                0x00000000000098a0                HiiRemovePackages
 .text.HiiAddPackages
                0x00000000000098ad       0xf8 /tmp/ccih1Te5.ltrans13.ltrans.o
                0x00000000000098ad                HiiAddPackages
 *(.rodata .rodata.* .gnu.linkonce.r.*)
 *fill*         0x00000000000099a5        0x1 
 .rodata.str2.2
                0x00000000000099a6       0x7c /tmp/ccih1Te5.ltrans0.ltrans.o
                                         0x88 (size before relaxing)
 .rodata.str2.2
                0x0000000000009a22       0x14 /tmp/ccih1Te5.ltrans1.ltrans.o
 .rodata.str2.2
                0x0000000000009a36      0x1f8 /tmp/ccih1Te5.ltrans2.ltrans.o
                                        0x20a (size before relaxing)
 .rodata.str2.2
                0x0000000000009c2e      0x926 /tmp/ccih1Te5.ltrans3.ltrans.o
                                        0x992 (size before relaxing)
 .rodata.str1.1
                0x000000000000a554       0x7b /tmp/ccih1Te5.ltrans4.ltrans.o
 *fill*         0x000000000000a5cf        0x1 
 .rodata.str2.2
                0x000000000000a5d0       0x3e /tmp/ccih1Te5.ltrans4.ltrans.o
 *fill*         0x000000000000a60e       0x12 
 .rodata.mConfigHdrTemplate
                0x000000000000a620       0x70 /tmp/ccih1Te5.ltrans4.ltrans.o
 *fill*         0x000000000000a690       0x10 
 .rodata.mWarningString
                0x000000000000a6a0       0x96 /tmp/ccih1Te5.ltrans4.ltrans.o
 *fill*         0x000000000000a736        0xa 
 .rodata.mErrorString
                0x000000000000a740      0x2b5 /tmp/ccih1Te5.ltrans4.ltrans.o
 *fill*         0x000000000000a9f5        0x1 
 .rodata.str2.2
                0x000000000000a9f6      0x64c /tmp/ccih1Te5.ltrans6.ltrans.o
                                        0x754 (size before relaxing)
 *fill*         0x000000000000b042        0x2 
 .rodata.DevPathToTextBBS
                0x000000000000b044       0x18 /tmp/ccih1Te5.ltrans6.ltrans.o
 .rodata.CSWTCH.43
                0x000000000000b05c        0x6 /tmp/ccih1Te5.ltrans6.ltrans.o
 *fill*         0x000000000000b062        0xe 
 .rodata.mHexStr
                0x000000000000b070       0x10 /tmp/ccih1Te5.ltrans7.ltrans.o
 .rodata.str2.2
                0x000000000000b080       0x7e /tmp/ccih1Te5.ltrans8.ltrans.o
                                         0xe4 (size before relaxing)
 .rodata.str2.2
                0x000000000000b0fe       0x28 /tmp/ccih1Te5.ltrans9.ltrans.o
 .rodata.str1.1
                0x000000000000b0fe        0x7 /tmp/ccih1Te5.ltrans9.ltrans.o
 .rodata.str2.2
                0x000000000000b105       0x7e /tmp/ccih1Te5.ltrans10.ltrans.o
                                          0x8 (size before relaxing)
 .rodata.str1.1
                0x000000000000b105        0x7 /tmp/ccih1Te5.ltrans11.ltrans.o
                                          0x1 (size before relaxing)
 *fill*         0x000000000000b105        0x1 
 .rodata.str2.2
                0x000000000000b106       0x1a /tmp/ccih1Te5.ltrans11.ltrans.o
 .rodata.mEndOfPakageList
                0x000000000000b120        0x4 /tmp/ccih1Te5.ltrans13.ltrans.o
 *(.got .got.*)
 .got           0x000000000000b124        0x0 DriverSample.obj (symbol from plugin)
 .got.plt       0x000000000000b124        0x0 DriverSample.obj (symbol from plugin)
 *:AutoGen.obj(.data.g*Guid)

.plt            0x000000000000b130        0x0
 .plt           0x000000000000b130        0x0 DriverSample.obj (symbol from plugin)

.plt.got        0x000000000000b128        0x0
 .plt.got       0x000000000000b128        0x0 DriverSample.obj (symbol from plugin)

.data           0x000000000000b140     0x8458
 *(.data .data.* .gnu.linkonce.d.*)
 .data.gEdkiiIfrBitVarstoreGuid
                0x000000000000b140       0x10 /tmp/ccih1Te5.ltrans0.ltrans.o
 *fill*         0x000000000000b150       0x10 
 .data.rel.ro.local.mUefiDevicePathLibToTextTable
                0x000000000000b160      0x320 /tmp/ccih1Te5.ltrans1.ltrans.o
 .data.gEdkiiFormBrowserExProtocolGuid
                0x000000000000b480       0x10 /tmp/ccih1Te5.ltrans1.ltrans.o
 .data.gEfiIfrRefreshIdOpGuid
                0x000000000000b490       0x10 /tmp/ccih1Te5.ltrans1.ltrans.o
 .data.MyEfiUnionVar
                0x000000000000b4a0       0x1c /tmp/ccih1Te5.ltrans1.ltrans.o
                0x000000000000b4a0                MyEfiUnionVar
 *fill*         0x000000000000b4bc        0x4 
 .data.MyEfiBitVar
                0x000000000000b4c0       0x18 /tmp/ccih1Te5.ltrans1.ltrans.o
                0x000000000000b4c0                MyEfiBitVar
 *fill*         0x000000000000b4d8        0x8 
 .data.MyEfiVar
                0x000000000000b4e0       0x12 /tmp/ccih1Te5.ltrans1.ltrans.o
                0x000000000000b4e0                MyEfiVar
 *fill*         0x000000000000b4f2        0xe 
 .data.VariableName
                0x000000000000b500       0x18 /tmp/ccih1Te5.ltrans1.ltrans.o
                0x000000000000b500                VariableName
 *fill*         0x000000000000b518        0x8 
 .data.InventoryBin
                0x000000000000b520       0xc9 /tmp/ccih1Te5.ltrans1.ltrans.o
 *fill*         0x000000000000b5e9        0x7 
 .data.gDriverSampleInventoryGuid
                0x000000000000b5f0       0x10 /tmp/ccih1Te5.ltrans1.ltrans.o
 .data.mHiiVendorDevicePath1
                0x000000000000b600       0x18 /tmp/ccih1Te5.ltrans1.ltrans.o
                0x000000000000b600                mHiiVendorDevicePath1
 *fill*         0x000000000000b618        0x8 
 .data.VfrBin   0x000000000000b620     0x1127 /tmp/ccih1Te5.ltrans1.ltrans.o
 *fill*         0x000000000000c747       0x19 
 .data.DriverSampleStrings
                0x000000000000c760     0x6b91 /tmp/ccih1Te5.ltrans1.ltrans.o
 *fill*         0x00000000000132f1        0xf 
 .data.gEfiHiiConfigAccessProtocolGuid
                0x0000000000013300       0x10 /tmp/ccih1Te5.ltrans1.ltrans.o
                0x0000000000013300                gEfiHiiConfigAccessProtocolGuid
 .data.mHiiVendorDevicePath0
                0x0000000000013310       0x18 /tmp/ccih1Te5.ltrans1.ltrans.o
                0x0000000000013310                mHiiVendorDevicePath0
 *fill*         0x0000000000013328        0x8 
 .data.gEfiHiiPopupProtocolGuid
                0x0000000000013330       0x10 /tmp/ccih1Te5.ltrans1.ltrans.o
 .data.gEfiConfigKeywordHandlerProtocolGuid
                0x0000000000013340       0x10 /tmp/ccih1Te5.ltrans1.ltrans.o
 .data.gEfiHiiImageProtocolGuid
                0x0000000000013350       0x10 /tmp/ccih1Te5.ltrans1.ltrans.o
 .data.gEfiHiiFontProtocolGuid
                0x0000000000013360       0x10 /tmp/ccih1Te5.ltrans1.ltrans.o
 .data.gEfiHiiConfigRoutingProtocolGuid
                0x0000000000013370       0x10 /tmp/ccih1Te5.ltrans1.ltrans.o
 .data.gEfiHiiDatabaseProtocolGuid
                0x0000000000013380       0x10 /tmp/ccih1Te5.ltrans1.ltrans.o
 .data.gEfiHiiStringProtocolGuid
                0x0000000000013390       0x10 /tmp/ccih1Te5.ltrans1.ltrans.o
 .data.gEfiLoadedImageProtocolGuid
                0x00000000000133a0       0x10 /tmp/ccih1Te5.ltrans1.ltrans.o
 .data.gEfiSimpleTextInputExProtocolGuid
                0x00000000000133b0       0x10 /tmp/ccih1Te5.ltrans2.ltrans.o
 .data.gEfiDebugPortProtocolGuid
                0x00000000000133c0       0x10 /tmp/ccih1Te5.ltrans3.ltrans.o
 .data.gEfiSasDevicePathGuid
                0x00000000000133d0       0x10 /tmp/ccih1Te5.ltrans3.ltrans.o
 .data.gEfiUartDevicePathGuid
                0x00000000000133e0       0x10 /tmp/ccih1Te5.ltrans3.ltrans.o
 .data.gEfiVTUTF8Guid
                0x00000000000133f0       0x10 /tmp/ccih1Te5.ltrans3.ltrans.o
 .data.gEfiVT100PlusGuid
                0x0000000000013400       0x10 /tmp/ccih1Te5.ltrans3.ltrans.o
 .data.gEfiVT100Guid
                0x0000000000013410       0x10 /tmp/ccih1Te5.ltrans3.ltrans.o
 .data.gEfiPcAnsiGuid
                0x0000000000013420       0x10 /tmp/ccih1Te5.ltrans3.ltrans.o
 .data.gEfiFormBrowser2ProtocolGuid
                0x0000000000013430       0x10 /tmp/ccih1Te5.ltrans4.ltrans.o
                0x0000000000013430                gEfiFormBrowser2ProtocolGuid
 .data.gEfiPersistentVirtualCdGuid
                0x0000000000013440       0x10 /tmp/ccih1Te5.ltrans6.ltrans.o
 .data.gEfiPersistentVirtualDiskGuid
                0x0000000000013450       0x10 /tmp/ccih1Te5.ltrans6.ltrans.o
 .data.gEfiVirtualCdGuid
                0x0000000000013460       0x10 /tmp/ccih1Te5.ltrans6.ltrans.o
 .data.gEfiVirtualDiskGuid
                0x0000000000013470       0x10 /tmp/ccih1Te5.ltrans6.ltrans.o
 .data.rel.ro.local.mUefiDevicePathLibToTextTableGeneric
                0x0000000000013480       0x60 /tmp/ccih1Te5.ltrans6.ltrans.o
 .data.gEfiDevicePathProtocolGuid
                0x00000000000134e0       0x10 /tmp/ccih1Te5.ltrans9.ltrans.o
                0x00000000000134e0                gEfiDevicePathProtocolGuid
 .data.gDriverSampleFormSetGuid
                0x00000000000134f0       0x10 /tmp/ccih1Te5.ltrans10.ltrans.o
                0x00000000000134f0                gDriverSampleFormSetGuid
 .data.gEfiGlobalVariableGuid
                0x0000000000013500       0x10 /tmp/ccih1Te5.ltrans11.ltrans.o
 .data.gEfiIfrTianoGuid
                0x0000000000013510       0x10 /tmp/ccih1Te5.ltrans11.ltrans.o
                0x0000000000013510                gEfiIfrTianoGuid
 .data.rel.ro   0x0000000000013520        0x0 DriverSample.obj (symbol from plugin)
 *(.bss .bss.*)
 .bss.mEvent    0x0000000000013520        0x8 /tmp/ccih1Te5.ltrans1.ltrans.o
                0x0000000000013520                mEvent
 *fill*         0x0000000000013528        0x8 
 .bss.DriverHandle
                0x0000000000013530       0x10 /tmp/ccih1Te5.ltrans1.ltrans.o
                0x0000000000013530                DriverHandle
 .bss.mPrivateData
                0x0000000000013540        0x8 /tmp/ccih1Te5.ltrans1.ltrans.o
                0x0000000000013540                mPrivateData
 .bss.gImageHandle
                0x0000000000013548        0x8 /tmp/ccih1Te5.ltrans1.ltrans.o
 .bss.gHiiImage
                0x0000000000013550        0x8 /tmp/ccih1Te5.ltrans1.ltrans.o
 .bss.gHiiFont  0x0000000000013558        0x8 /tmp/ccih1Te5.ltrans1.ltrans.o
 .bss.gHiiConfigRouting
                0x0000000000013560        0x8 /tmp/ccih1Te5.ltrans4.ltrans.o
                0x0000000000013560                gHiiConfigRouting
 .bss.mUefiFormBrowser2
                0x0000000000013568        0x8 /tmp/ccih1Te5.ltrans4.ltrans.o
 .bss.gHiiDatabase
                0x0000000000013570        0x8 /tmp/ccih1Te5.ltrans10.ltrans.o
                0x0000000000013570                gHiiDatabase
 .bss.gST       0x0000000000013578        0x8 /tmp/ccih1Te5.ltrans10.ltrans.o
                0x0000000000013578                gST
 .bss.gBS       0x0000000000013580        0x8 /tmp/ccih1Te5.ltrans10.ltrans.o
                0x0000000000013580                gBS
 .bss.gRT       0x0000000000013588        0x8 /tmp/ccih1Te5.ltrans11.ltrans.o
                0x0000000000013588                gRT
 .bss.gHiiString
                0x0000000000013590        0x8 /tmp/ccih1Te5.ltrans11.ltrans.o
                0x0000000000013590                gHiiString

.eh_frame       0x00000000000135c0        0x0
 *(.eh_frame)
 .eh_frame      0x00000000000135c0        0x0 DriverSample.obj (symbol from plugin)
 .eh_frame      0x00000000000135c0        0x0 DriverSample.obj (symbol from plugin)

.dynbss         0x00000000000135c0        0x0
 .dynbss        0x00000000000135c0        0x0 DriverSample.obj (symbol from plugin)

.gnu.version_d  0x00000000000135c0        0x0
 .gnu.version_d
                0x00000000000135c0        0x0 DriverSample.obj (symbol from plugin)

.gnu.version    0x00000000000135c0        0x0
 .gnu.version   0x00000000000135c0        0x0 DriverSample.obj (symbol from plugin)

.gnu.version_r  0x00000000000135c0        0x0
 .gnu.version_r
                0x00000000000135c0        0x0 DriverSample.obj (symbol from plugin)

.rela           0x00000000000135c0      0x510
 *(.rela .rela.*)
 .rela.plt      0x00000000000135c0        0x0 DriverSample.obj (symbol from plugin)
 .rela.got      0x00000000000135c0        0x0 DriverSample.obj (symbol from plugin)
 .rela.bss      0x00000000000135c0        0x0 DriverSample.obj (symbol from plugin)
 .rela.data.rel.ro
                0x00000000000135c0        0x0 DriverSample.obj (symbol from plugin)
 .rela.ifunc    0x00000000000135c0        0x0 DriverSample.obj (symbol from plugin)
 .rela.data.rel.ro.local.mUefiDevicePathLibToTextTable
                0x00000000000135c0      0x498 DriverSample.obj (symbol from plugin)
 .rela.data.rel.ro.local.mUefiDevicePathLibToTextTableGeneric
                0x0000000000013a58       0x78 DriverSample.obj (symbol from plugin)

.hii
 *(.hii)

.build-id       0x0000000000013ad0       0x24
 *(.note.gnu.build-id)
 .note.gnu.build-id
                0x0000000000013ad0       0x24 DriverSample.obj (symbol from plugin)

/DISCARD/
 *(.note.GNU-stack)
 *(.gnu_debuglink)
 *(.interp)
 *(.dynsym)
 *(.dynstr)
 *(.dynamic)
 *(.hash .gnu.hash)
 *(.comment)
OUTPUT(/home/hcj/UEFIWorkspace/Build/MdeModule/DEBUG_GCC5/X64/MdeModulePkg/Universal/DriverSampleDxe/DriverSampleDxe/DEBUG/DriverSample.dll elf64-x86-64)

.debug_info     0x0000000000000000    0x1b73d
 .debug_info    0x0000000000000000     0x23c5 /tmp/ccih1Te5.ltrans0.ltrans.o
 .debug_info    0x00000000000023c5     0x4776 /tmp/ccih1Te5.ltrans1.ltrans.o
 .debug_info    0x0000000000006b3b     0x2e4a /tmp/ccih1Te5.ltrans2.ltrans.o
 .debug_info    0x0000000000009985     0x23f7 /tmp/ccih1Te5.ltrans3.ltrans.o
 .debug_info    0x000000000000bd7c     0x1aaa /tmp/ccih1Te5.ltrans4.ltrans.o
 .debug_info    0x000000000000d826      0xc65 /tmp/ccih1Te5.ltrans5.ltrans.o
 .debug_info    0x000000000000e48b     0x3cb6 /tmp/ccih1Te5.ltrans6.ltrans.o
 .debug_info    0x0000000000012141      0xc18 /tmp/ccih1Te5.ltrans7.ltrans.o
 .debug_info    0x0000000000012d59     0x2915 /tmp/ccih1Te5.ltrans8.ltrans.o
 .debug_info    0x000000000001566e     0x1606 /tmp/ccih1Te5.ltrans9.ltrans.o
 .debug_info    0x0000000000016c74     0x28b8 /tmp/ccih1Te5.ltrans10.ltrans.o
 .debug_info    0x000000000001952c     0x1406 /tmp/ccih1Te5.ltrans11.ltrans.o
 .debug_info    0x000000000001a932      0x6cb /tmp/ccih1Te5.ltrans12.ltrans.o
 .debug_info    0x000000000001affd      0x740 /tmp/ccih1Te5.ltrans13.ltrans.o

.debug_abbrev   0x0000000000000000     0x29e4
 .debug_abbrev  0x0000000000000000      0x29b /tmp/ccih1Te5.ltrans0.ltrans.o
 .debug_abbrev  0x000000000000029b      0x384 /tmp/ccih1Te5.ltrans1.ltrans.o
 .debug_abbrev  0x000000000000061f      0x302 /tmp/ccih1Te5.ltrans2.ltrans.o
 .debug_abbrev  0x0000000000000921      0x37a /tmp/ccih1Te5.ltrans3.ltrans.o
 .debug_abbrev  0x0000000000000c9b      0x29c /tmp/ccih1Te5.ltrans4.ltrans.o
 .debug_abbrev  0x0000000000000f37      0x302 /tmp/ccih1Te5.ltrans5.ltrans.o
 .debug_abbrev  0x0000000000001239      0x406 /tmp/ccih1Te5.ltrans6.ltrans.o
 .debug_abbrev  0x000000000000163f      0x2d7 /tmp/ccih1Te5.ltrans7.ltrans.o
 .debug_abbrev  0x0000000000001916      0x375 /tmp/ccih1Te5.ltrans8.ltrans.o
 .debug_abbrev  0x0000000000001c8b      0x385 /tmp/ccih1Te5.ltrans9.ltrans.o
 .debug_abbrev  0x0000000000002010      0x2ef /tmp/ccih1Te5.ltrans10.ltrans.o
 .debug_abbrev  0x00000000000022ff      0x2a4 /tmp/ccih1Te5.ltrans11.ltrans.o
 .debug_abbrev  0x00000000000025a3      0x227 /tmp/ccih1Te5.ltrans12.ltrans.o
 .debug_abbrev  0x00000000000027ca      0x21a /tmp/ccih1Te5.ltrans13.ltrans.o

.debug_loc      0x0000000000000000    0x1322d
 .debug_loc     0x0000000000000000     0x239f /tmp/ccih1Te5.ltrans0.ltrans.o
 .debug_loc     0x000000000000239f      0xa87 /tmp/ccih1Te5.ltrans1.ltrans.o
 .debug_loc     0x0000000000002e26     0x14c9 /tmp/ccih1Te5.ltrans2.ltrans.o
 .debug_loc     0x00000000000042ef     0x2926 /tmp/ccih1Te5.ltrans3.ltrans.o
 .debug_loc     0x0000000000006c15     0x22f0 /tmp/ccih1Te5.ltrans4.ltrans.o
 .debug_loc     0x0000000000008f05     0x1707 /tmp/ccih1Te5.ltrans5.ltrans.o
 .debug_loc     0x000000000000a60c     0x27eb /tmp/ccih1Te5.ltrans6.ltrans.o
 .debug_loc     0x000000000000cdf7      0xc67 /tmp/ccih1Te5.ltrans7.ltrans.o
 .debug_loc     0x000000000000da5e     0x185f /tmp/ccih1Te5.ltrans8.ltrans.o
 .debug_loc     0x000000000000f2bd     0x16c3 /tmp/ccih1Te5.ltrans9.ltrans.o
 .debug_loc     0x0000000000010980      0xe0d /tmp/ccih1Te5.ltrans10.ltrans.o
 .debug_loc     0x000000000001178d      0xbcf /tmp/ccih1Te5.ltrans11.ltrans.o
 .debug_loc     0x000000000001235c      0x84a /tmp/ccih1Te5.ltrans12.ltrans.o
 .debug_loc     0x0000000000012ba6      0x687 /tmp/ccih1Te5.ltrans13.ltrans.o

.debug_aranges  0x0000000000000000      0xa30
 .debug_aranges
                0x0000000000000000       0x30 /tmp/ccih1Te5.ltrans0.ltrans.o
 .debug_aranges
                0x0000000000000030       0x30 /tmp/ccih1Te5.ltrans1.ltrans.o
 .debug_aranges
                0x0000000000000060       0x30 /tmp/ccih1Te5.ltrans2.ltrans.o
 .debug_aranges
                0x0000000000000090      0x220 /tmp/ccih1Te5.ltrans3.ltrans.o
 .debug_aranges
                0x00000000000002b0       0xa0 /tmp/ccih1Te5.ltrans4.ltrans.o
 .debug_aranges
                0x0000000000000350      0x100 /tmp/ccih1Te5.ltrans5.ltrans.o
 .debug_aranges
                0x0000000000000450      0x210 /tmp/ccih1Te5.ltrans6.ltrans.o
 .debug_aranges
                0x0000000000000660       0xf0 /tmp/ccih1Te5.ltrans7.ltrans.o
 .debug_aranges
                0x0000000000000750       0x60 /tmp/ccih1Te5.ltrans8.ltrans.o
 .debug_aranges
                0x00000000000007b0      0x100 /tmp/ccih1Te5.ltrans9.ltrans.o
 .debug_aranges
                0x00000000000008b0       0x50 /tmp/ccih1Te5.ltrans10.ltrans.o
 .debug_aranges
                0x0000000000000900       0x60 /tmp/ccih1Te5.ltrans11.ltrans.o
 .debug_aranges
                0x0000000000000960       0x60 /tmp/ccih1Te5.ltrans12.ltrans.o
 .debug_aranges
                0x00000000000009c0       0x70 /tmp/ccih1Te5.ltrans13.ltrans.o

.debug_ranges   0x0000000000000000     0x1a70
 .debug_ranges  0x0000000000000000      0x4e0 /tmp/ccih1Te5.ltrans0.ltrans.o
 .debug_ranges  0x00000000000004e0      0x340 /tmp/ccih1Te5.ltrans1.ltrans.o
 .debug_ranges  0x0000000000000820       0xe0 /tmp/ccih1Te5.ltrans2.ltrans.o
 .debug_ranges  0x0000000000000900      0x2f0 /tmp/ccih1Te5.ltrans3.ltrans.o
 .debug_ranges  0x0000000000000bf0       0xf0 /tmp/ccih1Te5.ltrans4.ltrans.o
 .debug_ranges  0x0000000000000ce0      0x190 /tmp/ccih1Te5.ltrans5.ltrans.o
 .debug_ranges  0x0000000000000e70      0x2b0 /tmp/ccih1Te5.ltrans6.ltrans.o
 .debug_ranges  0x0000000000001120      0x1f0 /tmp/ccih1Te5.ltrans7.ltrans.o
 .debug_ranges  0x0000000000001310      0x210 /tmp/ccih1Te5.ltrans8.ltrans.o
 .debug_ranges  0x0000000000001520      0x220 /tmp/ccih1Te5.ltrans9.ltrans.o
 .debug_ranges  0x0000000000001740      0x120 /tmp/ccih1Te5.ltrans10.ltrans.o
 .debug_ranges  0x0000000000001860      0x130 /tmp/ccih1Te5.ltrans11.ltrans.o
 .debug_ranges  0x0000000000001990       0x80 /tmp/ccih1Te5.ltrans12.ltrans.o
 .debug_ranges  0x0000000000001a10       0x60 /tmp/ccih1Te5.ltrans13.ltrans.o

.debug_line     0x0000000000000000     0x5645
 .debug_line    0x0000000000000000      0x756 /tmp/ccih1Te5.ltrans0.ltrans.o
 .debug_line    0x0000000000000756      0x907 /tmp/ccih1Te5.ltrans1.ltrans.o
 .debug_line    0x000000000000105d      0x5e2 /tmp/ccih1Te5.ltrans2.ltrans.o
 .debug_line    0x000000000000163f      0x85f /tmp/ccih1Te5.ltrans3.ltrans.o
 .debug_line    0x0000000000001e9e      0x7e0 /tmp/ccih1Te5.ltrans4.ltrans.o
 .debug_line    0x000000000000267e      0x47c /tmp/ccih1Te5.ltrans5.ltrans.o
 .debug_line    0x0000000000002afa      0x8b6 /tmp/ccih1Te5.ltrans6.ltrans.o
 .debug_line    0x00000000000033b0      0x400 /tmp/ccih1Te5.ltrans7.ltrans.o
 .debug_line    0x00000000000037b0      0x545 /tmp/ccih1Te5.ltrans8.ltrans.o
 .debug_line    0x0000000000003cf5      0x6bd /tmp/ccih1Te5.ltrans9.ltrans.o
 .debug_line    0x00000000000043b2      0x6ba /tmp/ccih1Te5.ltrans10.ltrans.o
 .debug_line    0x0000000000004a6c      0x5df /tmp/ccih1Te5.ltrans11.ltrans.o
 .debug_line    0x000000000000504b      0x345 /tmp/ccih1Te5.ltrans12.ltrans.o
 .debug_line    0x0000000000005390      0x2b5 /tmp/ccih1Te5.ltrans13.ltrans.o

.debug_str      0x0000000000000000     0x572b
 .debug_str     0x0000000000000000      0x9b9 /tmp/ccih1Te5.ltrans0.ltrans.o
                                        0xc1c (size before relaxing)
 .debug_str     0x00000000000009b9     0x2662 /tmp/ccih1Te5.ltrans1.ltrans.o
                                       0x2eeb (size before relaxing)
 .debug_str     0x000000000000301b      0x3ff /tmp/ccih1Te5.ltrans2.ltrans.o
                                       0x1865 (size before relaxing)
 .debug_str     0x000000000000341a      0x712 /tmp/ccih1Te5.ltrans3.ltrans.o
                                        0xd10 (size before relaxing)
 .debug_str     0x0000000000003b2c      0x434 /tmp/ccih1Te5.ltrans4.ltrans.o
                                        0xe48 (size before relaxing)
 .debug_str     0x0000000000003f60      0x2ae /tmp/ccih1Te5.ltrans5.ltrans.o
                                        0x661 (size before relaxing)
 .debug_str     0x000000000000420e      0x8c6 /tmp/ccih1Te5.ltrans6.ltrans.o
                                       0x1d43 (size before relaxing)
 .debug_str     0x0000000000004ad4      0x21b /tmp/ccih1Te5.ltrans7.ltrans.o
                                        0x649 (size before relaxing)
 .debug_str     0x0000000000004cef       0xed /tmp/ccih1Te5.ltrans8.ltrans.o
                                       0x144f (size before relaxing)
 .debug_str     0x0000000000004ddc      0x466 /tmp/ccih1Te5.ltrans9.ltrans.o
                                        0xac8 (size before relaxing)
 .debug_str     0x0000000000005242      0x1b3 /tmp/ccih1Te5.ltrans10.ltrans.o
                                       0x198c (size before relaxing)
 .debug_str     0x00000000000053f5      0x1af /tmp/ccih1Te5.ltrans11.ltrans.o
                                        0xb44 (size before relaxing)
 .debug_str     0x00000000000055a4       0xd8 /tmp/ccih1Te5.ltrans12.ltrans.o
                                        0x462 (size before relaxing)
 .debug_str     0x000000000000567c       0xaf /tmp/ccih1Te5.ltrans13.ltrans.o
                                        0x553 (size before relaxing)

.debug_frame    0x0000000000000000     0x2400
 .debug_frame   0x0000000000000000       0xa8 /tmp/ccih1Te5.ltrans0.ltrans.o
 .debug_frame   0x00000000000000a8       0xa8 /tmp/ccih1Te5.ltrans1.ltrans.o
 .debug_frame   0x0000000000000150       0x78 /tmp/ccih1Te5.ltrans2.ltrans.o
 .debug_frame   0x00000000000001c8      0x868 /tmp/ccih1Te5.ltrans3.ltrans.o
 .debug_frame   0x0000000000000a30      0x2f8 /tmp/ccih1Te5.ltrans4.ltrans.o
 .debug_frame   0x0000000000000d28      0x248 /tmp/ccih1Te5.ltrans5.ltrans.o
 .debug_frame   0x0000000000000f70      0x788 /tmp/ccih1Te5.ltrans6.ltrans.o
 .debug_frame   0x00000000000016f8      0x228 /tmp/ccih1Te5.ltrans7.ltrans.o
 .debug_frame   0x0000000000001920      0x1c8 /tmp/ccih1Te5.ltrans8.ltrans.o
 .debug_frame   0x0000000000001ae8      0x3d0 /tmp/ccih1Te5.ltrans9.ltrans.o
 .debug_frame   0x0000000000001eb8      0x160 /tmp/ccih1Te5.ltrans10.ltrans.o
 .debug_frame   0x0000000000002018      0x1b8 /tmp/ccih1Te5.ltrans11.ltrans.o
 .debug_frame   0x00000000000021d0       0xf0 /tmp/ccih1Te5.ltrans12.ltrans.o
 .debug_frame   0x00000000000022c0      0x140 /tmp/ccih1Te5.ltrans13.ltrans.o
