Archive member included to satisfy reference by file (symbol)

/home/hcj/UEFIWorkspace/Build/NetworkPkg/DEBUG_GCC5/X64/NetworkPkg/DnsDxe/DnsDxe/OUTPUT/DnsDxe.lib(ComponentName.obj)
                              (--whole-archive)
/home/hcj/UEFIWorkspace/Build/NetworkPkg/DEBUG_GCC5/X64/NetworkPkg/DnsDxe/DnsDxe/OUTPUT/DnsDxe.lib(DnsDriver.obj)
                              (--whole-archive)
/home/hcj/UEFIWorkspace/Build/NetworkPkg/DEBUG_GCC5/X64/NetworkPkg/DnsDxe/DnsDxe/OUTPUT/DnsDxe.lib(DnsImpl.obj)
                              (--whole-archive)
/home/hcj/UEFIWorkspace/Build/NetworkPkg/DEBUG_GCC5/X64/NetworkPkg/DnsDxe/DnsDxe/OUTPUT/DnsDxe.lib(DnsProtocol.obj)
                              (--whole-archive)
/home/hcj/UEFIWorkspace/Build/NetworkPkg/DEBUG_GCC5/X64/NetworkPkg/DnsDxe/DnsDxe/OUTPUT/DnsDxe.lib(DnsDhcp.obj)
                              (--whole-archive)
/home/hcj/UEFIWorkspace/Build/NetworkPkg/DEBUG_GCC5/X64/NetworkPkg/DnsDxe/DnsDxe/OUTPUT/DnsDxe.lib(AutoGen.obj)
                              (--whole-archive)
/home/hcj/UEFIWorkspace/Build/NetworkPkg/DEBUG_GCC5/X64/MdePkg/Library/RegisterFilterLibNull/RegisterFilterLibNull/OUTPUT/FilterLibNull.lib(RegisterFilterLibNull.obj)
                              (--whole-archive)
/home/hcj/UEFIWorkspace/Build/NetworkPkg/DEBUG_GCC5/X64/MdePkg/Library/BasePcdLibNull/BasePcdLibNull/OUTPUT/BasePcdLibNull.lib(PcdLib.obj)
                              (--whole-archive)
/home/hcj/UEFIWorkspace/Build/NetworkPkg/DEBUG_GCC5/X64/MdePkg/Library/BaseMemoryLib/BaseMemoryLib/OUTPUT/BaseMemoryLib.lib(SetMem.obj)
                              (--whole-archive)
/home/hcj/UEFIWorkspace/Build/NetworkPkg/DEBUG_GCC5/X64/MdePkg/Library/BaseMemoryLib/BaseMemoryLib/OUTPUT/BaseMemoryLib.lib(ScanMem64Wrapper.obj)
                              (--whole-archive)
/home/hcj/UEFIWorkspace/Build/NetworkPkg/DEBUG_GCC5/X64/MdePkg/Library/BaseMemoryLib/BaseMemoryLib/OUTPUT/BaseMemoryLib.lib(ScanMem32Wrapper.obj)
                              (--whole-archive)
/home/hcj/UEFIWorkspace/Build/NetworkPkg/DEBUG_GCC5/X64/MdePkg/Library/BaseMemoryLib/BaseMemoryLib/OUTPUT/BaseMemoryLib.lib(ScanMem16Wrapper.obj)
                              (--whole-archive)
/home/hcj/UEFIWorkspace/Build/NetworkPkg/DEBUG_GCC5/X64/MdePkg/Library/BaseMemoryLib/BaseMemoryLib/OUTPUT/BaseMemoryLib.lib(ScanMem8Wrapper.obj)
                              (--whole-archive)
/home/hcj/UEFIWorkspace/Build/NetworkPkg/DEBUG_GCC5/X64/MdePkg/Library/BaseMemoryLib/BaseMemoryLib/OUTPUT/BaseMemoryLib.lib(ZeroMemWrapper.obj)
                              (--whole-archive)
/home/hcj/UEFIWorkspace/Build/NetworkPkg/DEBUG_GCC5/X64/MdePkg/Library/BaseMemoryLib/BaseMemoryLib/OUTPUT/BaseMemoryLib.lib(CompareMemWrapper.obj)
                              (--whole-archive)
/home/hcj/UEFIWorkspace/Build/NetworkPkg/DEBUG_GCC5/X64/MdePkg/Library/BaseMemoryLib/BaseMemoryLib/OUTPUT/BaseMemoryLib.lib(SetMem64Wrapper.obj)
                              (--whole-archive)
/home/hcj/UEFIWorkspace/Build/NetworkPkg/DEBUG_GCC5/X64/MdePkg/Library/BaseMemoryLib/BaseMemoryLib/OUTPUT/BaseMemoryLib.lib(SetMem32Wrapper.obj)
                              (--whole-archive)
/home/hcj/UEFIWorkspace/Build/NetworkPkg/DEBUG_GCC5/X64/MdePkg/Library/BaseMemoryLib/BaseMemoryLib/OUTPUT/BaseMemoryLib.lib(SetMem16Wrapper.obj)
                              (--whole-archive)
/home/hcj/UEFIWorkspace/Build/NetworkPkg/DEBUG_GCC5/X64/MdePkg/Library/BaseMemoryLib/BaseMemoryLib/OUTPUT/BaseMemoryLib.lib(SetMemWrapper.obj)
                              (--whole-archive)
/home/hcj/UEFIWorkspace/Build/NetworkPkg/DEBUG_GCC5/X64/MdePkg/Library/BaseMemoryLib/BaseMemoryLib/OUTPUT/BaseMemoryLib.lib(CopyMemWrapper.obj)
                              (--whole-archive)
/home/hcj/UEFIWorkspace/Build/NetworkPkg/DEBUG_GCC5/X64/MdePkg/Library/BaseMemoryLib/BaseMemoryLib/OUTPUT/BaseMemoryLib.lib(IsZeroBufferWrapper.obj)
                              (--whole-archive)
/home/hcj/UEFIWorkspace/Build/NetworkPkg/DEBUG_GCC5/X64/MdePkg/Library/BaseMemoryLib/BaseMemoryLib/OUTPUT/BaseMemoryLib.lib(MemLibGeneric.obj)
                              (--whole-archive)
/home/hcj/UEFIWorkspace/Build/NetworkPkg/DEBUG_GCC5/X64/MdePkg/Library/BaseMemoryLib/BaseMemoryLib/OUTPUT/BaseMemoryLib.lib(MemLibGuid.obj)
                              (--whole-archive)
/home/hcj/UEFIWorkspace/Build/NetworkPkg/DEBUG_GCC5/X64/MdePkg/Library/BaseMemoryLib/BaseMemoryLib/OUTPUT/BaseMemoryLib.lib(CopyMem.obj)
                              (--whole-archive)
/home/hcj/UEFIWorkspace/Build/NetworkPkg/DEBUG_GCC5/X64/MdePkg/Library/BaseLib/BaseLib/OUTPUT/BaseLib.lib(CheckSum.obj)
                              (--whole-archive)
/home/hcj/UEFIWorkspace/Build/NetworkPkg/DEBUG_GCC5/X64/MdePkg/Library/BaseLib/BaseLib/OUTPUT/BaseLib.lib(SwitchStack.obj)
                              (--whole-archive)
/home/hcj/UEFIWorkspace/Build/NetworkPkg/DEBUG_GCC5/X64/MdePkg/Library/BaseLib/BaseLib/OUTPUT/BaseLib.lib(SwapBytes64.obj)
                              (--whole-archive)
/home/hcj/UEFIWorkspace/Build/NetworkPkg/DEBUG_GCC5/X64/MdePkg/Library/BaseLib/BaseLib/OUTPUT/BaseLib.lib(SwapBytes32.obj)
                              (--whole-archive)
/home/hcj/UEFIWorkspace/Build/NetworkPkg/DEBUG_GCC5/X64/MdePkg/Library/BaseLib/BaseLib/OUTPUT/BaseLib.lib(SwapBytes16.obj)
                              (--whole-archive)
/home/hcj/UEFIWorkspace/Build/NetworkPkg/DEBUG_GCC5/X64/MdePkg/Library/BaseLib/BaseLib/OUTPUT/BaseLib.lib(LongJump.obj)
                              (--whole-archive)
/home/hcj/UEFIWorkspace/Build/NetworkPkg/DEBUG_GCC5/X64/MdePkg/Library/BaseLib/BaseLib/OUTPUT/BaseLib.lib(SetJump.obj)
                              (--whole-archive)
/home/hcj/UEFIWorkspace/Build/NetworkPkg/DEBUG_GCC5/X64/MdePkg/Library/BaseLib/BaseLib/OUTPUT/BaseLib.lib(QuickSort.obj)
                              (--whole-archive)
/home/hcj/UEFIWorkspace/Build/NetworkPkg/DEBUG_GCC5/X64/MdePkg/Library/BaseLib/BaseLib/OUTPUT/BaseLib.lib(RShiftU64.obj)
                              (--whole-archive)
/home/hcj/UEFIWorkspace/Build/NetworkPkg/DEBUG_GCC5/X64/MdePkg/Library/BaseLib/BaseLib/OUTPUT/BaseLib.lib(RRotU64.obj)
                              (--whole-archive)
/home/hcj/UEFIWorkspace/Build/NetworkPkg/DEBUG_GCC5/X64/MdePkg/Library/BaseLib/BaseLib/OUTPUT/BaseLib.lib(RRotU32.obj)
                              (--whole-archive)
/home/hcj/UEFIWorkspace/Build/NetworkPkg/DEBUG_GCC5/X64/MdePkg/Library/BaseLib/BaseLib/OUTPUT/BaseLib.lib(MultU64x64.obj)
                              (--whole-archive)
/home/hcj/UEFIWorkspace/Build/NetworkPkg/DEBUG_GCC5/X64/MdePkg/Library/BaseLib/BaseLib/OUTPUT/BaseLib.lib(MultU64x32.obj)
                              (--whole-archive)
/home/hcj/UEFIWorkspace/Build/NetworkPkg/DEBUG_GCC5/X64/MdePkg/Library/BaseLib/BaseLib/OUTPUT/BaseLib.lib(MultS64x64.obj)
                              (--whole-archive)
/home/hcj/UEFIWorkspace/Build/NetworkPkg/DEBUG_GCC5/X64/MdePkg/Library/BaseLib/BaseLib/OUTPUT/BaseLib.lib(ModU64x32.obj)
                              (--whole-archive)
/home/hcj/UEFIWorkspace/Build/NetworkPkg/DEBUG_GCC5/X64/MdePkg/Library/BaseLib/BaseLib/OUTPUT/BaseLib.lib(LShiftU64.obj)
                              (--whole-archive)
/home/hcj/UEFIWorkspace/Build/NetworkPkg/DEBUG_GCC5/X64/MdePkg/Library/BaseLib/BaseLib/OUTPUT/BaseLib.lib(LRotU64.obj)
                              (--whole-archive)
/home/hcj/UEFIWorkspace/Build/NetworkPkg/DEBUG_GCC5/X64/MdePkg/Library/BaseLib/BaseLib/OUTPUT/BaseLib.lib(LRotU32.obj)
                              (--whole-archive)
/home/hcj/UEFIWorkspace/Build/NetworkPkg/DEBUG_GCC5/X64/MdePkg/Library/BaseLib/BaseLib/OUTPUT/BaseLib.lib(LowBitSet64.obj)
                              (--whole-archive)
/home/hcj/UEFIWorkspace/Build/NetworkPkg/DEBUG_GCC5/X64/MdePkg/Library/BaseLib/BaseLib/OUTPUT/BaseLib.lib(LowBitSet32.obj)
                              (--whole-archive)
/home/hcj/UEFIWorkspace/Build/NetworkPkg/DEBUG_GCC5/X64/MdePkg/Library/BaseLib/BaseLib/OUTPUT/BaseLib.lib(HighBitSet64.obj)
                              (--whole-archive)
/home/hcj/UEFIWorkspace/Build/NetworkPkg/DEBUG_GCC5/X64/MdePkg/Library/BaseLib/BaseLib/OUTPUT/BaseLib.lib(HighBitSet32.obj)
                              (--whole-archive)
/home/hcj/UEFIWorkspace/Build/NetworkPkg/DEBUG_GCC5/X64/MdePkg/Library/BaseLib/BaseLib/OUTPUT/BaseLib.lib(GetPowerOfTwo64.obj)
                              (--whole-archive)
/home/hcj/UEFIWorkspace/Build/NetworkPkg/DEBUG_GCC5/X64/MdePkg/Library/BaseLib/BaseLib/OUTPUT/BaseLib.lib(GetPowerOfTwo32.obj)
                              (--whole-archive)
/home/hcj/UEFIWorkspace/Build/NetworkPkg/DEBUG_GCC5/X64/MdePkg/Library/BaseLib/BaseLib/OUTPUT/BaseLib.lib(DivU64x64Remainder.obj)
                              (--whole-archive)
/home/hcj/UEFIWorkspace/Build/NetworkPkg/DEBUG_GCC5/X64/MdePkg/Library/BaseLib/BaseLib/OUTPUT/BaseLib.lib(DivU64x32Remainder.obj)
                              (--whole-archive)
/home/hcj/UEFIWorkspace/Build/NetworkPkg/DEBUG_GCC5/X64/MdePkg/Library/BaseLib/BaseLib/OUTPUT/BaseLib.lib(DivU64x32.obj)
                              (--whole-archive)
/home/hcj/UEFIWorkspace/Build/NetworkPkg/DEBUG_GCC5/X64/MdePkg/Library/BaseLib/BaseLib/OUTPUT/BaseLib.lib(DivS64x64Remainder.obj)
                              (--whole-archive)
/home/hcj/UEFIWorkspace/Build/NetworkPkg/DEBUG_GCC5/X64/MdePkg/Library/BaseLib/BaseLib/OUTPUT/BaseLib.lib(ARShiftU64.obj)
                              (--whole-archive)
/home/hcj/UEFIWorkspace/Build/NetworkPkg/DEBUG_GCC5/X64/MdePkg/Library/BaseLib/BaseLib/OUTPUT/BaseLib.lib(BitField.obj)
                              (--whole-archive)
/home/hcj/UEFIWorkspace/Build/NetworkPkg/DEBUG_GCC5/X64/MdePkg/Library/BaseLib/BaseLib/OUTPUT/BaseLib.lib(CpuDeadLoop.obj)
                              (--whole-archive)
/home/hcj/UEFIWorkspace/Build/NetworkPkg/DEBUG_GCC5/X64/MdePkg/Library/BaseLib/BaseLib/OUTPUT/BaseLib.lib(Cpu.obj)
                              (--whole-archive)
/home/hcj/UEFIWorkspace/Build/NetworkPkg/DEBUG_GCC5/X64/MdePkg/Library/BaseLib/BaseLib/OUTPUT/BaseLib.lib(LinkedList.obj)
                              (--whole-archive)
/home/hcj/UEFIWorkspace/Build/NetworkPkg/DEBUG_GCC5/X64/MdePkg/Library/BaseLib/BaseLib/OUTPUT/BaseLib.lib(SafeString.obj)
                              (--whole-archive)
/home/hcj/UEFIWorkspace/Build/NetworkPkg/DEBUG_GCC5/X64/MdePkg/Library/BaseLib/BaseLib/OUTPUT/BaseLib.lib(String.obj)
                              (--whole-archive)
/home/hcj/UEFIWorkspace/Build/NetworkPkg/DEBUG_GCC5/X64/MdePkg/Library/BaseLib/BaseLib/OUTPUT/BaseLib.lib(FilePaths.obj)
                              (--whole-archive)
/home/hcj/UEFIWorkspace/Build/NetworkPkg/DEBUG_GCC5/X64/MdePkg/Library/BaseLib/BaseLib/OUTPUT/BaseLib.lib(Thunk16.obj)
                              (--whole-archive)
/home/hcj/UEFIWorkspace/Build/NetworkPkg/DEBUG_GCC5/X64/MdePkg/Library/BaseLib/BaseLib/OUTPUT/BaseLib.lib(CpuIdEx.obj)
                              (--whole-archive)
/home/hcj/UEFIWorkspace/Build/NetworkPkg/DEBUG_GCC5/X64/MdePkg/Library/BaseLib/BaseLib/OUTPUT/BaseLib.lib(CpuId.obj)
                              (--whole-archive)
/home/hcj/UEFIWorkspace/Build/NetworkPkg/DEBUG_GCC5/X64/MdePkg/Library/BaseLib/BaseLib/OUTPUT/BaseLib.lib(LongJump.obj)
                              (--whole-archive)
/home/hcj/UEFIWorkspace/Build/NetworkPkg/DEBUG_GCC5/X64/MdePkg/Library/BaseLib/BaseLib/OUTPUT/BaseLib.lib(SetJump.obj)
                              (--whole-archive)
/home/hcj/UEFIWorkspace/Build/NetworkPkg/DEBUG_GCC5/X64/MdePkg/Library/BaseLib/BaseLib/OUTPUT/BaseLib.lib(SwitchStack.obj)
                              (--whole-archive)
/home/hcj/UEFIWorkspace/Build/NetworkPkg/DEBUG_GCC5/X64/MdePkg/Library/BaseLib/BaseLib/OUTPUT/BaseLib.lib(EnableCache.obj)
                              (--whole-archive)
/home/hcj/UEFIWorkspace/Build/NetworkPkg/DEBUG_GCC5/X64/MdePkg/Library/BaseLib/BaseLib/OUTPUT/BaseLib.lib(DisableCache.obj)
                              (--whole-archive)
/home/hcj/UEFIWorkspace/Build/NetworkPkg/DEBUG_GCC5/X64/MdePkg/Library/BaseLib/BaseLib/OUTPUT/BaseLib.lib(WriteTr.obj)
                              (--whole-archive)
/home/hcj/UEFIWorkspace/Build/NetworkPkg/DEBUG_GCC5/X64/MdePkg/Library/BaseLib/BaseLib/OUTPUT/BaseLib.lib(Lfence.obj)
                              (--whole-archive)
/home/hcj/UEFIWorkspace/Build/NetworkPkg/DEBUG_GCC5/X64/MdePkg/Library/BaseLib/BaseLib/OUTPUT/BaseLib.lib(Non-existing.obj)
                              (--whole-archive)
/home/hcj/UEFIWorkspace/Build/NetworkPkg/DEBUG_GCC5/X64/MdePkg/Library/BaseLib/BaseLib/OUTPUT/BaseLib.lib(Math64.obj)
                              (--whole-archive)
/home/hcj/UEFIWorkspace/Build/NetworkPkg/DEBUG_GCC5/X64/MdePkg/Library/BaseLib/BaseLib/OUTPUT/BaseLib.lib(Unaligned.obj)
                              (--whole-archive)
/home/hcj/UEFIWorkspace/Build/NetworkPkg/DEBUG_GCC5/X64/MdePkg/Library/BaseLib/BaseLib/OUTPUT/BaseLib.lib(X86WriteIdtr.obj)
                              (--whole-archive)
/home/hcj/UEFIWorkspace/Build/NetworkPkg/DEBUG_GCC5/X64/MdePkg/Library/BaseLib/BaseLib/OUTPUT/BaseLib.lib(X86WriteGdtr.obj)
                              (--whole-archive)
/home/hcj/UEFIWorkspace/Build/NetworkPkg/DEBUG_GCC5/X64/MdePkg/Library/BaseLib/BaseLib/OUTPUT/BaseLib.lib(X86Thunk.obj)
                              (--whole-archive)
/home/hcj/UEFIWorkspace/Build/NetworkPkg/DEBUG_GCC5/X64/MdePkg/Library/BaseLib/BaseLib/OUTPUT/BaseLib.lib(X86ReadIdtr.obj)
                              (--whole-archive)
/home/hcj/UEFIWorkspace/Build/NetworkPkg/DEBUG_GCC5/X64/MdePkg/Library/BaseLib/BaseLib/OUTPUT/BaseLib.lib(X86ReadGdtr.obj)
                              (--whole-archive)
/home/hcj/UEFIWorkspace/Build/NetworkPkg/DEBUG_GCC5/X64/MdePkg/Library/BaseLib/BaseLib/OUTPUT/BaseLib.lib(X86Msr.obj)
                              (--whole-archive)
/home/hcj/UEFIWorkspace/Build/NetworkPkg/DEBUG_GCC5/X64/MdePkg/Library/BaseLib/BaseLib/OUTPUT/BaseLib.lib(X86GetInterruptState.obj)
                              (--whole-archive)
/home/hcj/UEFIWorkspace/Build/NetworkPkg/DEBUG_GCC5/X64/MdePkg/Library/BaseLib/BaseLib/OUTPUT/BaseLib.lib(X86FxSave.obj)
                              (--whole-archive)
/home/hcj/UEFIWorkspace/Build/NetworkPkg/DEBUG_GCC5/X64/MdePkg/Library/BaseLib/BaseLib/OUTPUT/BaseLib.lib(X86FxRestore.obj)
                              (--whole-archive)
/home/hcj/UEFIWorkspace/Build/NetworkPkg/DEBUG_GCC5/X64/MdePkg/Library/BaseLib/BaseLib/OUTPUT/BaseLib.lib(X86EnablePaging64.obj)
                              (--whole-archive)
/home/hcj/UEFIWorkspace/Build/NetworkPkg/DEBUG_GCC5/X64/MdePkg/Library/BaseLib/BaseLib/OUTPUT/BaseLib.lib(X86EnablePaging32.obj)
                              (--whole-archive)
/home/hcj/UEFIWorkspace/Build/NetworkPkg/DEBUG_GCC5/X64/MdePkg/Library/BaseLib/BaseLib/OUTPUT/BaseLib.lib(X86DisablePaging64.obj)
                              (--whole-archive)
/home/hcj/UEFIWorkspace/Build/NetworkPkg/DEBUG_GCC5/X64/MdePkg/Library/BaseLib/BaseLib/OUTPUT/BaseLib.lib(X86DisablePaging32.obj)
                              (--whole-archive)
/home/hcj/UEFIWorkspace/Build/NetworkPkg/DEBUG_GCC5/X64/MdePkg/Library/BaseLib/BaseLib/OUTPUT/BaseLib.lib(X86RdRand.obj)
                              (--whole-archive)
/home/hcj/UEFIWorkspace/Build/NetworkPkg/DEBUG_GCC5/X64/MdePkg/Library/BaseLib/BaseLib/OUTPUT/BaseLib.lib(X86PatchInstruction.obj)
                              (--whole-archive)
/home/hcj/UEFIWorkspace/Build/NetworkPkg/DEBUG_GCC5/X64/MdePkg/Library/BaseLib/BaseLib/OUTPUT/BaseLib.lib(X86SpeculationBarrier.obj)
                              (--whole-archive)
/home/hcj/UEFIWorkspace/Build/NetworkPkg/DEBUG_GCC5/X64/MdePkg/Library/BaseLib/BaseLib/OUTPUT/BaseLib.lib(GccInline.obj)
                              (--whole-archive)
/home/hcj/UEFIWorkspace/Build/NetworkPkg/DEBUG_GCC5/X64/MdePkg/Library/BaseLib/BaseLib/OUTPUT/BaseLib.lib(GccInlinePriv.obj)
                              (--whole-archive)
/home/hcj/UEFIWorkspace/Build/NetworkPkg/DEBUG_GCC5/X64/MdePkg/Library/BaseLib/BaseLib/OUTPUT/BaseLib.lib(EnableDisableInterrupts.obj)
                              (--whole-archive)
/home/hcj/UEFIWorkspace/Build/NetworkPkg/DEBUG_GCC5/X64/MdePkg/Library/BaseLib/BaseLib/OUTPUT/BaseLib.lib(DisablePaging64.obj)
                              (--whole-archive)
/home/hcj/UEFIWorkspace/Build/NetworkPkg/DEBUG_GCC5/X64/MdePkg/Library/BaseLib/BaseLib/OUTPUT/BaseLib.lib(Pvalidate.obj)
                              (--whole-archive)
/home/hcj/UEFIWorkspace/Build/NetworkPkg/DEBUG_GCC5/X64/MdePkg/Library/BaseLib/BaseLib/OUTPUT/BaseLib.lib(RdRand.obj)
                              (--whole-archive)
/home/hcj/UEFIWorkspace/Build/NetworkPkg/DEBUG_GCC5/X64/MdePkg/Library/BaseLib/BaseLib/OUTPUT/BaseLib.lib(RmpAdjust.obj)
                              (--whole-archive)
/home/hcj/UEFIWorkspace/Build/NetworkPkg/DEBUG_GCC5/X64/MdePkg/Library/BaseLib/BaseLib/OUTPUT/BaseLib.lib(XGetBv.obj)
                              (--whole-archive)
/home/hcj/UEFIWorkspace/Build/NetworkPkg/DEBUG_GCC5/X64/MdePkg/Library/BaseLib/BaseLib/OUTPUT/BaseLib.lib(XSetBv.obj)
                              (--whole-archive)
/home/hcj/UEFIWorkspace/Build/NetworkPkg/DEBUG_GCC5/X64/MdePkg/Library/BaseLib/BaseLib/OUTPUT/BaseLib.lib(VmgExit.obj)
                              (--whole-archive)
/home/hcj/UEFIWorkspace/Build/NetworkPkg/DEBUG_GCC5/X64/MdePkg/Library/BaseLib/BaseLib/OUTPUT/BaseLib.lib(ChkStkGcc.obj)
                              (--whole-archive)
/home/hcj/UEFIWorkspace/Build/NetworkPkg/DEBUG_GCC5/X64/MdePkg/Library/BaseDebugPrintErrorLevelLib/BaseDebugPrintErrorLevelLib/OUTPUT/BaseDebugPrintErrorLevelLib.lib(BaseDebugPrintErrorLevelLib.obj)
                              (--whole-archive)
/home/hcj/UEFIWorkspace/Build/NetworkPkg/DEBUG_GCC5/X64/MdePkg/Library/BasePrintLib/BasePrintLib/OUTPUT/BasePrintLib.lib(PrintLibInternal.obj)
                              (--whole-archive)
/home/hcj/UEFIWorkspace/Build/NetworkPkg/DEBUG_GCC5/X64/MdePkg/Library/BasePrintLib/BasePrintLib/OUTPUT/BasePrintLib.lib(PrintLib.obj)
                              (--whole-archive)
/home/hcj/UEFIWorkspace/Build/NetworkPkg/DEBUG_GCC5/X64/MdePkg/Library/UefiDebugLibConOut/UefiDebugLibConOut/OUTPUT/UefiDebugLibConOut.lib(DebugLib.obj)
                              (--whole-archive)
/home/hcj/UEFIWorkspace/Build/NetworkPkg/DEBUG_GCC5/X64/MdePkg/Library/UefiDebugLibConOut/UefiDebugLibConOut/OUTPUT/UefiDebugLibConOut.lib(DebugLibConstructor.obj)
                              (--whole-archive)
/home/hcj/UEFIWorkspace/Build/NetworkPkg/DEBUG_GCC5/X64/MdePkg/Library/UefiBootServicesTableLib/UefiBootServicesTableLib/OUTPUT/UefiBootServicesTableLib.lib(UefiBootServicesTableLib.obj)
                              (--whole-archive)
/home/hcj/UEFIWorkspace/Build/NetworkPkg/DEBUG_GCC5/X64/MdePkg/Library/UefiMemoryAllocationLib/UefiMemoryAllocationLib/OUTPUT/UefiMemoryAllocationLib.lib(MemoryAllocationLib.obj)
                              (--whole-archive)
/home/hcj/UEFIWorkspace/Build/NetworkPkg/DEBUG_GCC5/X64/MdePkg/Library/UefiDevicePathLib/UefiDevicePathLib/OUTPUT/UefiDevicePathLib.lib(DevicePathUtilities.obj)
                              (--whole-archive)
/home/hcj/UEFIWorkspace/Build/NetworkPkg/DEBUG_GCC5/X64/MdePkg/Library/UefiDevicePathLib/UefiDevicePathLib/OUTPUT/UefiDevicePathLib.lib(DevicePathUtilitiesDxeSmm.obj)
                              (--whole-archive)
/home/hcj/UEFIWorkspace/Build/NetworkPkg/DEBUG_GCC5/X64/MdePkg/Library/UefiDevicePathLib/UefiDevicePathLib/OUTPUT/UefiDevicePathLib.lib(DevicePathToText.obj)
                              (--whole-archive)
/home/hcj/UEFIWorkspace/Build/NetworkPkg/DEBUG_GCC5/X64/MdePkg/Library/UefiDevicePathLib/UefiDevicePathLib/OUTPUT/UefiDevicePathLib.lib(DevicePathFromText.obj)
                              (--whole-archive)
/home/hcj/UEFIWorkspace/Build/NetworkPkg/DEBUG_GCC5/X64/MdePkg/Library/UefiDevicePathLib/UefiDevicePathLib/OUTPUT/UefiDevicePathLib.lib(UefiDevicePathLib.obj)
                              (--whole-archive)
/home/hcj/UEFIWorkspace/Build/NetworkPkg/DEBUG_GCC5/X64/MdePkg/Library/UefiRuntimeServicesTableLib/UefiRuntimeServicesTableLib/OUTPUT/UefiRuntimeServicesTableLib.lib(UefiRuntimeServicesTableLib.obj)
                              (--whole-archive)
/home/hcj/UEFIWorkspace/Build/NetworkPkg/DEBUG_GCC5/X64/MdePkg/Library/UefiLib/UefiLib/OUTPUT/UefiLib.lib(UefiLibPrint.obj)
                              (--whole-archive)
/home/hcj/UEFIWorkspace/Build/NetworkPkg/DEBUG_GCC5/X64/MdePkg/Library/UefiLib/UefiLib/OUTPUT/UefiLib.lib(UefiNotTiano.obj)
                              (--whole-archive)
/home/hcj/UEFIWorkspace/Build/NetworkPkg/DEBUG_GCC5/X64/MdePkg/Library/UefiLib/UefiLib/OUTPUT/UefiLib.lib(UefiDriverModel.obj)
                              (--whole-archive)
/home/hcj/UEFIWorkspace/Build/NetworkPkg/DEBUG_GCC5/X64/MdePkg/Library/UefiLib/UefiLib/OUTPUT/UefiLib.lib(Console.obj)
                              (--whole-archive)
/home/hcj/UEFIWorkspace/Build/NetworkPkg/DEBUG_GCC5/X64/MdePkg/Library/UefiLib/UefiLib/OUTPUT/UefiLib.lib(UefiLib.obj)
                              (--whole-archive)
/home/hcj/UEFIWorkspace/Build/NetworkPkg/DEBUG_GCC5/X64/MdePkg/Library/UefiLib/UefiLib/OUTPUT/UefiLib.lib(Acpi.obj)
                              (--whole-archive)
/home/hcj/UEFIWorkspace/Build/NetworkPkg/DEBUG_GCC5/X64/NetworkPkg/Library/DxeDpcLib/DxeDpcLib/OUTPUT/DxeDpcLib.lib(DpcLib.obj)
                              (--whole-archive)
/home/hcj/UEFIWorkspace/Build/NetworkPkg/DEBUG_GCC5/X64/MdePkg/Library/UefiDriverEntryPoint/UefiDriverEntryPoint/OUTPUT/UefiDriverEntryPoint.lib(DriverEntryPoint.obj)
                              (--whole-archive)
/home/hcj/UEFIWorkspace/Build/NetworkPkg/DEBUG_GCC5/X64/NetworkPkg/Library/DxeNetLib/DxeNetLib/OUTPUT/DxeNetLib.lib(DxeNetLib.obj)
                              (--whole-archive)
/home/hcj/UEFIWorkspace/Build/NetworkPkg/DEBUG_GCC5/X64/NetworkPkg/Library/DxeNetLib/DxeNetLib/OUTPUT/DxeNetLib.lib(NetBuffer.obj)
                              (--whole-archive)
/home/hcj/UEFIWorkspace/Build/NetworkPkg/DEBUG_GCC5/X64/NetworkPkg/Library/DxeUdpIoLib/DxeUdpIoLib/OUTPUT/DxeUpdIoLib.lib(DxeUdpIoLib.obj)
                              (--whole-archive)

Discarded input sections

 .text          0x0000000000000000        0x0 /tmp/ccnn792W.ltrans0.ltrans.o
 .data          0x0000000000000000        0x0 /tmp/ccnn792W.ltrans0.ltrans.o
 .bss           0x0000000000000000        0x0 /tmp/ccnn792W.ltrans0.ltrans.o
 .text.unlikely.Dns6DriverBindingSupported
                0x0000000000000000        0x0 /tmp/ccnn792W.ltrans0.ltrans.o
 .text.unlikely.Dns6ServiceBindingDestroyChild
                0x0000000000000000        0x0 /tmp/ccnn792W.ltrans0.ltrans.o
 .text.unlikely.Dns4ServiceBindingDestroyChild
                0x0000000000000000        0x0 /tmp/ccnn792W.ltrans0.ltrans.o
 .text.unlikely.Dns6ServiceBindingCreateChild
                0x0000000000000000        0x0 /tmp/ccnn792W.ltrans0.ltrans.o
 .text.unlikely.Dns4ServiceBindingCreateChild
                0x0000000000000000        0x0 /tmp/ccnn792W.ltrans0.ltrans.o
 .text.unlikely.Dns6DriverBindingStop
                0x0000000000000000        0x0 /tmp/ccnn792W.ltrans0.ltrans.o
 .text.unlikely.Dns6DriverBindingStart
                0x0000000000000000        0x0 /tmp/ccnn792W.ltrans0.ltrans.o
 .text.unlikely.Dns6CleanConfigure
                0x0000000000000000        0x0 /tmp/ccnn792W.ltrans0.ltrans.o
 .text.unlikely.Dns6CopyConfigure
                0x0000000000000000        0x0 /tmp/ccnn792W.ltrans0.ltrans.o
 .text.unlikely.Dns4CleanConfigure
                0x0000000000000000        0x0 /tmp/ccnn792W.ltrans0.ltrans.o
 .text.unlikely.Dns4CopyConfigure
                0x0000000000000000        0x0 /tmp/ccnn792W.ltrans0.ltrans.o
 .text.unlikely.Dns6InstanceCancelToken
                0x0000000000000000        0x0 /tmp/ccnn792W.ltrans0.ltrans.o
 .text.unlikely.Dns4InstanceCancelToken
                0x0000000000000000        0x0 /tmp/ccnn792W.ltrans0.ltrans.o
 .text.unlikely.Dns4RemoveTokenEntry
                0x0000000000000000        0x0 /tmp/ccnn792W.ltrans0.ltrans.o
 .text.unlikely.Dns6CancelTokens
                0x0000000000000000        0x0 /tmp/ccnn792W.ltrans0.ltrans.o
 .text.unlikely.Dns4CancelTokens
                0x0000000000000000        0x0 /tmp/ccnn792W.ltrans0.ltrans.o
 .comment       0x0000000000000000       0x2e /tmp/ccnn792W.ltrans0.ltrans.o
 .note.GNU-stack
                0x0000000000000000        0x0 /tmp/ccnn792W.ltrans0.ltrans.o
 .text          0x0000000000000000        0x0 /tmp/ccnn792W.ltrans1.ltrans.o
 .data          0x0000000000000000        0x0 /tmp/ccnn792W.ltrans1.ltrans.o
 .bss           0x0000000000000000        0x0 /tmp/ccnn792W.ltrans1.ltrans.o
 .text.unlikely.DnsDummyExtFree
                0x0000000000000000        0x0 /tmp/ccnn792W.ltrans1.ltrans.o
 .text.unlikely.IsValidDnsResponse
                0x0000000000000000        0x0 /tmp/ccnn792W.ltrans1.ltrans.o
 .text.unlikely.UpdateDns6Cache
                0x0000000000000000        0x0 /tmp/ccnn792W.ltrans1.ltrans.o
 .text.unlikely.UpdateDns4Cache
                0x0000000000000000        0x0 /tmp/ccnn792W.ltrans1.ltrans.o
 .text.unlikely.DnsOnPacketReceived
                0x0000000000000000        0x0 /tmp/ccnn792W.ltrans1.ltrans.o
 .comment       0x0000000000000000       0x2e /tmp/ccnn792W.ltrans1.ltrans.o
 .note.GNU-stack
                0x0000000000000000        0x0 /tmp/ccnn792W.ltrans1.ltrans.o
 .text          0x0000000000000000        0x0 /tmp/ccnn792W.ltrans2.ltrans.o
 .data          0x0000000000000000        0x0 /tmp/ccnn792W.ltrans2.ltrans.o
 .bss           0x0000000000000000        0x0 /tmp/ccnn792W.ltrans2.ltrans.o
 .text.unlikely.DhcpCommonNotify
                0x0000000000000000        0x0 /tmp/ccnn792W.ltrans2.ltrans.o
 .text.unlikely.Dns6IpToHostName
                0x0000000000000000        0x0 /tmp/ccnn792W.ltrans2.ltrans.o
 .text.unlikely.ParseDhcp6Ack
                0x0000000000000000        0x0 /tmp/ccnn792W.ltrans2.ltrans.o
 .text.unlikely.Dns6Poll
                0x0000000000000000        0x0 /tmp/ccnn792W.ltrans2.ltrans.o
 .text.unlikely.Dns6Cancel
                0x0000000000000000        0x0 /tmp/ccnn792W.ltrans2.ltrans.o
 .text.unlikely.Dns6UpdateDnsCache
                0x0000000000000000        0x0 /tmp/ccnn792W.ltrans2.ltrans.o
 .text.unlikely.GetDns4ServerFromDhcp4
                0x0000000000000000        0x0 /tmp/ccnn792W.ltrans2.ltrans.o
 .text.unlikely.Dns6GeneralLookUp
                0x0000000000000000        0x0 /tmp/ccnn792W.ltrans2.ltrans.o
 .text.unlikely.Dns6HostNameToIp
                0x0000000000000000        0x0 /tmp/ccnn792W.ltrans2.ltrans.o
 .comment       0x0000000000000000       0x2e /tmp/ccnn792W.ltrans2.ltrans.o
 .note.GNU-stack
                0x0000000000000000        0x0 /tmp/ccnn792W.ltrans2.ltrans.o
 .text          0x0000000000000000        0x0 /tmp/ccnn792W.ltrans3.ltrans.o
 .data          0x0000000000000000        0x0 /tmp/ccnn792W.ltrans3.ltrans.o
 .bss           0x0000000000000000        0x0 /tmp/ccnn792W.ltrans3.ltrans.o
 .text.unlikely.UnicodeVSPrintAsciiFormat.constprop.36
                0x0000000000000000        0x0 /tmp/ccnn792W.ltrans3.ltrans.o
 .text.unlikely.UnicodeSPrintAsciiFormat.constprop.35
                0x0000000000000000        0x0 /tmp/ccnn792W.ltrans3.ltrans.o
 .text.unlikely.DebugPrintMarker.constprop.33
                0x0000000000000000        0x0 /tmp/ccnn792W.ltrans3.ltrans.o
 .text.unlikely.InternalAllocatePool.constprop.32
                0x0000000000000000        0x0 /tmp/ccnn792W.ltrans3.ltrans.o
 .text.unlikely.AddUnicodeString2.constprop.29
                0x0000000000000000        0x0 /tmp/ccnn792W.ltrans3.ltrans.o
 .text.unlikely.EfiLibInstallDriverBindingComponentName2.constprop.21
                0x0000000000000000        0x0 /tmp/ccnn792W.ltrans3.ltrans.o
 .text.unlikely.EfiLibUninstallDriverBindingComponentName2.constprop.19
                0x0000000000000000        0x0 /tmp/ccnn792W.ltrans3.ltrans.o
 .text.unlikely.UdpIoCancelDgrams.constprop.18
                0x0000000000000000        0x0 /tmp/ccnn792W.ltrans3.ltrans.o
 .text.unlikely.UdpIoCreateIo.constprop.17
                0x0000000000000000        0x0 /tmp/ccnn792W.ltrans3.ltrans.o
 .text.unlikely.NetDestroyLinkList.part.4.constprop.16
                0x0000000000000000        0x0 /tmp/ccnn792W.ltrans3.ltrans.o
 .text.unlikely.NetbufGetByte.constprop.13
                0x0000000000000000        0x0 /tmp/ccnn792W.ltrans3.ltrans.o
 .text.unlikely.UdpIoRecvDatagram.constprop.10
                0x0000000000000000        0x0 /tmp/ccnn792W.ltrans3.ltrans.o
 .text.unlikely.UdpIoSendDatagram.constprop.8
                0x0000000000000000        0x0 /tmp/ccnn792W.ltrans3.ltrans.o
 .rodata._gDriverUnloadImageCount
                0x0000000000000000        0x1 /tmp/ccnn792W.ltrans3.ltrans.o
 .rodata._gPcd_FixedAtBuild_PcdFixedDebugPrintErrorLevel
                0x0000000000000000        0x4 /tmp/ccnn792W.ltrans3.ltrans.o
 .comment       0x0000000000000000       0x2e /tmp/ccnn792W.ltrans3.ltrans.o
 .note.GNU-stack
                0x0000000000000000        0x0 /tmp/ccnn792W.ltrans3.ltrans.o
 .text          0x0000000000000000        0x0 /tmp/ccnn792W.ltrans4.ltrans.o
 .data          0x0000000000000000        0x0 /tmp/ccnn792W.ltrans4.ltrans.o
 .bss           0x0000000000000000        0x0 /tmp/ccnn792W.ltrans4.ltrans.o
 .text.unlikely.UdpIoCancelSingleDgram
                0x0000000000000000        0x0 /tmp/ccnn792W.ltrans4.ltrans.o
 .text.unlikely.UdpIoOnDgramRcvd
                0x0000000000000000        0x0 /tmp/ccnn792W.ltrans4.ltrans.o
 .text.unlikely.UdpIoOnDgramSent
                0x0000000000000000        0x0 /tmp/ccnn792W.ltrans4.ltrans.o
 .text.unlikely.NetbufSetBlock
                0x0000000000000000        0x0 /tmp/ccnn792W.ltrans4.ltrans.o
 .text.unlikely.NetbufFromExt.constprop.7
                0x0000000000000000        0x0 /tmp/ccnn792W.ltrans4.ltrans.o
 .text.unlikely.NetLibGetSnpHandle.constprop.4
                0x0000000000000000        0x0 /tmp/ccnn792W.ltrans4.ltrans.o
 .text.unlikely.NetLibDetectMedia.constprop.3
                0x0000000000000000        0x0 /tmp/ccnn792W.ltrans4.ltrans.o
 .text.unlikely.UdpIoCleanIo
                0x0000000000000000        0x0 /tmp/ccnn792W.ltrans4.ltrans.o
 .text.unlikely.UdpIoFreeIo
                0x0000000000000000        0x0 /tmp/ccnn792W.ltrans4.ltrans.o
 .text.unlikely.UdpIoFreeRxToken
                0x0000000000000000        0x0 /tmp/ccnn792W.ltrans4.ltrans.o
 .text.unlikely.UdpIoOnDgramRcvdDpc
                0x0000000000000000        0x0 /tmp/ccnn792W.ltrans4.ltrans.o
 .text.unlikely.UdpIoRecycleDgram
                0x0000000000000000        0x0 /tmp/ccnn792W.ltrans4.ltrans.o
 .text.unlikely.UdpIoFreeTxToken
                0x0000000000000000        0x0 /tmp/ccnn792W.ltrans4.ltrans.o
 .text.unlikely.UdpIoOnDgramSentDpc
                0x0000000000000000        0x0 /tmp/ccnn792W.ltrans4.ltrans.o
 .text.unlikely.NetbufBuildExt
                0x0000000000000000        0x0 /tmp/ccnn792W.ltrans4.ltrans.o
 .text.unlikely.NetbufFree
                0x0000000000000000        0x0 /tmp/ccnn792W.ltrans4.ltrans.o
 .comment       0x0000000000000000       0x2e /tmp/ccnn792W.ltrans4.ltrans.o
 .note.GNU-stack
                0x0000000000000000        0x0 /tmp/ccnn792W.ltrans4.ltrans.o
 .text          0x0000000000000000        0x0 /tmp/ccnn792W.ltrans5.ltrans.o
 .data          0x0000000000000000        0x0 /tmp/ccnn792W.ltrans5.ltrans.o
 .bss           0x0000000000000000        0x0 /tmp/ccnn792W.ltrans5.ltrans.o
 .text.unlikely.Dns4IpToHostName
                0x0000000000000000        0x0 /tmp/ccnn792W.ltrans5.ltrans.o
 .text.unlikely.Dns4Poll
                0x0000000000000000        0x0 /tmp/ccnn792W.ltrans5.ltrans.o
 .text.unlikely.Dns6Configure
                0x0000000000000000        0x0 /tmp/ccnn792W.ltrans5.ltrans.o
 .text.unlikely.Dns6GetModeData
                0x0000000000000000        0x0 /tmp/ccnn792W.ltrans5.ltrans.o
 .text.unlikely.Dns4Cancel
                0x0000000000000000        0x0 /tmp/ccnn792W.ltrans5.ltrans.o
 .text.unlikely.Dns4UpdateDnsCache
                0x0000000000000000        0x0 /tmp/ccnn792W.ltrans5.ltrans.o
 .text.unlikely.Dns4GeneralLookUp
                0x0000000000000000        0x0 /tmp/ccnn792W.ltrans5.ltrans.o
 .text.unlikely.Dns4HostNameToIp
                0x0000000000000000        0x0 /tmp/ccnn792W.ltrans5.ltrans.o
 .comment       0x0000000000000000       0x2e /tmp/ccnn792W.ltrans5.ltrans.o
 .note.GNU-stack
                0x0000000000000000        0x0 /tmp/ccnn792W.ltrans5.ltrans.o
 .text          0x0000000000000000        0x0 /tmp/ccnn792W.ltrans6.ltrans.o
 .data          0x0000000000000000        0x0 /tmp/ccnn792W.ltrans6.ltrans.o
 .bss           0x0000000000000000        0x0 /tmp/ccnn792W.ltrans6.ltrans.o
 .text.unlikely.NetLibDetectMediaWaitTimeout.part.6.lto_priv.41
                0x0000000000000000        0x0 /tmp/ccnn792W.ltrans6.ltrans.o
 .text.unlikely.NetLibCreateDnsQName
                0x0000000000000000        0x0 /tmp/ccnn792W.ltrans6.ltrans.o
 .text.unlikely.NetLibGetNicHandle
                0x0000000000000000        0x0 /tmp/ccnn792W.ltrans6.ltrans.o
 .text.unlikely.NetLibDestroyServiceChild
                0x0000000000000000        0x0 /tmp/ccnn792W.ltrans6.ltrans.o
 .text.unlikely.NetLibCreateServiceChild
                0x0000000000000000        0x0 /tmp/ccnn792W.ltrans6.ltrans.o
 .text.unlikely.NetMapIterate
                0x0000000000000000        0x0 /tmp/ccnn792W.ltrans6.ltrans.o
 .text.unlikely.NetMapGetCount
                0x0000000000000000        0x0 /tmp/ccnn792W.ltrans6.ltrans.o
 .text.unlikely.NetMapIsEmpty
                0x0000000000000000        0x0 /tmp/ccnn792W.ltrans6.ltrans.o
 .text.unlikely.NetMapInit
                0x0000000000000000        0x0 /tmp/ccnn792W.ltrans6.ltrans.o
 .text.unlikely.NetListRemoveHead
                0x0000000000000000        0x0 /tmp/ccnn792W.ltrans6.ltrans.o
 .text.unlikely.NetMapInsertTail
                0x0000000000000000        0x0 /tmp/ccnn792W.ltrans6.ltrans.o
 .text.unlikely.NetRandomInitSeed
                0x0000000000000000        0x0 /tmp/ccnn792W.ltrans6.ltrans.o
 .text.unlikely.Ip6Swap128
                0x0000000000000000        0x0 /tmp/ccnn792W.ltrans6.ltrans.o
 .text.unlikely._ModuleEntryPoint
                0x0000000000000000        0x0 /tmp/ccnn792W.ltrans6.ltrans.o
 .rodata._gUefiDriverRevision
                0x0000000000000000        0x4 /tmp/ccnn792W.ltrans6.ltrans.o
 .rodata._gPcd_FixedAtBuild_PcdDebugPropertyMask
                0x0000000000000000        0x1 /tmp/ccnn792W.ltrans6.ltrans.o
 .comment       0x0000000000000000       0x2e /tmp/ccnn792W.ltrans6.ltrans.o
 .note.GNU-stack
                0x0000000000000000        0x0 /tmp/ccnn792W.ltrans6.ltrans.o
 .text          0x0000000000000000        0x0 /tmp/ccnn792W.ltrans7.ltrans.o
 .data          0x0000000000000000        0x0 /tmp/ccnn792W.ltrans7.ltrans.o
 .bss           0x0000000000000000        0x0 /tmp/ccnn792W.ltrans7.ltrans.o
 .text.unlikely.Dns4DriverBindingSupported
                0x0000000000000000        0x0 /tmp/ccnn792W.ltrans7.ltrans.o
 .text.unlikely.DnsConfigNullUdp
                0x0000000000000000        0x0 /tmp/ccnn792W.ltrans7.ltrans.o
 .text.unlikely.DnsDestroyChildEntryInHandleBuffer
                0x0000000000000000        0x0 /tmp/ccnn792W.ltrans7.ltrans.o
 .text.unlikely.UpdateDns6Name.part.1
                0x0000000000000000        0x0 /tmp/ccnn792W.ltrans7.ltrans.o
 .text.unlikely.DnsComponentNameGetControllerName
                0x0000000000000000        0x0 /tmp/ccnn792W.ltrans7.ltrans.o
 .text.unlikely.DnsComponentNameGetDriverName
                0x0000000000000000        0x0 /tmp/ccnn792W.ltrans7.ltrans.o
 .text.unlikely.DnsCreateService
                0x0000000000000000        0x0 /tmp/ccnn792W.ltrans7.ltrans.o
 .text.unlikely.DnsDestroyService
                0x0000000000000000        0x0 /tmp/ccnn792W.ltrans7.ltrans.o
 .text.unlikely.Dns4DriverBindingStop
                0x0000000000000000        0x0 /tmp/ccnn792W.ltrans7.ltrans.o
 .text.unlikely.Dns4DriverBindingStart
                0x0000000000000000        0x0 /tmp/ccnn792W.ltrans7.ltrans.o
 .text.unlikely.DnsCreateInstance
                0x0000000000000000        0x0 /tmp/ccnn792W.ltrans7.ltrans.o
 .text.unlikely.DnsDestroyInstance
                0x0000000000000000        0x0 /tmp/ccnn792W.ltrans7.ltrans.o
 .comment       0x0000000000000000       0x2e /tmp/ccnn792W.ltrans7.ltrans.o
 .note.GNU-stack
                0x0000000000000000        0x0 /tmp/ccnn792W.ltrans7.ltrans.o
 .text          0x0000000000000000        0x0 /tmp/ccnn792W.ltrans8.ltrans.o
 .data          0x0000000000000000        0x0 /tmp/ccnn792W.ltrans8.ltrans.o
 .bss           0x0000000000000000        0x0 /tmp/ccnn792W.ltrans8.ltrans.o
 .text.unlikely.ReadUnaligned24
                0x0000000000000000        0x0 /tmp/ccnn792W.ltrans8.ltrans.o
 .text.unlikely.ReadUnaligned16
                0x0000000000000000        0x0 /tmp/ccnn792W.ltrans8.ltrans.o
 .text.unlikely.AsciiStrLen
                0x0000000000000000        0x0 /tmp/ccnn792W.ltrans8.ltrans.o
 .text.unlikely.AsciiStrnCmp.part.4.lto_priv.39
                0x0000000000000000        0x0 /tmp/ccnn792W.ltrans8.ltrans.o
 .text.unlikely.StrLen
                0x0000000000000000        0x0 /tmp/ccnn792W.ltrans8.ltrans.o
 .text.unlikely.StrSize
                0x0000000000000000        0x0 /tmp/ccnn792W.ltrans8.ltrans.o
 .text.unlikely.StrCmp
                0x0000000000000000        0x0 /tmp/ccnn792W.ltrans8.ltrans.o
 .text.unlikely.AsciiStrnLenS
                0x0000000000000000        0x0 /tmp/ccnn792W.ltrans8.ltrans.o
 .text.unlikely.StrnLenS
                0x0000000000000000        0x0 /tmp/ccnn792W.ltrans8.ltrans.o
 .text.unlikely.InitializeListHead
                0x0000000000000000        0x0 /tmp/ccnn792W.ltrans8.ltrans.o
 .text.unlikely.InternalBaseLibIsListValid
                0x0000000000000000        0x0 /tmp/ccnn792W.ltrans8.ltrans.o
 .text.unlikely.IsListEmpty
                0x0000000000000000        0x0 /tmp/ccnn792W.ltrans8.ltrans.o
 .text.unlikely.RemoveEntryList
                0x0000000000000000        0x0 /tmp/ccnn792W.ltrans8.ltrans.o
 .text.unlikely.GetFirstNode
                0x0000000000000000        0x0 /tmp/ccnn792W.ltrans8.ltrans.o
 .text.unlikely.IsNodeInList
                0x0000000000000000        0x0 /tmp/ccnn792W.ltrans8.ltrans.o
 .text.unlikely.InsertTailList
                0x0000000000000000        0x0 /tmp/ccnn792W.ltrans8.ltrans.o
 .text.unlikely.InsertHeadList
                0x0000000000000000        0x0 /tmp/ccnn792W.ltrans8.ltrans.o
 .text.unlikely.InternalAssertJumpBuffer
                0x0000000000000000        0x0 /tmp/ccnn792W.ltrans8.ltrans.o
 .text.InternalAssertJumpBuffer
                0x0000000000000000       0x56 /tmp/ccnn792W.ltrans8.ltrans.o
 .text.unlikely.SwapBytes32
                0x0000000000000000        0x0 /tmp/ccnn792W.ltrans8.ltrans.o
 .text.unlikely.CopyMem
                0x0000000000000000        0x0 /tmp/ccnn792W.ltrans8.ltrans.o
 .text.unlikely.CompareMem
                0x0000000000000000        0x0 /tmp/ccnn792W.ltrans8.ltrans.o
 .text.unlikely.ZeroMem
                0x0000000000000000        0x0 /tmp/ccnn792W.ltrans8.ltrans.o
 .text.unlikely.ProcessLibraryDestructorList
                0x0000000000000000        0x0 /tmp/ccnn792W.ltrans8.ltrans.o
 .comment       0x0000000000000000       0x2e /tmp/ccnn792W.ltrans8.ltrans.o
 .note.GNU-stack
                0x0000000000000000        0x0 /tmp/ccnn792W.ltrans8.ltrans.o
 .text          0x0000000000000000        0x0 /tmp/ccnn792W.ltrans9.ltrans.o
 .data          0x0000000000000000        0x0 /tmp/ccnn792W.ltrans9.ltrans.o
 .bss           0x0000000000000000        0x0 /tmp/ccnn792W.ltrans9.ltrans.o
 .text.unlikely.Dns4Configure
                0x0000000000000000        0x0 /tmp/ccnn792W.ltrans9.ltrans.o
 .text.unlikely.Dns4GetModeData
                0x0000000000000000        0x0 /tmp/ccnn792W.ltrans9.ltrans.o
 .text.unlikely.DnsOnTimerUpdate
                0x0000000000000000        0x0 /tmp/ccnn792W.ltrans9.ltrans.o
 .text.unlikely.DnsOnPacketSent
                0x0000000000000000        0x0 /tmp/ccnn792W.ltrans9.ltrans.o
 .text.unlikely.DnsRetransmit
                0x0000000000000000        0x0 /tmp/ccnn792W.ltrans9.ltrans.o
 .text.unlikely.ConstructDNSQuery
                0x0000000000000000        0x0 /tmp/ccnn792W.ltrans9.ltrans.o
 .text.unlikely.DoDnsQuery
                0x0000000000000000        0x0 /tmp/ccnn792W.ltrans9.ltrans.o
 .text.unlikely.DnsOnTimerRetransmit
                0x0000000000000000        0x0 /tmp/ccnn792W.ltrans9.ltrans.o
 .comment       0x0000000000000000       0x2e /tmp/ccnn792W.ltrans9.ltrans.o
 .note.GNU-stack
                0x0000000000000000        0x0 /tmp/ccnn792W.ltrans9.ltrans.o
 .text          0x0000000000000000        0x0 /tmp/ccnn792W.ltrans10.ltrans.o
 .data          0x0000000000000000        0x0 /tmp/ccnn792W.ltrans10.ltrans.o
 .bss           0x0000000000000000        0x0 /tmp/ccnn792W.ltrans10.ltrans.o
 .text.unlikely.BasePrintLibSPrintMarker.constprop.37
                0x0000000000000000        0x0 /tmp/ccnn792W.ltrans10.ltrans.o
 .comment       0x0000000000000000       0x2e /tmp/ccnn792W.ltrans10.ltrans.o
 .note.GNU-stack
                0x0000000000000000        0x0 /tmp/ccnn792W.ltrans10.ltrans.o
 .text          0x0000000000000000        0x0 /tmp/ccnn792W.ltrans11.ltrans.o
 .data          0x0000000000000000        0x0 /tmp/ccnn792W.ltrans11.ltrans.o
 .bss           0x0000000000000000        0x0 /tmp/ccnn792W.ltrans11.ltrans.o
 .text.unlikely.ExitBootServicesCallback
                0x0000000000000000        0x0 /tmp/ccnn792W.ltrans11.ltrans.o
 .text.unlikely.DebugAssert.part.0
                0x0000000000000000        0x0 /tmp/ccnn792W.ltrans11.ltrans.o
 .text.unlikely.DispatchDpc
                0x0000000000000000        0x0 /tmp/ccnn792W.ltrans11.ltrans.o
 .text.unlikely.IsLanguageSupported
                0x0000000000000000        0x0 /tmp/ccnn792W.ltrans11.ltrans.o
 .text.unlikely.LookupUnicodeString2
                0x0000000000000000        0x0 /tmp/ccnn792W.ltrans11.ltrans.o
 .text.unlikely.AllocateZeroPool
                0x0000000000000000        0x0 /tmp/ccnn792W.ltrans11.ltrans.o
 .text.unlikely.AllocatePool
                0x0000000000000000        0x0 /tmp/ccnn792W.ltrans11.ltrans.o
 .text.unlikely.DebugPrintEnabled
                0x0000000000000000        0x0 /tmp/ccnn792W.ltrans11.ltrans.o
 .text.unlikely.DebugAssertEnabled
                0x0000000000000000        0x0 /tmp/ccnn792W.ltrans11.ltrans.o
 .text.unlikely.DebugAssert
                0x0000000000000000        0x0 /tmp/ccnn792W.ltrans11.ltrans.o
 .text.unlikely.AllocateCopyPool
                0x0000000000000000        0x0 /tmp/ccnn792W.ltrans11.ltrans.o
 .text.unlikely.DebugPrint
                0x0000000000000000        0x0 /tmp/ccnn792W.ltrans11.ltrans.o
 .text.unlikely.FreePool
                0x0000000000000000        0x0 /tmp/ccnn792W.ltrans11.ltrans.o
 .text.unlikely._DriverUnloadHandler
                0x0000000000000000        0x0 /tmp/ccnn792W.ltrans11.ltrans.o
 .text.unlikely.FreeUnicodeStringTable
                0x0000000000000000        0x0 /tmp/ccnn792W.ltrans11.ltrans.o
 .text.unlikely.EfiTestChildHandle
                0x0000000000000000        0x0 /tmp/ccnn792W.ltrans11.ltrans.o
 .text.unlikely.UnicodeSPrint
                0x0000000000000000        0x0 /tmp/ccnn792W.ltrans11.ltrans.o
 .text.unlikely.BasePrintLibFillBuffer
                0x0000000000000000        0x0 /tmp/ccnn792W.ltrans11.ltrans.o
 .comment       0x0000000000000000       0x2e /tmp/ccnn792W.ltrans11.ltrans.o
 .note.GNU-stack
                0x0000000000000000        0x0 /tmp/ccnn792W.ltrans11.ltrans.o
 .text          0x0000000000000000        0x0 /tmp/ccnn792W.ltrans12.ltrans.o
 .data          0x0000000000000000        0x0 /tmp/ccnn792W.ltrans12.ltrans.o
 .bss           0x0000000000000000        0x0 /tmp/ccnn792W.ltrans12.ltrans.o
 .text.unlikely.BasePrintLibSPrint.constprop.38
                0x0000000000000000        0x0 /tmp/ccnn792W.ltrans12.ltrans.o
 .comment       0x0000000000000000       0x2e /tmp/ccnn792W.ltrans12.ltrans.o
 .note.GNU-stack
                0x0000000000000000        0x0 /tmp/ccnn792W.ltrans12.ltrans.o
 .text          0x0000000000000000      0x204 /home/hcj/UEFIWorkspace/Build/NetworkPkg/DEBUG_GCC5/X64/MdePkg/Library/BaseLib/BaseLib/OUTPUT/BaseLib.lib(Thunk16.obj)
 .data          0x0000000000000000        0xa /home/hcj/UEFIWorkspace/Build/NetworkPkg/DEBUG_GCC5/X64/MdePkg/Library/BaseLib/BaseLib/OUTPUT/BaseLib.lib(Thunk16.obj)
 .text          0x0000000000000000       0x2f /home/hcj/UEFIWorkspace/Build/NetworkPkg/DEBUG_GCC5/X64/MdePkg/Library/BaseLib/BaseLib/OUTPUT/BaseLib.lib(CpuIdEx.obj)
 .text          0x0000000000000000       0x27 /home/hcj/UEFIWorkspace/Build/NetworkPkg/DEBUG_GCC5/X64/MdePkg/Library/BaseLib/BaseLib/OUTPUT/BaseLib.lib(CpuId.obj)
 .text          0x0000000000000000       0xac /home/hcj/UEFIWorkspace/Build/NetworkPkg/DEBUG_GCC5/X64/MdePkg/Library/BaseLib/BaseLib/OUTPUT/BaseLib.lib(LongJump.obj)
 .text          0x0000000000000000       0xc2 /home/hcj/UEFIWorkspace/Build/NetworkPkg/DEBUG_GCC5/X64/MdePkg/Library/BaseLib/BaseLib/OUTPUT/BaseLib.lib(SetJump.obj)
 .text          0x0000000000000000        0xf /home/hcj/UEFIWorkspace/Build/NetworkPkg/DEBUG_GCC5/X64/MdePkg/Library/BaseLib/BaseLib/OUTPUT/BaseLib.lib(SwitchStack.obj)
 .text          0x0000000000000000       0x13 /home/hcj/UEFIWorkspace/Build/NetworkPkg/DEBUG_GCC5/X64/MdePkg/Library/BaseLib/BaseLib/OUTPUT/BaseLib.lib(EnableCache.obj)
 .text          0x0000000000000000       0x13 /home/hcj/UEFIWorkspace/Build/NetworkPkg/DEBUG_GCC5/X64/MdePkg/Library/BaseLib/BaseLib/OUTPUT/BaseLib.lib(DisableCache.obj)
 .text          0x0000000000000000        0x6 /home/hcj/UEFIWorkspace/Build/NetworkPkg/DEBUG_GCC5/X64/MdePkg/Library/BaseLib/BaseLib/OUTPUT/BaseLib.lib(WriteTr.obj)
 .text          0x0000000000000000        0x4 /home/hcj/UEFIWorkspace/Build/NetworkPkg/DEBUG_GCC5/X64/MdePkg/Library/BaseLib/BaseLib/OUTPUT/BaseLib.lib(Lfence.obj)
 .text          0x0000000000000000        0x3 /home/hcj/UEFIWorkspace/Build/NetworkPkg/DEBUG_GCC5/X64/MdePkg/Library/BaseLib/BaseLib/OUTPUT/BaseLib.lib(EnableDisableInterrupts.obj)
 .text          0x0000000000000000       0x61 /home/hcj/UEFIWorkspace/Build/NetworkPkg/DEBUG_GCC5/X64/MdePkg/Library/BaseLib/BaseLib/OUTPUT/BaseLib.lib(DisablePaging64.obj)
 .text          0x0000000000000000       0x1b /home/hcj/UEFIWorkspace/Build/NetworkPkg/DEBUG_GCC5/X64/MdePkg/Library/BaseLib/BaseLib/OUTPUT/BaseLib.lib(Pvalidate.obj)
 .text          0x0000000000000000       0x36 /home/hcj/UEFIWorkspace/Build/NetworkPkg/DEBUG_GCC5/X64/MdePkg/Library/BaseLib/BaseLib/OUTPUT/BaseLib.lib(RdRand.obj)
 .text          0x0000000000000000        0xe /home/hcj/UEFIWorkspace/Build/NetworkPkg/DEBUG_GCC5/X64/MdePkg/Library/BaseLib/BaseLib/OUTPUT/BaseLib.lib(RmpAdjust.obj)
 .text          0x0000000000000000        0xb /home/hcj/UEFIWorkspace/Build/NetworkPkg/DEBUG_GCC5/X64/MdePkg/Library/BaseLib/BaseLib/OUTPUT/BaseLib.lib(XGetBv.obj)
 .text          0x0000000000000000        0xb /home/hcj/UEFIWorkspace/Build/NetworkPkg/DEBUG_GCC5/X64/MdePkg/Library/BaseLib/BaseLib/OUTPUT/BaseLib.lib(XSetBv.obj)
 .text          0x0000000000000000        0x5 /home/hcj/UEFIWorkspace/Build/NetworkPkg/DEBUG_GCC5/X64/MdePkg/Library/BaseLib/BaseLib/OUTPUT/BaseLib.lib(VmgExit.obj)

Memory Configuration

Name             Origin             Length             Attributes
*default*        0x0000000000000000 0xffffffffffffffff

Linker script and memory map

LOAD /tmp/ccnn792W.ltrans0.ltrans.o
LOAD /tmp/ccnn792W.ltrans1.ltrans.o
LOAD /tmp/ccnn792W.ltrans2.ltrans.o
LOAD /tmp/ccnn792W.ltrans3.ltrans.o
LOAD /tmp/ccnn792W.ltrans4.ltrans.o
LOAD /tmp/ccnn792W.ltrans5.ltrans.o
LOAD /tmp/ccnn792W.ltrans6.ltrans.o
LOAD /tmp/ccnn792W.ltrans7.ltrans.o
LOAD /tmp/ccnn792W.ltrans8.ltrans.o
LOAD /tmp/ccnn792W.ltrans9.ltrans.o
LOAD /tmp/ccnn792W.ltrans10.ltrans.o
LOAD /tmp/ccnn792W.ltrans11.ltrans.o
LOAD /tmp/ccnn792W.ltrans12.ltrans.o
START GROUP
LOAD /home/hcj/UEFIWorkspace/Build/NetworkPkg/DEBUG_GCC5/X64/NetworkPkg/DnsDxe/DnsDxe/OUTPUT/DnsDxe.lib
LOAD /home/hcj/UEFIWorkspace/Build/NetworkPkg/DEBUG_GCC5/X64/MdePkg/Library/RegisterFilterLibNull/RegisterFilterLibNull/OUTPUT/FilterLibNull.lib
LOAD /home/hcj/UEFIWorkspace/Build/NetworkPkg/DEBUG_GCC5/X64/MdePkg/Library/BasePcdLibNull/BasePcdLibNull/OUTPUT/BasePcdLibNull.lib
LOAD /home/hcj/UEFIWorkspace/Build/NetworkPkg/DEBUG_GCC5/X64/MdePkg/Library/BaseMemoryLib/BaseMemoryLib/OUTPUT/BaseMemoryLib.lib
LOAD /home/hcj/UEFIWorkspace/Build/NetworkPkg/DEBUG_GCC5/X64/MdePkg/Library/BaseLib/BaseLib/OUTPUT/BaseLib.lib
LOAD /home/hcj/UEFIWorkspace/Build/NetworkPkg/DEBUG_GCC5/X64/MdePkg/Library/BaseDebugPrintErrorLevelLib/BaseDebugPrintErrorLevelLib/OUTPUT/BaseDebugPrintErrorLevelLib.lib
LOAD /home/hcj/UEFIWorkspace/Build/NetworkPkg/DEBUG_GCC5/X64/MdePkg/Library/BasePrintLib/BasePrintLib/OUTPUT/BasePrintLib.lib
LOAD /home/hcj/UEFIWorkspace/Build/NetworkPkg/DEBUG_GCC5/X64/MdePkg/Library/UefiDebugLibConOut/UefiDebugLibConOut/OUTPUT/UefiDebugLibConOut.lib
LOAD /home/hcj/UEFIWorkspace/Build/NetworkPkg/DEBUG_GCC5/X64/MdePkg/Library/UefiBootServicesTableLib/UefiBootServicesTableLib/OUTPUT/UefiBootServicesTableLib.lib
LOAD /home/hcj/UEFIWorkspace/Build/NetworkPkg/DEBUG_GCC5/X64/MdePkg/Library/UefiMemoryAllocationLib/UefiMemoryAllocationLib/OUTPUT/UefiMemoryAllocationLib.lib
LOAD /home/hcj/UEFIWorkspace/Build/NetworkPkg/DEBUG_GCC5/X64/MdePkg/Library/UefiDevicePathLib/UefiDevicePathLib/OUTPUT/UefiDevicePathLib.lib
LOAD /home/hcj/UEFIWorkspace/Build/NetworkPkg/DEBUG_GCC5/X64/MdePkg/Library/UefiRuntimeServicesTableLib/UefiRuntimeServicesTableLib/OUTPUT/UefiRuntimeServicesTableLib.lib
LOAD /home/hcj/UEFIWorkspace/Build/NetworkPkg/DEBUG_GCC5/X64/MdePkg/Library/UefiLib/UefiLib/OUTPUT/UefiLib.lib
LOAD /home/hcj/UEFIWorkspace/Build/NetworkPkg/DEBUG_GCC5/X64/NetworkPkg/Library/DxeDpcLib/DxeDpcLib/OUTPUT/DxeDpcLib.lib
LOAD /home/hcj/UEFIWorkspace/Build/NetworkPkg/DEBUG_GCC5/X64/MdePkg/Library/UefiDriverEntryPoint/UefiDriverEntryPoint/OUTPUT/UefiDriverEntryPoint.lib
LOAD /home/hcj/UEFIWorkspace/Build/NetworkPkg/DEBUG_GCC5/X64/NetworkPkg/Library/DxeNetLib/DxeNetLib/OUTPUT/DxeNetLib.lib
LOAD /home/hcj/UEFIWorkspace/Build/NetworkPkg/DEBUG_GCC5/X64/NetworkPkg/Library/DxeUdpIoLib/DxeUdpIoLib/OUTPUT/DxeUpdIoLib.lib
END GROUP
                0x0000000000000228                PECOFF_HEADER_SIZE = 0x228
                0x0000000000000228                . = PECOFF_HEADER_SIZE

.text           0x0000000000000240     0xdb99
 *(.text .text.* .stub .gnu.linkonce.t.*)
 .text.Dns6DriverBindingSupported
                0x0000000000000240       0x7b /tmp/ccnn792W.ltrans0.ltrans.o
                0x0000000000000240                Dns6DriverBindingSupported
 .text.Dns6ServiceBindingDestroyChild
                0x00000000000002bb      0x290 /tmp/ccnn792W.ltrans0.ltrans.o
                0x00000000000002bb                Dns6ServiceBindingDestroyChild
 .text.Dns4ServiceBindingDestroyChild
                0x000000000000054b      0x290 /tmp/ccnn792W.ltrans0.ltrans.o
                0x000000000000054b                Dns4ServiceBindingDestroyChild
 .text.Dns6ServiceBindingCreateChild
                0x00000000000007db      0x2c6 /tmp/ccnn792W.ltrans0.ltrans.o
                0x00000000000007db                Dns6ServiceBindingCreateChild
 .text.Dns4ServiceBindingCreateChild
                0x0000000000000aa1      0x2c6 /tmp/ccnn792W.ltrans0.ltrans.o
                0x0000000000000aa1                Dns4ServiceBindingCreateChild
 .text.Dns6DriverBindingStop
                0x0000000000000d67      0x205 /tmp/ccnn792W.ltrans0.ltrans.o
                0x0000000000000d67                Dns6DriverBindingStop
 .text.Dns6DriverBindingStart
                0x0000000000000f6c      0x16d /tmp/ccnn792W.ltrans0.ltrans.o
                0x0000000000000f6c                Dns6DriverBindingStart
 .text.Dns6CleanConfigure
                0x00000000000010d9       0x31 /tmp/ccnn792W.ltrans0.ltrans.o
                0x00000000000010d9                Dns6CleanConfigure
 .text.Dns6CopyConfigure
                0x000000000000110a       0x9d /tmp/ccnn792W.ltrans0.ltrans.o
                0x000000000000110a                Dns6CopyConfigure
 .text.Dns4CleanConfigure
                0x00000000000011a7       0x31 /tmp/ccnn792W.ltrans0.ltrans.o
                0x00000000000011a7                Dns4CleanConfigure
 .text.Dns4CopyConfigure
                0x00000000000011d8       0xa2 /tmp/ccnn792W.ltrans0.ltrans.o
                0x00000000000011d8                Dns4CopyConfigure
 .text.Dns6InstanceCancelToken
                0x000000000000127a       0xfa /tmp/ccnn792W.ltrans0.ltrans.o
                0x000000000000127a                Dns6InstanceCancelToken
 .text.Dns4InstanceCancelToken
                0x0000000000001374       0xfa /tmp/ccnn792W.ltrans0.ltrans.o
                0x0000000000001374                Dns4InstanceCancelToken
 .text.Dns4RemoveTokenEntry
                0x000000000000146e       0xcb /tmp/ccnn792W.ltrans0.ltrans.o
                0x000000000000146e                Dns6RemoveTokenEntry
                0x000000000000146e                Dns4RemoveTokenEntry
 .text.Dns6CancelTokens
                0x0000000000001539      0x124 /tmp/ccnn792W.ltrans0.ltrans.o
 .text.Dns4CancelTokens
                0x000000000000165d      0x124 /tmp/ccnn792W.ltrans0.ltrans.o
 .text.DnsDummyExtFree
                0x0000000000001781        0x1 /tmp/ccnn792W.ltrans1.ltrans.o
                0x0000000000001781                DnsDummyExtFree
 .text.IsValidDnsResponse
                0x0000000000001782       0xe0 /tmp/ccnn792W.ltrans1.ltrans.o
 .text.UpdateDns6Cache
                0x0000000000001862      0x15b /tmp/ccnn792W.ltrans1.ltrans.o
                0x0000000000001862                UpdateDns6Cache
 .text.UpdateDns4Cache
                0x00000000000019bd      0x15b /tmp/ccnn792W.ltrans1.ltrans.o
                0x00000000000019bd                UpdateDns4Cache
 .text.DnsOnPacketReceived
                0x0000000000001b18      0xd7f /tmp/ccnn792W.ltrans1.ltrans.o
                0x0000000000001b18                DnsOnPacketReceived
 .text.DhcpCommonNotify
                0x0000000000002897        0xe /tmp/ccnn792W.ltrans2.ltrans.o
 .text.Dns6IpToHostName
                0x00000000000028a5        0xb /tmp/ccnn792W.ltrans2.ltrans.o
                0x00000000000028a5                Dns6IpToHostName
 .text.ParseDhcp6Ack
                0x00000000000028b0      0x185 /tmp/ccnn792W.ltrans2.ltrans.o
                0x00000000000028b0                ParseDhcp6Ack
 .text.Dns6Poll
                0x0000000000002a35       0x8d /tmp/ccnn792W.ltrans2.ltrans.o
                0x0000000000002a35                Dns6Poll
 .text.Dns6Cancel
                0x0000000000002ac2      0x12d /tmp/ccnn792W.ltrans2.ltrans.o
                0x0000000000002ac2                Dns6Cancel
 .text.Dns6UpdateDnsCache
                0x0000000000002bef       0x88 /tmp/ccnn792W.ltrans2.ltrans.o
                0x0000000000002bef                Dns6UpdateDnsCache
 .text.GetDns4ServerFromDhcp4
                0x0000000000002c77      0x9c9 /tmp/ccnn792W.ltrans2.ltrans.o
                0x0000000000002c77                GetDns4ServerFromDhcp4
 .text.Dns6GeneralLookUp
                0x0000000000003640      0x27e /tmp/ccnn792W.ltrans2.ltrans.o
                0x0000000000003640                Dns6GeneralLookUp
 .text.Dns6HostNameToIp
                0x00000000000038be      0x41f /tmp/ccnn792W.ltrans2.ltrans.o
                0x00000000000038be                Dns6HostNameToIp
 .text.UnicodeVSPrintAsciiFormat.constprop.36
                0x0000000000003cdd       0xe6 /tmp/ccnn792W.ltrans3.ltrans.o
 .text.UnicodeSPrintAsciiFormat.constprop.35
                0x0000000000003dc3       0x29 /tmp/ccnn792W.ltrans3.ltrans.o
                0x0000000000003dc3                UnicodeSPrintAsciiFormat.constprop.35
 .text.DebugPrintMarker.constprop.33
                0x0000000000003dec       0xac /tmp/ccnn792W.ltrans3.ltrans.o
                0x0000000000003dec                DebugPrintMarker.constprop.33
 .text.InternalAllocatePool.constprop.32
                0x0000000000003e98       0x37 /tmp/ccnn792W.ltrans3.ltrans.o
                0x0000000000003e98                InternalAllocatePool.constprop.32
 .text.AddUnicodeString2.constprop.29
                0x0000000000003ecf      0x1d9 /tmp/ccnn792W.ltrans3.ltrans.o
                0x0000000000003ecf                AddUnicodeString2.constprop.29
 .text.EfiLibInstallDriverBindingComponentName2.constprop.21
                0x00000000000040a8       0xc7 /tmp/ccnn792W.ltrans3.ltrans.o
                0x00000000000040a8                EfiLibInstallDriverBindingComponentName2.constprop.21
 .text.EfiLibUninstallDriverBindingComponentName2.constprop.19
                0x000000000000416f       0xb5 /tmp/ccnn792W.ltrans3.ltrans.o
                0x000000000000416f                EfiLibUninstallDriverBindingComponentName2.constprop.19
 .text.UdpIoCancelDgrams.constprop.18
                0x0000000000004224       0xa5 /tmp/ccnn792W.ltrans3.ltrans.o
                0x0000000000004224                UdpIoCancelDgrams.constprop.18
 .text.UdpIoCreateIo.constprop.17
                0x00000000000042c9      0x205 /tmp/ccnn792W.ltrans3.ltrans.o
                0x00000000000042c9                UdpIoCreateIo.constprop.17
 .text.NetDestroyLinkList.part.4.constprop.16
                0x00000000000044ce       0xde /tmp/ccnn792W.ltrans3.ltrans.o
                0x00000000000044ce                NetDestroyLinkList.part.4.constprop.16
 .text.NetbufGetByte.constprop.13
                0x00000000000045ac       0x71 /tmp/ccnn792W.ltrans3.ltrans.o
                0x00000000000045ac                NetbufGetByte.constprop.13
 .text.UdpIoRecvDatagram.constprop.10
                0x000000000000461d      0x1ef /tmp/ccnn792W.ltrans3.ltrans.o
                0x000000000000461d                UdpIoRecvDatagram.constprop.10
 .text.UdpIoSendDatagram.constprop.8
                0x000000000000480c      0x2bd /tmp/ccnn792W.ltrans3.ltrans.o
                0x000000000000480c                UdpIoSendDatagram.constprop.8
 .text.UdpIoCancelSingleDgram
                0x0000000000004ac9        0x8 /tmp/ccnn792W.ltrans4.ltrans.o
                0x0000000000004ac9                UdpIoCancelSingleDgram
 .text.UdpIoOnDgramRcvd
                0x0000000000004ad1       0x1b /tmp/ccnn792W.ltrans4.ltrans.o
                0x0000000000004ad1                UdpIoOnDgramRcvd
 .text.UdpIoOnDgramSent
                0x0000000000004aec       0x1b /tmp/ccnn792W.ltrans4.ltrans.o
                0x0000000000004aec                UdpIoOnDgramSent
 .text.NetbufSetBlock
                0x0000000000004b07       0xfd /tmp/ccnn792W.ltrans4.ltrans.o
 .text.NetbufFromExt.constprop.7
                0x0000000000004c04      0x3a3 /tmp/ccnn792W.ltrans4.ltrans.o
                0x0000000000004c04                NetbufFromExt.constprop.7
 .text.NetLibGetSnpHandle.constprop.4
                0x0000000000004fa7       0xfa /tmp/ccnn792W.ltrans4.ltrans.o
                0x0000000000004fa7                NetLibGetSnpHandle.constprop.4
 .text.NetLibDetectMedia.constprop.3
                0x00000000000050a1      0x272 /tmp/ccnn792W.ltrans4.ltrans.o
                0x00000000000050a1                NetLibDetectMedia.constprop.3
 .text.UdpIoCleanIo
                0x0000000000005313       0x9a /tmp/ccnn792W.ltrans4.ltrans.o
                0x0000000000005313                UdpIoCleanIo
 .text.UdpIoFreeIo
                0x00000000000053ad      0x153 /tmp/ccnn792W.ltrans4.ltrans.o
                0x00000000000053ad                UdpIoFreeIo
 .text.UdpIoFreeRxToken
                0x0000000000005500       0x6a /tmp/ccnn792W.ltrans4.ltrans.o
                0x0000000000005500                UdpIoFreeRxToken
 .text.UdpIoOnDgramRcvdDpc
                0x000000000000556a      0x319 /tmp/ccnn792W.ltrans4.ltrans.o
 .text.UdpIoRecycleDgram
                0x0000000000005883       0xeb /tmp/ccnn792W.ltrans4.ltrans.o
 .text.UdpIoFreeTxToken
                0x000000000000596e       0x6a /tmp/ccnn792W.ltrans4.ltrans.o
                0x000000000000596e                UdpIoFreeTxToken
 .text.UdpIoOnDgramSentDpc
                0x00000000000059d8      0x113 /tmp/ccnn792W.ltrans4.ltrans.o
 .text.NetbufBuildExt
                0x0000000000005aeb       0x61 /tmp/ccnn792W.ltrans4.ltrans.o
                0x0000000000005aeb                NetbufBuildExt
 .text.NetbufFree
                0x0000000000005b4c      0x15c /tmp/ccnn792W.ltrans4.ltrans.o
                0x0000000000005b4c                NetbufFree
 .text.Dns4IpToHostName
                0x0000000000005ca8        0xb /tmp/ccnn792W.ltrans5.ltrans.o
                0x0000000000005ca8                Dns4IpToHostName
 .text.Dns4Poll
                0x0000000000005cb3       0x8d /tmp/ccnn792W.ltrans5.ltrans.o
                0x0000000000005cb3                Dns4Poll
 .text.Dns6Configure
                0x0000000000005d40      0x870 /tmp/ccnn792W.ltrans5.ltrans.o
                0x0000000000005d40                Dns6Configure
 .text.Dns6GetModeData
                0x00000000000065b0      0x287 /tmp/ccnn792W.ltrans5.ltrans.o
                0x00000000000065b0                Dns6GetModeData
 .text.Dns4Cancel
                0x0000000000006837      0x12d /tmp/ccnn792W.ltrans5.ltrans.o
                0x0000000000006837                Dns4Cancel
 .text.Dns4UpdateDnsCache
                0x0000000000006964       0x88 /tmp/ccnn792W.ltrans5.ltrans.o
                0x0000000000006964                Dns4UpdateDnsCache
 .text.Dns4GeneralLookUp
                0x00000000000069ec      0x27e /tmp/ccnn792W.ltrans5.ltrans.o
                0x00000000000069ec                Dns4GeneralLookUp
 .text.Dns4HostNameToIp
                0x0000000000006c6a      0x41d /tmp/ccnn792W.ltrans5.ltrans.o
                0x0000000000006c6a                Dns4HostNameToIp
 .text.NetLibDetectMediaWaitTimeout.part.6.lto_priv.41
                0x0000000000007087      0x2a8 /tmp/ccnn792W.ltrans6.ltrans.o
                0x0000000000007087                NetLibDetectMediaWaitTimeout.part.6.lto_priv.41
 .text.NetLibCreateDnsQName
                0x000000000000732f       0x95 /tmp/ccnn792W.ltrans6.ltrans.o
                0x000000000000732f                NetLibCreateDnsQName
 .text.NetLibGetNicHandle
                0x00000000000073c4       0x99 /tmp/ccnn792W.ltrans6.ltrans.o
                0x00000000000073c4                NetLibGetNicHandle
 .text.NetLibDestroyServiceChild
                0x000000000000745d       0x7e /tmp/ccnn792W.ltrans6.ltrans.o
                0x000000000000745d                NetLibDestroyServiceChild
 .text.NetLibCreateServiceChild
                0x00000000000074db       0x82 /tmp/ccnn792W.ltrans6.ltrans.o
                0x00000000000074db                NetLibCreateServiceChild
 .text.NetMapIterate
                0x000000000000755d       0x75 /tmp/ccnn792W.ltrans6.ltrans.o
                0x000000000000755d                NetMapIterate
 .text.NetMapGetCount
                0x00000000000075d2       0x38 /tmp/ccnn792W.ltrans6.ltrans.o
                0x00000000000075d2                NetMapGetCount
 .text.NetMapIsEmpty
                0x000000000000760a       0x3c /tmp/ccnn792W.ltrans6.ltrans.o
                0x000000000000760a                NetMapIsEmpty
 .text.NetMapInit
                0x0000000000007646       0x4d /tmp/ccnn792W.ltrans6.ltrans.o
                0x0000000000007646                NetMapInit
 .text.NetListRemoveHead
                0x0000000000007693       0x63 /tmp/ccnn792W.ltrans6.ltrans.o
                0x0000000000007693                NetListRemoveHead
 .text.NetMapInsertTail
                0x00000000000076f6       0xd8 /tmp/ccnn792W.ltrans6.ltrans.o
                0x00000000000076f6                NetMapInsertTail
 .text.NetRandomInitSeed
                0x00000000000077ce       0x67 /tmp/ccnn792W.ltrans6.ltrans.o
                0x00000000000077ce                NetRandomInitSeed
 .text.Ip6Swap128
                0x0000000000007835       0xf5 /tmp/ccnn792W.ltrans6.ltrans.o
                0x0000000000007835                Ip6Swap128
 .text._ModuleEntryPoint
                0x000000000000792a      0x392 /tmp/ccnn792W.ltrans6.ltrans.o
                0x000000000000792a                _ModuleEntryPoint
 .text.Dns4DriverBindingSupported
                0x0000000000007cbc       0x7b /tmp/ccnn792W.ltrans7.ltrans.o
                0x0000000000007cbc                Dns4DriverBindingSupported
 .text.DnsConfigNullUdp
                0x0000000000007d37        0x3 /tmp/ccnn792W.ltrans7.ltrans.o
                0x0000000000007d37                DnsConfigNullUdp
 .text.DnsDestroyChildEntryInHandleBuffer
                0x0000000000007d3a       0xa2 /tmp/ccnn792W.ltrans7.ltrans.o
                0x0000000000007d3a                DnsDestroyChildEntryInHandleBuffer
 .text.UpdateDns6Name.part.1
                0x0000000000007ddc      0x36f /tmp/ccnn792W.ltrans7.ltrans.o
 .text.DnsComponentNameGetControllerName
                0x000000000000814b      0x318 /tmp/ccnn792W.ltrans7.ltrans.o
                0x000000000000814b                DnsComponentNameGetControllerName
 .text.DnsComponentNameGetDriverName
                0x0000000000008463       0x36 /tmp/ccnn792W.ltrans7.ltrans.o
                0x0000000000008463                DnsComponentNameGetDriverName
 .text.DnsCreateService
                0x0000000000008499      0x1c0 /tmp/ccnn792W.ltrans7.ltrans.o
                0x0000000000008499                DnsCreateService
 .text.DnsDestroyService
                0x0000000000008659       0x5d /tmp/ccnn792W.ltrans7.ltrans.o
                0x0000000000008659                DnsDestroyService
 .text.Dns4DriverBindingStop
                0x00000000000086b6      0x205 /tmp/ccnn792W.ltrans7.ltrans.o
                0x00000000000086b6                Dns4DriverBindingStop
 .text.Dns4DriverBindingStart
                0x00000000000088bb      0x16d /tmp/ccnn792W.ltrans7.ltrans.o
                0x00000000000088bb                Dns4DriverBindingStart
 .text.DnsCreateInstance
                0x0000000000008a28      0x112 /tmp/ccnn792W.ltrans7.ltrans.o
                0x0000000000008a28                DnsCreateInstance
 .text.DnsDestroyInstance
                0x0000000000008b3a       0x95 /tmp/ccnn792W.ltrans7.ltrans.o
                0x0000000000008b3a                DnsDestroyInstance
 .text.ReadUnaligned24
                0x0000000000008bcf       0x3b /tmp/ccnn792W.ltrans8.ltrans.o
                0x0000000000008bcf                ReadUnaligned24
 .text.ReadUnaligned16
                0x0000000000008c0a       0x37 /tmp/ccnn792W.ltrans8.ltrans.o
                0x0000000000008c0a                ReadUnaligned16
 .text.AsciiStrLen
                0x0000000000008c41       0x85 /tmp/ccnn792W.ltrans8.ltrans.o
                0x0000000000008c41                AsciiStrLen
 .text.AsciiStrnCmp.part.4.lto_priv.39
                0x0000000000008cc6       0xd6 /tmp/ccnn792W.ltrans8.ltrans.o
                0x0000000000008cc6                AsciiStrnCmp.part.4.lto_priv.39
 .text.StrLen   0x0000000000008d9c       0x90 /tmp/ccnn792W.ltrans8.ltrans.o
                0x0000000000008d9c                StrLen
 .text.StrSize  0x0000000000008e2c       0x13 /tmp/ccnn792W.ltrans8.ltrans.o
                0x0000000000008e2c                StrSize
 .text.StrCmp   0x0000000000008e3f       0x84 /tmp/ccnn792W.ltrans8.ltrans.o
                0x0000000000008e3f                StrCmp
 .text.AsciiStrnLenS
                0x0000000000008ec3       0x26 /tmp/ccnn792W.ltrans8.ltrans.o
                0x0000000000008ec3                AsciiStrnLenS
 .text.StrnLenS
                0x0000000000008ee9       0x5e /tmp/ccnn792W.ltrans8.ltrans.o
                0x0000000000008ee9                StrnLenS
 .text.InitializeListHead
                0x0000000000008f47       0x3e /tmp/ccnn792W.ltrans8.ltrans.o
                0x0000000000008f47                InitializeListHead
 .text.InternalBaseLibIsListValid
                0x0000000000008f85       0x9e /tmp/ccnn792W.ltrans8.ltrans.o
                0x0000000000008f85                InternalBaseLibIsListValid
 .text.IsListEmpty
                0x0000000000009023       0x41 /tmp/ccnn792W.ltrans8.ltrans.o
                0x0000000000009023                IsListEmpty
 .text.RemoveEntryList
                0x0000000000009064       0x53 /tmp/ccnn792W.ltrans8.ltrans.o
                0x0000000000009064                RemoveEntryList
 .text.GetFirstNode
                0x00000000000090b7       0x3e /tmp/ccnn792W.ltrans8.ltrans.o
                0x00000000000090b7                GetFirstNode
 .text.IsNodeInList
                0x00000000000090f5       0x93 /tmp/ccnn792W.ltrans8.ltrans.o
                0x00000000000090f5                IsNodeInList
 .text.InsertTailList
                0x0000000000009188       0x7f /tmp/ccnn792W.ltrans8.ltrans.o
                0x0000000000009188                InsertTailList
 .text.InsertHeadList
                0x0000000000009207       0x7e /tmp/ccnn792W.ltrans8.ltrans.o
                0x0000000000009207                InsertHeadList
 .text.SwapBytes32
                0x0000000000009285       0x12 /tmp/ccnn792W.ltrans8.ltrans.o
                0x0000000000009285                SwapBytes32
 .text.CopyMem  0x0000000000009297      0x260 /tmp/ccnn792W.ltrans8.ltrans.o
                0x0000000000009297                CopyMem
 .text.CompareMem
                0x00000000000094f7       0xec /tmp/ccnn792W.ltrans8.ltrans.o
                0x00000000000094f7                CompareMem
 .text.ZeroMem  0x00000000000095e3       0xf8 /tmp/ccnn792W.ltrans8.ltrans.o
                0x00000000000095e3                ZeroMem
 .text.ProcessLibraryDestructorList
                0x00000000000096db       0x14 /tmp/ccnn792W.ltrans8.ltrans.o
                0x00000000000096db                ProcessLibraryDestructorList
 .text.Dns4Configure
                0x00000000000096ef      0x58a /tmp/ccnn792W.ltrans9.ltrans.o
                0x00000000000096ef                Dns4Configure
 .text.Dns4GetModeData
                0x0000000000009c79      0x287 /tmp/ccnn792W.ltrans9.ltrans.o
                0x0000000000009c79                Dns4GetModeData
 .text.DnsOnTimerUpdate
                0x0000000000009f00       0xe4 /tmp/ccnn792W.ltrans9.ltrans.o
                0x0000000000009f00                DnsOnTimerUpdate
 .text.DnsOnPacketSent
                0x0000000000009fe4       0xa9 /tmp/ccnn792W.ltrans9.ltrans.o
                0x0000000000009fe4                DnsOnPacketSent
 .text.DnsRetransmit
                0x000000000000a08d       0xbe /tmp/ccnn792W.ltrans9.ltrans.o
 .text.ConstructDNSQuery
                0x000000000000a14b      0x168 /tmp/ccnn792W.ltrans9.ltrans.o
                0x000000000000a14b                ConstructDNSQuery
 .text.DoDnsQuery
                0x000000000000a2b3       0x69 /tmp/ccnn792W.ltrans9.ltrans.o
                0x000000000000a2b3                DoDnsQuery
 .text.DnsOnTimerRetransmit
                0x000000000000a31c      0x261 /tmp/ccnn792W.ltrans9.ltrans.o
                0x000000000000a31c                DnsOnTimerRetransmit
 .text.BasePrintLibSPrintMarker.constprop.37
                0x000000000000a57d     0x10bd /tmp/ccnn792W.ltrans10.ltrans.o
                0x000000000000a57d                BasePrintLibSPrintMarker.constprop.37
 .text.ExitBootServicesCallback
                0x000000000000b63a        0x8 /tmp/ccnn792W.ltrans11.ltrans.o
                0x000000000000b63a                ExitBootServicesCallback
 .text.DebugAssert.part.0
                0x000000000000b642       0x75 /tmp/ccnn792W.ltrans11.ltrans.o
 .text.DispatchDpc
                0x000000000000b6b7        0xd /tmp/ccnn792W.ltrans11.ltrans.o
                0x000000000000b6b7                DispatchDpc
 .text.IsLanguageSupported
                0x000000000000b6c4       0x69 /tmp/ccnn792W.ltrans11.ltrans.o
                0x000000000000b6c4                IsLanguageSupported
 .text.LookupUnicodeString2
                0x000000000000b72d       0xe1 /tmp/ccnn792W.ltrans11.ltrans.o
                0x000000000000b72d                LookupUnicodeString2
 .text.AllocateZeroPool
                0x000000000000b80e       0xf9 /tmp/ccnn792W.ltrans11.ltrans.o
                0x000000000000b80e                AllocateZeroPool
 .text.AllocatePool
                0x000000000000b907       0x99 /tmp/ccnn792W.ltrans11.ltrans.o
                0x000000000000b907                AllocatePool
 .text.DebugPrintEnabled
                0x000000000000b9a0        0x3 /tmp/ccnn792W.ltrans11.ltrans.o
                0x000000000000b9a0                DebugPrintEnabled
 .text.DebugAssertEnabled
                0x000000000000b9a3        0x3 /tmp/ccnn792W.ltrans11.ltrans.o
                0x000000000000b9a3                DebugAssertEnabled
 .text.DebugAssert
                0x000000000000b9a6        0xf /tmp/ccnn792W.ltrans11.ltrans.o
                0x000000000000b9a6                DebugAssert
 .text.AllocateCopyPool
                0x000000000000b9b5      0x160 /tmp/ccnn792W.ltrans11.ltrans.o
                0x000000000000b9b5                AllocateCopyPool
 .text.DebugPrint
                0x000000000000bb15       0xc1 /tmp/ccnn792W.ltrans11.ltrans.o
                0x000000000000bb15                DebugPrint
 .text.FreePool
                0x000000000000bbd6       0x5a /tmp/ccnn792W.ltrans11.ltrans.o
                0x000000000000bbd6                FreePool
 .text._DriverUnloadHandler
                0x000000000000bc30      0x356 /tmp/ccnn792W.ltrans11.ltrans.o
                0x000000000000bc30                _DriverUnloadHandler
 .text.FreeUnicodeStringTable
                0x000000000000bf86       0x46 /tmp/ccnn792W.ltrans11.ltrans.o
                0x000000000000bf86                FreeUnicodeStringTable
 .text.EfiTestChildHandle
                0x000000000000bfcc       0xa9 /tmp/ccnn792W.ltrans11.ltrans.o
                0x000000000000bfcc                EfiTestChildHandle
 .text.UnicodeSPrint
                0x000000000000c075      0x100 /tmp/ccnn792W.ltrans11.ltrans.o
                0x000000000000c075                UnicodeSPrint
 .text.BasePrintLibFillBuffer
                0x000000000000c175       0x2e /tmp/ccnn792W.ltrans11.ltrans.o
                0x000000000000c175                BasePrintLibFillBuffer
 .text.BasePrintLibSPrint.constprop.38
                0x000000000000c1a3       0xb8 /tmp/ccnn792W.ltrans12.ltrans.o
                0x000000000000c1a3                BasePrintLibSPrint.constprop.38
 *(.rodata .rodata.* .gnu.linkonce.r.*)
 .rodata.str1.1
                0x000000000000c25b      0x1e2 /tmp/ccnn792W.ltrans0.ltrans.o
 .rodata.str1.1
                0x000000000000c43d      0x110 /tmp/ccnn792W.ltrans1.ltrans.o
                                        0x149 (size before relaxing)
 .rodata.str1.1
                0x000000000000c54d       0x3d /tmp/ccnn792W.ltrans2.ltrans.o
                                         0x69 (size before relaxing)
 .rodata.str1.1
                0x000000000000c58a      0x34f /tmp/ccnn792W.ltrans3.ltrans.o
                                        0x369 (size before relaxing)
 .rodata._gPcd_FixedAtBuild_PcdComponentNameDisable
                0x000000000000c8d9        0x1 /tmp/ccnn792W.ltrans3.ltrans.o
                0x000000000000c8d9                _gPcd_FixedAtBuild_PcdVerifyNodeInList
                0x000000000000c8d9                _gPcd_FixedAtBuild_PcdComponentNameDisable
 .rodata.str1.1
                0x000000000000c8da      0x34d /tmp/ccnn792W.ltrans4.ltrans.o
                                        0x4c3 (size before relaxing)
 .rodata.str1.1
                0x000000000000cc27       0x1b /tmp/ccnn792W.ltrans5.ltrans.o
                                         0x84 (size before relaxing)
 .rodata.str1.1
                0x000000000000cc42      0x300 /tmp/ccnn792W.ltrans6.ltrans.o
                                        0x3ce (size before relaxing)
 .rodata.str1.1
                0x000000000000cf42       0xf5 /tmp/ccnn792W.ltrans7.ltrans.o
                                        0x162 (size before relaxing)
 *fill*         0x000000000000d037        0x1 
 .rodata.str2.2
                0x000000000000d038       0xda /tmp/ccnn792W.ltrans7.ltrans.o
 *fill*         0x000000000000d112        0x6 
 .rodata.__FUNCTION__.2845
                0x000000000000d118        0x8 /tmp/ccnn792W.ltrans7.ltrans.o
 .rodata.str1.1
                0x000000000000d120      0x51f /tmp/ccnn792W.ltrans8.ltrans.o
                                        0x606 (size before relaxing)
 .rodata.str1.1
                0x000000000000d63f       0x28 /tmp/ccnn792W.ltrans9.ltrans.o
                                        0x16f (size before relaxing)
 *fill*         0x000000000000d667       0x19 
 .rodata.gIp4AllMasks
                0x000000000000d680       0x84 /tmp/ccnn792W.ltrans9.ltrans.o
 .rodata.str1.1
                0x000000000000d704      0x28c /tmp/ccnn792W.ltrans10.ltrans.o
                                        0x2a3 (size before relaxing)
 .rodata.mHexStr
                0x000000000000d990       0x10 /tmp/ccnn792W.ltrans10.ltrans.o
 .rodata.mWarningString
                0x000000000000d9a0       0x96 /tmp/ccnn792W.ltrans10.ltrans.o
 *fill*         0x000000000000da36        0xa 
 .rodata.mErrorString
                0x000000000000da40      0x2b5 /tmp/ccnn792W.ltrans10.ltrans.o
 *fill*         0x000000000000dcf5        0x3 
 .rodata._gPcd_FixedAtBuild_PcdMaximumUnicodeStringLength
                0x000000000000dcf8        0x4 /tmp/ccnn792W.ltrans10.ltrans.o
                0x000000000000dcf8                _gPcd_FixedAtBuild_PcdMaximumLinkedListLength
                0x000000000000dcf8                _gPcd_FixedAtBuild_PcdMaximumAsciiStringLength
                0x000000000000dcf8                _gPcd_FixedAtBuild_PcdMaximumUnicodeStringLength
 .rodata.str1.1
                0x000000000000dcfc       0xdd /tmp/ccnn792W.ltrans11.ltrans.o
                                        0x22e (size before relaxing)
 *(.got .got.*)
 .got           0x000000000000ddd9        0x0 ComponentName.obj (symbol from plugin)
 .got.plt       0x000000000000ddd9        0x0 ComponentName.obj (symbol from plugin)
 *:AutoGen.obj(.data.g*Guid)

.plt            0x000000000000dde0        0x0
 .plt           0x000000000000dde0        0x0 ComponentName.obj (symbol from plugin)

.plt.got        0x000000000000dde0        0x0
 .plt.got       0x000000000000dde0        0x0 ComponentName.obj (symbol from plugin)

.data           0x000000000000de00      0x360
 *(.data .data.* .gnu.linkonce.d.*)
 .data.gEfiDns6ServiceBindingProtocolGuid
                0x000000000000de00       0x10 /tmp/ccnn792W.ltrans0.ltrans.o
 .data.gEfiDns4ProtocolGuid
                0x000000000000de10       0x10 /tmp/ccnn792W.ltrans0.ltrans.o
                0x000000000000de10                gEfiDns4ProtocolGuid
 .data.gEfiDns6ProtocolGuid
                0x000000000000de20       0x10 /tmp/ccnn792W.ltrans0.ltrans.o
                0x000000000000de20                gEfiDns6ProtocolGuid
 .data.gEfiIp4Config2ProtocolGuid
                0x000000000000de30       0x10 /tmp/ccnn792W.ltrans2.ltrans.o
 .data.gEfiDhcp4ProtocolGuid
                0x000000000000de40       0x10 /tmp/ccnn792W.ltrans2.ltrans.o
 .data.gEfiDhcp4ServiceBindingProtocolGuid
                0x000000000000de50       0x10 /tmp/ccnn792W.ltrans2.ltrans.o
 .data.gEfiManagedNetworkProtocolGuid
                0x000000000000de60       0x10 /tmp/ccnn792W.ltrans2.ltrans.o
 .data.gEfiManagedNetworkServiceBindingProtocolGuid
                0x000000000000de70       0x10 /tmp/ccnn792W.ltrans2.ltrans.o
 .data.gEfiUdp6ProtocolGuid
                0x000000000000de80       0x10 /tmp/ccnn792W.ltrans3.ltrans.o
                0x000000000000de80                gEfiUdp6ProtocolGuid
 .data.gEfiUdp6ServiceBindingProtocolGuid
                0x000000000000de90       0x10 /tmp/ccnn792W.ltrans3.ltrans.o
                0x000000000000de90                gEfiUdp6ServiceBindingProtocolGuid
 .data.gEfiUdp4ProtocolGuid
                0x000000000000dea0       0x10 /tmp/ccnn792W.ltrans3.ltrans.o
                0x000000000000dea0                gEfiUdp4ProtocolGuid
 .data.gEfiUdp4ServiceBindingProtocolGuid
                0x000000000000deb0       0x10 /tmp/ccnn792W.ltrans3.ltrans.o
                0x000000000000deb0                gEfiUdp4ServiceBindingProtocolGuid
 .data.rel.local.gDnsComponentName2
                0x000000000000dec0       0x18 /tmp/ccnn792W.ltrans3.ltrans.o
                0x000000000000dec0                gDnsComponentName2
 *fill*         0x000000000000ded8        0x8 
 .data.rel.local.gDnsComponentName
                0x000000000000dee0       0x18 /tmp/ccnn792W.ltrans3.ltrans.o
                0x000000000000dee0                gDnsComponentName
 *fill*         0x000000000000def8        0x8 
 .data.gEfiComponentNameProtocolGuid
                0x000000000000df00       0x10 /tmp/ccnn792W.ltrans3.ltrans.o
                0x000000000000df00                gEfiComponentNameProtocolGuid
 .data.gEfiComponentName2ProtocolGuid
                0x000000000000df10       0x10 /tmp/ccnn792W.ltrans3.ltrans.o
                0x000000000000df10                gEfiComponentName2ProtocolGuid
 .data.gEfiDriverBindingProtocolGuid
                0x000000000000df20       0x10 /tmp/ccnn792W.ltrans3.ltrans.o
                0x000000000000df20                gEfiDriverBindingProtocolGuid
 .data.gEfiDevicePathProtocolGuid
                0x000000000000df30       0x10 /tmp/ccnn792W.ltrans4.ltrans.o
 .data.gEfiSimpleNetworkProtocolGuid
                0x000000000000df40       0x10 /tmp/ccnn792W.ltrans4.ltrans.o
 .data.gEfiDhcp6ProtocolGuid
                0x000000000000df50       0x10 /tmp/ccnn792W.ltrans5.ltrans.o
 .data.gEfiDhcp6ServiceBindingProtocolGuid
                0x000000000000df60       0x10 /tmp/ccnn792W.ltrans5.ltrans.o
 *fill*         0x000000000000df70       0x10 
 .data.rel.local.gDns6DriverBinding
                0x000000000000df80       0x30 /tmp/ccnn792W.ltrans6.ltrans.o
                0x000000000000df80                gDns6DriverBinding
 *fill*         0x000000000000dfb0       0x10 
 .data.rel.local.gDns4DriverBinding
                0x000000000000dfc0       0x30 /tmp/ccnn792W.ltrans6.ltrans.o
                0x000000000000dfc0                gDns4DriverBinding
 .data.gEfiDpcProtocolGuid
                0x000000000000dff0       0x10 /tmp/ccnn792W.ltrans6.ltrans.o
 .data.gEfiLoadedImageProtocolGuid
                0x000000000000e000       0x10 /tmp/ccnn792W.ltrans6.ltrans.o
 .data.gEfiAdapterInfoMediaStateGuid
                0x000000000000e010       0x10 /tmp/ccnn792W.ltrans6.ltrans.o
 .data.gEfiAdapterInformationProtocolGuid
                0x000000000000e020       0x10 /tmp/ccnn792W.ltrans6.ltrans.o
 *fill*         0x000000000000e030       0x10 
 .data.rel.local.mDnsDriverNameTable
                0x000000000000e040       0x20 /tmp/ccnn792W.ltrans7.ltrans.o
 .data.rel.local.mDns6Protocol
                0x000000000000e060       0x40 /tmp/ccnn792W.ltrans7.ltrans.o
 .data.rel.local.mDns4Protocol
                0x000000000000e0a0       0x40 /tmp/ccnn792W.ltrans7.ltrans.o
 .data.rel.ro.local.mDns6ServiceBinding
                0x000000000000e0e0       0x10 /tmp/ccnn792W.ltrans7.ltrans.o
 .data.rel.ro.local.mDns4ServiceBinding
                0x000000000000e0f0       0x10 /tmp/ccnn792W.ltrans7.ltrans.o
 .data.gEfiDns4ServiceBindingProtocolGuid
                0x000000000000e100       0x10 /tmp/ccnn792W.ltrans7.ltrans.o
 .data.rel.ro   0x000000000000e110        0x0 ComponentName.obj (symbol from plugin)
 *(.bss .bss.*)
 .bss.gDnsControllerNameTable
                0x000000000000e110        0x8 /tmp/ccnn792W.ltrans3.ltrans.o
                0x000000000000e110                gDnsControllerNameTable
 .bss.gBS       0x000000000000e118        0x8 /tmp/ccnn792W.ltrans3.ltrans.o
                0x000000000000e118                gBS
 .bss.mDebugST  0x000000000000e120        0x8 /tmp/ccnn792W.ltrans3.ltrans.o
                0x000000000000e120                mDebugST
 .bss.mPostEBS  0x000000000000e128        0x1 /tmp/ccnn792W.ltrans3.ltrans.o
                0x000000000000e128                mPostEBS
 *fill*         0x000000000000e129        0x7 
 .bss.mDpc      0x000000000000e130        0x8 /tmp/ccnn792W.ltrans4.ltrans.o
                0x000000000000e130                mDpc
 .bss.mDriverData
                0x000000000000e138        0x8 /tmp/ccnn792W.ltrans6.ltrans.o
                0x000000000000e138                mDriverData
 .bss.mExitBootServicesEvent.lto_priv.40
                0x000000000000e140        0x8 /tmp/ccnn792W.ltrans6.ltrans.o
                0x000000000000e140                mExitBootServicesEvent.lto_priv.40
 .bss.gST       0x000000000000e148        0x8 /tmp/ccnn792W.ltrans6.ltrans.o
                0x000000000000e148                gST
 .bss.gImageHandle
                0x000000000000e150        0x8 /tmp/ccnn792W.ltrans6.ltrans.o
 .bss.gRT       0x000000000000e158        0x8 /tmp/ccnn792W.ltrans6.ltrans.o

.eh_frame       0x000000000000e180        0x0
 *(.eh_frame)
 .eh_frame      0x000000000000e180        0x0 ComponentName.obj (symbol from plugin)
 .eh_frame      0x000000000000e180        0x0 ComponentName.obj (symbol from plugin)

.dynbss         0x000000000000e180        0x0
 .dynbss        0x000000000000e180        0x0 ComponentName.obj (symbol from plugin)

.gnu.version_d  0x000000000000e180        0x0
 .gnu.version_d
                0x000000000000e180        0x0 ComponentName.obj (symbol from plugin)

.gnu.version    0x000000000000e180        0x0
 .gnu.version   0x000000000000e180        0x0 ComponentName.obj (symbol from plugin)

.gnu.version_r  0x000000000000e180        0x0
 .gnu.version_r
                0x000000000000e180        0x0 ComponentName.obj (symbol from plugin)

.rela           0x000000000000e180      0x330
 *(.rela .rela.*)
 .rela.plt      0x000000000000e180        0x0 ComponentName.obj (symbol from plugin)
 .rela.got      0x000000000000e180        0x0 ComponentName.obj (symbol from plugin)
 .rela.bss      0x000000000000e180        0x0 ComponentName.obj (symbol from plugin)
 .rela.data.rel.ro
                0x000000000000e180        0x0 ComponentName.obj (symbol from plugin)
 .rela.ifunc    0x000000000000e180        0x0 ComponentName.obj (symbol from plugin)
 .rela.data.rel.local.gDnsComponentName2
                0x000000000000e180       0x48 ComponentName.obj (symbol from plugin)
 .rela.data.rel.local.gDnsComponentName
                0x000000000000e1c8       0x48 ComponentName.obj (symbol from plugin)
 .rela.data.rel.local.gDns6DriverBinding
                0x000000000000e210       0x48 ComponentName.obj (symbol from plugin)
 .rela.data.rel.local.gDns4DriverBinding
                0x000000000000e258       0x48 ComponentName.obj (symbol from plugin)
 .rela.data.rel.local.mDnsDriverNameTable
                0x000000000000e2a0       0x30 ComponentName.obj (symbol from plugin)
 .rela.data.rel.local.mDns6Protocol
                0x000000000000e2d0       0xc0 ComponentName.obj (symbol from plugin)
 .rela.data.rel.local.mDns4Protocol
                0x000000000000e390       0xc0 ComponentName.obj (symbol from plugin)
 .rela.data.rel.ro.local.mDns6ServiceBinding
                0x000000000000e450       0x30 ComponentName.obj (symbol from plugin)
 .rela.data.rel.ro.local.mDns4ServiceBinding
                0x000000000000e480       0x30 ComponentName.obj (symbol from plugin)

.hii
 *(.hii)

.build-id       0x000000000000e4b0       0x24
 *(.note.gnu.build-id)
 .note.gnu.build-id
                0x000000000000e4b0       0x24 ComponentName.obj (symbol from plugin)

/DISCARD/
 *(.note.GNU-stack)
 *(.gnu_debuglink)
 *(.interp)
 *(.dynsym)
 *(.dynstr)
 *(.dynamic)
 *(.hash .gnu.hash)
 *(.comment)
OUTPUT(/home/hcj/UEFIWorkspace/Build/NetworkPkg/DEBUG_GCC5/X64/NetworkPkg/DnsDxe/DnsDxe/DEBUG/DnsDxe.dll elf64-x86-64)

.debug_info     0x0000000000000000    0x2993f
 .debug_info    0x0000000000000000     0x4235 /tmp/ccnn792W.ltrans0.ltrans.o
 .debug_info    0x0000000000004235     0x3395 /tmp/ccnn792W.ltrans1.ltrans.o
 .debug_info    0x00000000000075ca     0x5060 /tmp/ccnn792W.ltrans2.ltrans.o
 .debug_info    0x000000000000c62a     0x4aa2 /tmp/ccnn792W.ltrans3.ltrans.o
 .debug_info    0x00000000000110cc     0x316e /tmp/ccnn792W.ltrans4.ltrans.o
 .debug_info    0x000000000001423a     0x468f /tmp/ccnn792W.ltrans5.ltrans.o
 .debug_info    0x00000000000188c9     0x4c10 /tmp/ccnn792W.ltrans6.ltrans.o
 .debug_info    0x000000000001d4d9     0x3b38 /tmp/ccnn792W.ltrans7.ltrans.o
 .debug_info    0x0000000000021011     0x2c98 /tmp/ccnn792W.ltrans8.ltrans.o
 .debug_info    0x0000000000023ca9     0x354d /tmp/ccnn792W.ltrans9.ltrans.o
 .debug_info    0x00000000000271f6      0xb4c /tmp/ccnn792W.ltrans10.ltrans.o
 .debug_info    0x0000000000027d42     0x1aa1 /tmp/ccnn792W.ltrans11.ltrans.o
 .debug_info    0x00000000000297e3      0x15c /tmp/ccnn792W.ltrans12.ltrans.o

.debug_abbrev   0x0000000000000000     0x311d
 .debug_abbrev  0x0000000000000000      0x46c /tmp/ccnn792W.ltrans0.ltrans.o
 .debug_abbrev  0x000000000000046c      0x335 /tmp/ccnn792W.ltrans1.ltrans.o
 .debug_abbrev  0x00000000000007a1      0x43d /tmp/ccnn792W.ltrans2.ltrans.o
 .debug_abbrev  0x0000000000000bde      0x424 /tmp/ccnn792W.ltrans3.ltrans.o
 .debug_abbrev  0x0000000000001002      0x4e1 /tmp/ccnn792W.ltrans4.ltrans.o
 .debug_abbrev  0x00000000000014e3      0x3c2 /tmp/ccnn792W.ltrans5.ltrans.o
 .debug_abbrev  0x00000000000018a5      0x4e7 /tmp/ccnn792W.ltrans6.ltrans.o
 .debug_abbrev  0x0000000000001d8c      0x488 /tmp/ccnn792W.ltrans7.ltrans.o
 .debug_abbrev  0x0000000000002214      0x3b7 /tmp/ccnn792W.ltrans8.ltrans.o
 .debug_abbrev  0x00000000000025cb      0x46e /tmp/ccnn792W.ltrans9.ltrans.o
 .debug_abbrev  0x0000000000002a39      0x19c /tmp/ccnn792W.ltrans10.ltrans.o
 .debug_abbrev  0x0000000000002bd5      0x482 /tmp/ccnn792W.ltrans11.ltrans.o
 .debug_abbrev  0x0000000000003057       0xc6 /tmp/ccnn792W.ltrans12.ltrans.o

.debug_loc      0x0000000000000000    0x13a45
 .debug_loc     0x0000000000000000     0x1c93 /tmp/ccnn792W.ltrans0.ltrans.o
 .debug_loc     0x0000000000001c93     0x1af1 /tmp/ccnn792W.ltrans1.ltrans.o
 .debug_loc     0x0000000000003784     0x199e /tmp/ccnn792W.ltrans2.ltrans.o
 .debug_loc     0x0000000000005122     0x1b3d /tmp/ccnn792W.ltrans3.ltrans.o
 .debug_loc     0x0000000000006c5f     0x1901 /tmp/ccnn792W.ltrans4.ltrans.o
 .debug_loc     0x0000000000008560     0x1edb /tmp/ccnn792W.ltrans5.ltrans.o
 .debug_loc     0x000000000000a43b     0x167b /tmp/ccnn792W.ltrans6.ltrans.o
 .debug_loc     0x000000000000bab6     0x16e0 /tmp/ccnn792W.ltrans7.ltrans.o
 .debug_loc     0x000000000000d196     0x23a7 /tmp/ccnn792W.ltrans8.ltrans.o
 .debug_loc     0x000000000000f53d     0x18a3 /tmp/ccnn792W.ltrans9.ltrans.o
 .debug_loc     0x0000000000010de0     0x177b /tmp/ccnn792W.ltrans10.ltrans.o
 .debug_loc     0x000000000001255b     0x13f3 /tmp/ccnn792W.ltrans11.ltrans.o
 .debug_loc     0x000000000001394e       0xf7 /tmp/ccnn792W.ltrans12.ltrans.o

.debug_aranges  0x0000000000000000      0xaa0
 .debug_aranges
                0x0000000000000000      0x120 /tmp/ccnn792W.ltrans0.ltrans.o
 .debug_aranges
                0x0000000000000120       0x70 /tmp/ccnn792W.ltrans1.ltrans.o
 .debug_aranges
                0x0000000000000190       0xb0 /tmp/ccnn792W.ltrans2.ltrans.o
 .debug_aranges
                0x0000000000000240       0xf0 /tmp/ccnn792W.ltrans3.ltrans.o
 .debug_aranges
                0x0000000000000330      0x120 /tmp/ccnn792W.ltrans4.ltrans.o
 .debug_aranges
                0x0000000000000450       0xa0 /tmp/ccnn792W.ltrans5.ltrans.o
 .debug_aranges
                0x00000000000004f0      0x100 /tmp/ccnn792W.ltrans6.ltrans.o
 .debug_aranges
                0x00000000000005f0       0xe0 /tmp/ccnn792W.ltrans7.ltrans.o
 .debug_aranges
                0x00000000000006d0      0x190 /tmp/ccnn792W.ltrans8.ltrans.o
 .debug_aranges
                0x0000000000000860       0xa0 /tmp/ccnn792W.ltrans9.ltrans.o
 .debug_aranges
                0x0000000000000900       0x30 /tmp/ccnn792W.ltrans10.ltrans.o
 .debug_aranges
                0x0000000000000930      0x140 /tmp/ccnn792W.ltrans11.ltrans.o
 .debug_aranges
                0x0000000000000a70       0x30 /tmp/ccnn792W.ltrans12.ltrans.o

.debug_ranges   0x0000000000000000     0x1b50
 .debug_ranges  0x0000000000000000      0x2d0 /tmp/ccnn792W.ltrans0.ltrans.o
 .debug_ranges  0x00000000000002d0      0x1d0 /tmp/ccnn792W.ltrans1.ltrans.o
 .debug_ranges  0x00000000000004a0      0x200 /tmp/ccnn792W.ltrans2.ltrans.o
 .debug_ranges  0x00000000000006a0      0x200 /tmp/ccnn792W.ltrans3.ltrans.o
 .debug_ranges  0x00000000000008a0      0x1a0 /tmp/ccnn792W.ltrans4.ltrans.o
 .debug_ranges  0x0000000000000a40      0x340 /tmp/ccnn792W.ltrans5.ltrans.o
 .debug_ranges  0x0000000000000d80      0x2a0 /tmp/ccnn792W.ltrans6.ltrans.o
 .debug_ranges  0x0000000000001020      0x310 /tmp/ccnn792W.ltrans7.ltrans.o
 .debug_ranges  0x0000000000001330      0x210 /tmp/ccnn792W.ltrans8.ltrans.o
 .debug_ranges  0x0000000000001540      0x260 /tmp/ccnn792W.ltrans9.ltrans.o
 .debug_ranges  0x00000000000017a0       0x50 /tmp/ccnn792W.ltrans10.ltrans.o
 .debug_ranges  0x00000000000017f0      0x340 /tmp/ccnn792W.ltrans11.ltrans.o
 .debug_ranges  0x0000000000001b30       0x20 /tmp/ccnn792W.ltrans12.ltrans.o

.debug_line     0x0000000000000000     0x57c9
 .debug_line    0x0000000000000000      0x72a /tmp/ccnn792W.ltrans0.ltrans.o
 .debug_line    0x000000000000072a      0x598 /tmp/ccnn792W.ltrans1.ltrans.o
 .debug_line    0x0000000000000cc2      0x7a0 /tmp/ccnn792W.ltrans2.ltrans.o
 .debug_line    0x0000000000001462      0x982 /tmp/ccnn792W.ltrans3.ltrans.o
 .debug_line    0x0000000000001de4      0x777 /tmp/ccnn792W.ltrans4.ltrans.o
 .debug_line    0x000000000000255b      0x773 /tmp/ccnn792W.ltrans5.ltrans.o
 .debug_line    0x0000000000002cce      0x87b /tmp/ccnn792W.ltrans6.ltrans.o
 .debug_line    0x0000000000003549      0x6f0 /tmp/ccnn792W.ltrans7.ltrans.o
 .debug_line    0x0000000000003c39      0x751 /tmp/ccnn792W.ltrans8.ltrans.o
 .debug_line    0x000000000000438a      0x5f5 /tmp/ccnn792W.ltrans9.ltrans.o
 .debug_line    0x000000000000497f      0x4b9 /tmp/ccnn792W.ltrans10.ltrans.o
 .debug_line    0x0000000000004e38      0x880 /tmp/ccnn792W.ltrans11.ltrans.o
 .debug_line    0x00000000000056b8      0x111 /tmp/ccnn792W.ltrans12.ltrans.o

.debug_str      0x0000000000000000     0x5d11
 .debug_str     0x0000000000000000     0x183d /tmp/ccnn792W.ltrans0.ltrans.o
                                       0x1b5d (size before relaxing)
 .debug_str     0x000000000000183d      0x27a /tmp/ccnn792W.ltrans1.ltrans.o
                                       0x18fc (size before relaxing)
 .debug_str     0x0000000000001ab7     0x13e8 /tmp/ccnn792W.ltrans2.ltrans.o
                                       0x2c08 (size before relaxing)
 .debug_str     0x0000000000002e9f     0x16e2 /tmp/ccnn792W.ltrans3.ltrans.o
                                       0x29b3 (size before relaxing)
 .debug_str     0x0000000000004581      0x33f /tmp/ccnn792W.ltrans4.ltrans.o
                                       0x1788 (size before relaxing)
 .debug_str     0x00000000000048c0      0x1ed /tmp/ccnn792W.ltrans5.ltrans.o
                                       0x231d (size before relaxing)
 .debug_str     0x0000000000004aad      0x57a /tmp/ccnn792W.ltrans6.ltrans.o
                                       0x2c6e (size before relaxing)
 .debug_str     0x0000000000005027      0x386 /tmp/ccnn792W.ltrans7.ltrans.o
                                       0x1c49 (size before relaxing)
 .debug_str     0x00000000000053ad      0x2d8 /tmp/ccnn792W.ltrans8.ltrans.o
                                       0x1753 (size before relaxing)
 .debug_str     0x0000000000005685      0x157 /tmp/ccnn792W.ltrans9.ltrans.o
                                       0x1977 (size before relaxing)
 .debug_str     0x00000000000057dc      0x25d /tmp/ccnn792W.ltrans10.ltrans.o
                                        0x5ec (size before relaxing)
 .debug_str     0x0000000000005a39      0x2a5 /tmp/ccnn792W.ltrans11.ltrans.o
                                        0xc83 (size before relaxing)
 .debug_str     0x0000000000005cde       0x33 /tmp/ccnn792W.ltrans12.ltrans.o
                                        0x27b (size before relaxing)

.debug_frame    0x0000000000000000     0x2d98
 .debug_frame   0x0000000000000000      0x5c0 /tmp/ccnn792W.ltrans0.ltrans.o
 .debug_frame   0x00000000000005c0      0x1f8 /tmp/ccnn792W.ltrans1.ltrans.o
 .debug_frame   0x00000000000007b8      0x490 /tmp/ccnn792W.ltrans2.ltrans.o
 .debug_frame   0x0000000000000c48      0x3d0 /tmp/ccnn792W.ltrans3.ltrans.o
 .debug_frame   0x0000000000001018      0x468 /tmp/ccnn792W.ltrans4.ltrans.o
 .debug_frame   0x0000000000001480      0x340 /tmp/ccnn792W.ltrans5.ltrans.o
 .debug_frame   0x00000000000017c0      0x368 /tmp/ccnn792W.ltrans6.ltrans.o
 .debug_frame   0x0000000000001b28      0x488 /tmp/ccnn792W.ltrans7.ltrans.o
 .debug_frame   0x0000000000001fb0      0x478 /tmp/ccnn792W.ltrans8.ltrans.o
 .debug_frame   0x0000000000002428      0x318 /tmp/ccnn792W.ltrans9.ltrans.o
 .debug_frame   0x0000000000002740      0x170 /tmp/ccnn792W.ltrans10.ltrans.o
 .debug_frame   0x00000000000028b0      0x478 /tmp/ccnn792W.ltrans11.ltrans.o
 .debug_frame   0x0000000000002d28       0x70 /tmp/ccnn792W.ltrans12.ltrans.o
