Archive member included to satisfy reference by file (symbol)

/home/hcj/UEFIWorkspace/Build/MdeModule/DEBUG_GCC5/X64/MdeModulePkg/Application/UiApp/UiApp/OUTPUT/UiApp.lib(FrontPageVfr.obj)
                              (--whole-archive)
/home/hcj/UEFIWorkspace/Build/MdeModule/DEBUG_GCC5/X64/MdeModulePkg/Application/UiApp/UiApp/OUTPUT/UiApp.lib(FrontPage.obj)
                              (--whole-archive)
/home/hcj/UEFIWorkspace/Build/MdeModule/DEBUG_GCC5/X64/MdeModulePkg/Application/UiApp/UiApp/OUTPUT/UiApp.lib(String.obj)
                              (--whole-archive)
/home/hcj/UEFIWorkspace/Build/MdeModule/DEBUG_GCC5/X64/MdeModulePkg/Application/UiApp/UiApp/OUTPUT/UiApp.lib(FrontPageCustomizedUi.obj)
                              (--whole-archive)
/home/hcj/UEFIWorkspace/Build/MdeModule/DEBUG_GCC5/X64/MdeModulePkg/Application/UiApp/UiApp/OUTPUT/UiApp.lib(FrontPageCustomizedUiSupport.obj)
                              (--whole-archive)
/home/hcj/UEFIWorkspace/Build/MdeModule/DEBUG_GCC5/X64/MdeModulePkg/Application/UiApp/UiApp/OUTPUT/UiApp.lib(AutoGen.obj)
                              (--whole-archive)
/home/hcj/UEFIWorkspace/Build/MdeModule/DEBUG_GCC5/X64/MdePkg/Library/RegisterFilterLibNull/RegisterFilterLibNull/OUTPUT/FilterLibNull.lib(RegisterFilterLibNull.obj)
                              (--whole-archive)
/home/hcj/UEFIWorkspace/Build/MdeModule/DEBUG_GCC5/X64/MdePkg/Library/BasePcdLibNull/BasePcdLibNull/OUTPUT/BasePcdLibNull.lib(PcdLib.obj)
                              (--whole-archive)
/home/hcj/UEFIWorkspace/Build/MdeModule/DEBUG_GCC5/X64/MdePkg/Library/BaseMemoryLib/BaseMemoryLib/OUTPUT/BaseMemoryLib.lib(SetMem.obj)
                              (--whole-archive)
/home/hcj/UEFIWorkspace/Build/MdeModule/DEBUG_GCC5/X64/MdePkg/Library/BaseMemoryLib/BaseMemoryLib/OUTPUT/BaseMemoryLib.lib(ScanMem64Wrapper.obj)
                              (--whole-archive)
/home/hcj/UEFIWorkspace/Build/MdeModule/DEBUG_GCC5/X64/MdePkg/Library/BaseMemoryLib/BaseMemoryLib/OUTPUT/BaseMemoryLib.lib(ScanMem32Wrapper.obj)
                              (--whole-archive)
/home/hcj/UEFIWorkspace/Build/MdeModule/DEBUG_GCC5/X64/MdePkg/Library/BaseMemoryLib/BaseMemoryLib/OUTPUT/BaseMemoryLib.lib(ScanMem16Wrapper.obj)
                              (--whole-archive)
/home/hcj/UEFIWorkspace/Build/MdeModule/DEBUG_GCC5/X64/MdePkg/Library/BaseMemoryLib/BaseMemoryLib/OUTPUT/BaseMemoryLib.lib(ScanMem8Wrapper.obj)
                              (--whole-archive)
/home/hcj/UEFIWorkspace/Build/MdeModule/DEBUG_GCC5/X64/MdePkg/Library/BaseMemoryLib/BaseMemoryLib/OUTPUT/BaseMemoryLib.lib(ZeroMemWrapper.obj)
                              (--whole-archive)
/home/hcj/UEFIWorkspace/Build/MdeModule/DEBUG_GCC5/X64/MdePkg/Library/BaseMemoryLib/BaseMemoryLib/OUTPUT/BaseMemoryLib.lib(CompareMemWrapper.obj)
                              (--whole-archive)
/home/hcj/UEFIWorkspace/Build/MdeModule/DEBUG_GCC5/X64/MdePkg/Library/BaseMemoryLib/BaseMemoryLib/OUTPUT/BaseMemoryLib.lib(SetMem64Wrapper.obj)
                              (--whole-archive)
/home/hcj/UEFIWorkspace/Build/MdeModule/DEBUG_GCC5/X64/MdePkg/Library/BaseMemoryLib/BaseMemoryLib/OUTPUT/BaseMemoryLib.lib(SetMem32Wrapper.obj)
                              (--whole-archive)
/home/hcj/UEFIWorkspace/Build/MdeModule/DEBUG_GCC5/X64/MdePkg/Library/BaseMemoryLib/BaseMemoryLib/OUTPUT/BaseMemoryLib.lib(SetMem16Wrapper.obj)
                              (--whole-archive)
/home/hcj/UEFIWorkspace/Build/MdeModule/DEBUG_GCC5/X64/MdePkg/Library/BaseMemoryLib/BaseMemoryLib/OUTPUT/BaseMemoryLib.lib(SetMemWrapper.obj)
                              (--whole-archive)
/home/hcj/UEFIWorkspace/Build/MdeModule/DEBUG_GCC5/X64/MdePkg/Library/BaseMemoryLib/BaseMemoryLib/OUTPUT/BaseMemoryLib.lib(CopyMemWrapper.obj)
                              (--whole-archive)
/home/hcj/UEFIWorkspace/Build/MdeModule/DEBUG_GCC5/X64/MdePkg/Library/BaseMemoryLib/BaseMemoryLib/OUTPUT/BaseMemoryLib.lib(IsZeroBufferWrapper.obj)
                              (--whole-archive)
/home/hcj/UEFIWorkspace/Build/MdeModule/DEBUG_GCC5/X64/MdePkg/Library/BaseMemoryLib/BaseMemoryLib/OUTPUT/BaseMemoryLib.lib(MemLibGeneric.obj)
                              (--whole-archive)
/home/hcj/UEFIWorkspace/Build/MdeModule/DEBUG_GCC5/X64/MdePkg/Library/BaseMemoryLib/BaseMemoryLib/OUTPUT/BaseMemoryLib.lib(MemLibGuid.obj)
                              (--whole-archive)
/home/hcj/UEFIWorkspace/Build/MdeModule/DEBUG_GCC5/X64/MdePkg/Library/BaseMemoryLib/BaseMemoryLib/OUTPUT/BaseMemoryLib.lib(CopyMem.obj)
                              (--whole-archive)
/home/hcj/UEFIWorkspace/Build/MdeModule/DEBUG_GCC5/X64/MdePkg/Library/BaseLib/BaseLib/OUTPUT/BaseLib.lib(CheckSum.obj)
                              (--whole-archive)
/home/hcj/UEFIWorkspace/Build/MdeModule/DEBUG_GCC5/X64/MdePkg/Library/BaseLib/BaseLib/OUTPUT/BaseLib.lib(SwitchStack.obj)
                              (--whole-archive)
/home/hcj/UEFIWorkspace/Build/MdeModule/DEBUG_GCC5/X64/MdePkg/Library/BaseLib/BaseLib/OUTPUT/BaseLib.lib(SwapBytes64.obj)
                              (--whole-archive)
/home/hcj/UEFIWorkspace/Build/MdeModule/DEBUG_GCC5/X64/MdePkg/Library/BaseLib/BaseLib/OUTPUT/BaseLib.lib(SwapBytes32.obj)
                              (--whole-archive)
/home/hcj/UEFIWorkspace/Build/MdeModule/DEBUG_GCC5/X64/MdePkg/Library/BaseLib/BaseLib/OUTPUT/BaseLib.lib(SwapBytes16.obj)
                              (--whole-archive)
/home/hcj/UEFIWorkspace/Build/MdeModule/DEBUG_GCC5/X64/MdePkg/Library/BaseLib/BaseLib/OUTPUT/BaseLib.lib(LongJump.obj)
                              (--whole-archive)
/home/hcj/UEFIWorkspace/Build/MdeModule/DEBUG_GCC5/X64/MdePkg/Library/BaseLib/BaseLib/OUTPUT/BaseLib.lib(SetJump.obj)
                              (--whole-archive)
/home/hcj/UEFIWorkspace/Build/MdeModule/DEBUG_GCC5/X64/MdePkg/Library/BaseLib/BaseLib/OUTPUT/BaseLib.lib(QuickSort.obj)
                              (--whole-archive)
/home/hcj/UEFIWorkspace/Build/MdeModule/DEBUG_GCC5/X64/MdePkg/Library/BaseLib/BaseLib/OUTPUT/BaseLib.lib(RShiftU64.obj)
                              (--whole-archive)
/home/hcj/UEFIWorkspace/Build/MdeModule/DEBUG_GCC5/X64/MdePkg/Library/BaseLib/BaseLib/OUTPUT/BaseLib.lib(RRotU64.obj)
                              (--whole-archive)
/home/hcj/UEFIWorkspace/Build/MdeModule/DEBUG_GCC5/X64/MdePkg/Library/BaseLib/BaseLib/OUTPUT/BaseLib.lib(RRotU32.obj)
                              (--whole-archive)
/home/hcj/UEFIWorkspace/Build/MdeModule/DEBUG_GCC5/X64/MdePkg/Library/BaseLib/BaseLib/OUTPUT/BaseLib.lib(MultU64x64.obj)
                              (--whole-archive)
/home/hcj/UEFIWorkspace/Build/MdeModule/DEBUG_GCC5/X64/MdePkg/Library/BaseLib/BaseLib/OUTPUT/BaseLib.lib(MultU64x32.obj)
                              (--whole-archive)
/home/hcj/UEFIWorkspace/Build/MdeModule/DEBUG_GCC5/X64/MdePkg/Library/BaseLib/BaseLib/OUTPUT/BaseLib.lib(MultS64x64.obj)
                              (--whole-archive)
/home/hcj/UEFIWorkspace/Build/MdeModule/DEBUG_GCC5/X64/MdePkg/Library/BaseLib/BaseLib/OUTPUT/BaseLib.lib(ModU64x32.obj)
                              (--whole-archive)
/home/hcj/UEFIWorkspace/Build/MdeModule/DEBUG_GCC5/X64/MdePkg/Library/BaseLib/BaseLib/OUTPUT/BaseLib.lib(LShiftU64.obj)
                              (--whole-archive)
/home/hcj/UEFIWorkspace/Build/MdeModule/DEBUG_GCC5/X64/MdePkg/Library/BaseLib/BaseLib/OUTPUT/BaseLib.lib(LRotU64.obj)
                              (--whole-archive)
/home/hcj/UEFIWorkspace/Build/MdeModule/DEBUG_GCC5/X64/MdePkg/Library/BaseLib/BaseLib/OUTPUT/BaseLib.lib(LRotU32.obj)
                              (--whole-archive)
/home/hcj/UEFIWorkspace/Build/MdeModule/DEBUG_GCC5/X64/MdePkg/Library/BaseLib/BaseLib/OUTPUT/BaseLib.lib(LowBitSet64.obj)
                              (--whole-archive)
/home/hcj/UEFIWorkspace/Build/MdeModule/DEBUG_GCC5/X64/MdePkg/Library/BaseLib/BaseLib/OUTPUT/BaseLib.lib(LowBitSet32.obj)
                              (--whole-archive)
/home/hcj/UEFIWorkspace/Build/MdeModule/DEBUG_GCC5/X64/MdePkg/Library/BaseLib/BaseLib/OUTPUT/BaseLib.lib(HighBitSet64.obj)
                              (--whole-archive)
/home/hcj/UEFIWorkspace/Build/MdeModule/DEBUG_GCC5/X64/MdePkg/Library/BaseLib/BaseLib/OUTPUT/BaseLib.lib(HighBitSet32.obj)
                              (--whole-archive)
/home/hcj/UEFIWorkspace/Build/MdeModule/DEBUG_GCC5/X64/MdePkg/Library/BaseLib/BaseLib/OUTPUT/BaseLib.lib(GetPowerOfTwo64.obj)
                              (--whole-archive)
/home/hcj/UEFIWorkspace/Build/MdeModule/DEBUG_GCC5/X64/MdePkg/Library/BaseLib/BaseLib/OUTPUT/BaseLib.lib(GetPowerOfTwo32.obj)
                              (--whole-archive)
/home/hcj/UEFIWorkspace/Build/MdeModule/DEBUG_GCC5/X64/MdePkg/Library/BaseLib/BaseLib/OUTPUT/BaseLib.lib(DivU64x64Remainder.obj)
                              (--whole-archive)
/home/hcj/UEFIWorkspace/Build/MdeModule/DEBUG_GCC5/X64/MdePkg/Library/BaseLib/BaseLib/OUTPUT/BaseLib.lib(DivU64x32Remainder.obj)
                              (--whole-archive)
/home/hcj/UEFIWorkspace/Build/MdeModule/DEBUG_GCC5/X64/MdePkg/Library/BaseLib/BaseLib/OUTPUT/BaseLib.lib(DivU64x32.obj)
                              (--whole-archive)
/home/hcj/UEFIWorkspace/Build/MdeModule/DEBUG_GCC5/X64/MdePkg/Library/BaseLib/BaseLib/OUTPUT/BaseLib.lib(DivS64x64Remainder.obj)
                              (--whole-archive)
/home/hcj/UEFIWorkspace/Build/MdeModule/DEBUG_GCC5/X64/MdePkg/Library/BaseLib/BaseLib/OUTPUT/BaseLib.lib(ARShiftU64.obj)
                              (--whole-archive)
/home/hcj/UEFIWorkspace/Build/MdeModule/DEBUG_GCC5/X64/MdePkg/Library/BaseLib/BaseLib/OUTPUT/BaseLib.lib(BitField.obj)
                              (--whole-archive)
/home/hcj/UEFIWorkspace/Build/MdeModule/DEBUG_GCC5/X64/MdePkg/Library/BaseLib/BaseLib/OUTPUT/BaseLib.lib(CpuDeadLoop.obj)
                              (--whole-archive)
/home/hcj/UEFIWorkspace/Build/MdeModule/DEBUG_GCC5/X64/MdePkg/Library/BaseLib/BaseLib/OUTPUT/BaseLib.lib(Cpu.obj)
                              (--whole-archive)
/home/hcj/UEFIWorkspace/Build/MdeModule/DEBUG_GCC5/X64/MdePkg/Library/BaseLib/BaseLib/OUTPUT/BaseLib.lib(LinkedList.obj)
                              (--whole-archive)
/home/hcj/UEFIWorkspace/Build/MdeModule/DEBUG_GCC5/X64/MdePkg/Library/BaseLib/BaseLib/OUTPUT/BaseLib.lib(SafeString.obj)
                              (--whole-archive)
/home/hcj/UEFIWorkspace/Build/MdeModule/DEBUG_GCC5/X64/MdePkg/Library/BaseLib/BaseLib/OUTPUT/BaseLib.lib(String.obj)
                              (--whole-archive)
/home/hcj/UEFIWorkspace/Build/MdeModule/DEBUG_GCC5/X64/MdePkg/Library/BaseLib/BaseLib/OUTPUT/BaseLib.lib(FilePaths.obj)
                              (--whole-archive)
/home/hcj/UEFIWorkspace/Build/MdeModule/DEBUG_GCC5/X64/MdePkg/Library/BaseLib/BaseLib/OUTPUT/BaseLib.lib(Thunk16.obj)
                              (--whole-archive)
/home/hcj/UEFIWorkspace/Build/MdeModule/DEBUG_GCC5/X64/MdePkg/Library/BaseLib/BaseLib/OUTPUT/BaseLib.lib(CpuIdEx.obj)
                              (--whole-archive)
/home/hcj/UEFIWorkspace/Build/MdeModule/DEBUG_GCC5/X64/MdePkg/Library/BaseLib/BaseLib/OUTPUT/BaseLib.lib(CpuId.obj)
                              (--whole-archive)
/home/hcj/UEFIWorkspace/Build/MdeModule/DEBUG_GCC5/X64/MdePkg/Library/BaseLib/BaseLib/OUTPUT/BaseLib.lib(LongJump.obj)
                              (--whole-archive)
/home/hcj/UEFIWorkspace/Build/MdeModule/DEBUG_GCC5/X64/MdePkg/Library/BaseLib/BaseLib/OUTPUT/BaseLib.lib(SetJump.obj)
                              (--whole-archive)
/home/hcj/UEFIWorkspace/Build/MdeModule/DEBUG_GCC5/X64/MdePkg/Library/BaseLib/BaseLib/OUTPUT/BaseLib.lib(SwitchStack.obj)
                              (--whole-archive)
/home/hcj/UEFIWorkspace/Build/MdeModule/DEBUG_GCC5/X64/MdePkg/Library/BaseLib/BaseLib/OUTPUT/BaseLib.lib(EnableCache.obj)
                              (--whole-archive)
/home/hcj/UEFIWorkspace/Build/MdeModule/DEBUG_GCC5/X64/MdePkg/Library/BaseLib/BaseLib/OUTPUT/BaseLib.lib(DisableCache.obj)
                              (--whole-archive)
/home/hcj/UEFIWorkspace/Build/MdeModule/DEBUG_GCC5/X64/MdePkg/Library/BaseLib/BaseLib/OUTPUT/BaseLib.lib(WriteTr.obj)
                              (--whole-archive)
/home/hcj/UEFIWorkspace/Build/MdeModule/DEBUG_GCC5/X64/MdePkg/Library/BaseLib/BaseLib/OUTPUT/BaseLib.lib(Lfence.obj)
                              (--whole-archive)
/home/hcj/UEFIWorkspace/Build/MdeModule/DEBUG_GCC5/X64/MdePkg/Library/BaseLib/BaseLib/OUTPUT/BaseLib.lib(Non-existing.obj)
                              (--whole-archive)
/home/hcj/UEFIWorkspace/Build/MdeModule/DEBUG_GCC5/X64/MdePkg/Library/BaseLib/BaseLib/OUTPUT/BaseLib.lib(Math64.obj)
                              (--whole-archive)
/home/hcj/UEFIWorkspace/Build/MdeModule/DEBUG_GCC5/X64/MdePkg/Library/BaseLib/BaseLib/OUTPUT/BaseLib.lib(Unaligned.obj)
                              (--whole-archive)
/home/hcj/UEFIWorkspace/Build/MdeModule/DEBUG_GCC5/X64/MdePkg/Library/BaseLib/BaseLib/OUTPUT/BaseLib.lib(X86WriteIdtr.obj)
                              (--whole-archive)
/home/hcj/UEFIWorkspace/Build/MdeModule/DEBUG_GCC5/X64/MdePkg/Library/BaseLib/BaseLib/OUTPUT/BaseLib.lib(X86WriteGdtr.obj)
                              (--whole-archive)
/home/hcj/UEFIWorkspace/Build/MdeModule/DEBUG_GCC5/X64/MdePkg/Library/BaseLib/BaseLib/OUTPUT/BaseLib.lib(X86Thunk.obj)
                              (--whole-archive)
/home/hcj/UEFIWorkspace/Build/MdeModule/DEBUG_GCC5/X64/MdePkg/Library/BaseLib/BaseLib/OUTPUT/BaseLib.lib(X86ReadIdtr.obj)
                              (--whole-archive)
/home/hcj/UEFIWorkspace/Build/MdeModule/DEBUG_GCC5/X64/MdePkg/Library/BaseLib/BaseLib/OUTPUT/BaseLib.lib(X86ReadGdtr.obj)
                              (--whole-archive)
/home/hcj/UEFIWorkspace/Build/MdeModule/DEBUG_GCC5/X64/MdePkg/Library/BaseLib/BaseLib/OUTPUT/BaseLib.lib(X86Msr.obj)
                              (--whole-archive)
/home/hcj/UEFIWorkspace/Build/MdeModule/DEBUG_GCC5/X64/MdePkg/Library/BaseLib/BaseLib/OUTPUT/BaseLib.lib(X86GetInterruptState.obj)
                              (--whole-archive)
/home/hcj/UEFIWorkspace/Build/MdeModule/DEBUG_GCC5/X64/MdePkg/Library/BaseLib/BaseLib/OUTPUT/BaseLib.lib(X86FxSave.obj)
                              (--whole-archive)
/home/hcj/UEFIWorkspace/Build/MdeModule/DEBUG_GCC5/X64/MdePkg/Library/BaseLib/BaseLib/OUTPUT/BaseLib.lib(X86FxRestore.obj)
                              (--whole-archive)
/home/hcj/UEFIWorkspace/Build/MdeModule/DEBUG_GCC5/X64/MdePkg/Library/BaseLib/BaseLib/OUTPUT/BaseLib.lib(X86EnablePaging64.obj)
                              (--whole-archive)
/home/hcj/UEFIWorkspace/Build/MdeModule/DEBUG_GCC5/X64/MdePkg/Library/BaseLib/BaseLib/OUTPUT/BaseLib.lib(X86EnablePaging32.obj)
                              (--whole-archive)
/home/hcj/UEFIWorkspace/Build/MdeModule/DEBUG_GCC5/X64/MdePkg/Library/BaseLib/BaseLib/OUTPUT/BaseLib.lib(X86DisablePaging64.obj)
                              (--whole-archive)
/home/hcj/UEFIWorkspace/Build/MdeModule/DEBUG_GCC5/X64/MdePkg/Library/BaseLib/BaseLib/OUTPUT/BaseLib.lib(X86DisablePaging32.obj)
                              (--whole-archive)
/home/hcj/UEFIWorkspace/Build/MdeModule/DEBUG_GCC5/X64/MdePkg/Library/BaseLib/BaseLib/OUTPUT/BaseLib.lib(X86RdRand.obj)
                              (--whole-archive)
/home/hcj/UEFIWorkspace/Build/MdeModule/DEBUG_GCC5/X64/MdePkg/Library/BaseLib/BaseLib/OUTPUT/BaseLib.lib(X86PatchInstruction.obj)
                              (--whole-archive)
/home/hcj/UEFIWorkspace/Build/MdeModule/DEBUG_GCC5/X64/MdePkg/Library/BaseLib/BaseLib/OUTPUT/BaseLib.lib(X86SpeculationBarrier.obj)
                              (--whole-archive)
/home/hcj/UEFIWorkspace/Build/MdeModule/DEBUG_GCC5/X64/MdePkg/Library/BaseLib/BaseLib/OUTPUT/BaseLib.lib(GccInline.obj)
                              (--whole-archive)
/home/hcj/UEFIWorkspace/Build/MdeModule/DEBUG_GCC5/X64/MdePkg/Library/BaseLib/BaseLib/OUTPUT/BaseLib.lib(GccInlinePriv.obj)
                              (--whole-archive)
/home/hcj/UEFIWorkspace/Build/MdeModule/DEBUG_GCC5/X64/MdePkg/Library/BaseLib/BaseLib/OUTPUT/BaseLib.lib(EnableDisableInterrupts.obj)
                              (--whole-archive)
/home/hcj/UEFIWorkspace/Build/MdeModule/DEBUG_GCC5/X64/MdePkg/Library/BaseLib/BaseLib/OUTPUT/BaseLib.lib(DisablePaging64.obj)
                              (--whole-archive)
/home/hcj/UEFIWorkspace/Build/MdeModule/DEBUG_GCC5/X64/MdePkg/Library/BaseLib/BaseLib/OUTPUT/BaseLib.lib(Pvalidate.obj)
                              (--whole-archive)
/home/hcj/UEFIWorkspace/Build/MdeModule/DEBUG_GCC5/X64/MdePkg/Library/BaseLib/BaseLib/OUTPUT/BaseLib.lib(RdRand.obj)
                              (--whole-archive)
/home/hcj/UEFIWorkspace/Build/MdeModule/DEBUG_GCC5/X64/MdePkg/Library/BaseLib/BaseLib/OUTPUT/BaseLib.lib(RmpAdjust.obj)
                              (--whole-archive)
/home/hcj/UEFIWorkspace/Build/MdeModule/DEBUG_GCC5/X64/MdePkg/Library/BaseLib/BaseLib/OUTPUT/BaseLib.lib(XGetBv.obj)
                              (--whole-archive)
/home/hcj/UEFIWorkspace/Build/MdeModule/DEBUG_GCC5/X64/MdePkg/Library/BaseLib/BaseLib/OUTPUT/BaseLib.lib(XSetBv.obj)
                              (--whole-archive)
/home/hcj/UEFIWorkspace/Build/MdeModule/DEBUG_GCC5/X64/MdePkg/Library/BaseLib/BaseLib/OUTPUT/BaseLib.lib(VmgExit.obj)
                              (--whole-archive)
/home/hcj/UEFIWorkspace/Build/MdeModule/DEBUG_GCC5/X64/MdePkg/Library/BaseLib/BaseLib/OUTPUT/BaseLib.lib(ChkStkGcc.obj)
                              (--whole-archive)
/home/hcj/UEFIWorkspace/Build/MdeModule/DEBUG_GCC5/X64/MdePkg/Library/BaseDebugPrintErrorLevelLib/BaseDebugPrintErrorLevelLib/OUTPUT/BaseDebugPrintErrorLevelLib.lib(BaseDebugPrintErrorLevelLib.obj)
                              (--whole-archive)
/home/hcj/UEFIWorkspace/Build/MdeModule/DEBUG_GCC5/X64/MdePkg/Library/BasePrintLib/BasePrintLib/OUTPUT/BasePrintLib.lib(PrintLibInternal.obj)
                              (--whole-archive)
/home/hcj/UEFIWorkspace/Build/MdeModule/DEBUG_GCC5/X64/MdePkg/Library/BasePrintLib/BasePrintLib/OUTPUT/BasePrintLib.lib(PrintLib.obj)
                              (--whole-archive)
/home/hcj/UEFIWorkspace/Build/MdeModule/DEBUG_GCC5/X64/MdePkg/Library/UefiDebugLibStdErr/UefiDebugLibStdErr/OUTPUT/UefiDebugLibStdErr.lib(DebugLib.obj)
                              (--whole-archive)
/home/hcj/UEFIWorkspace/Build/MdeModule/DEBUG_GCC5/X64/MdePkg/Library/UefiDebugLibStdErr/UefiDebugLibStdErr/OUTPUT/UefiDebugLibStdErr.lib(DebugLibConstructor.obj)
                              (--whole-archive)
/home/hcj/UEFIWorkspace/Build/MdeModule/DEBUG_GCC5/X64/MdePkg/Library/UefiBootServicesTableLib/UefiBootServicesTableLib/OUTPUT/UefiBootServicesTableLib.lib(UefiBootServicesTableLib.obj)
                              (--whole-archive)
/home/hcj/UEFIWorkspace/Build/MdeModule/DEBUG_GCC5/X64/MdePkg/Library/UefiMemoryAllocationLib/UefiMemoryAllocationLib/OUTPUT/UefiMemoryAllocationLib.lib(MemoryAllocationLib.obj)
                              (--whole-archive)
/home/hcj/UEFIWorkspace/Build/MdeModule/DEBUG_GCC5/X64/MdePkg/Library/UefiRuntimeServicesTableLib/UefiRuntimeServicesTableLib/OUTPUT/UefiRuntimeServicesTableLib.lib(UefiRuntimeServicesTableLib.obj)
                              (--whole-archive)
/home/hcj/UEFIWorkspace/Build/MdeModule/DEBUG_GCC5/X64/MdePkg/Library/UefiDevicePathLib/UefiDevicePathLib/OUTPUT/UefiDevicePathLib.lib(DevicePathUtilities.obj)
                              (--whole-archive)
/home/hcj/UEFIWorkspace/Build/MdeModule/DEBUG_GCC5/X64/MdePkg/Library/UefiDevicePathLib/UefiDevicePathLib/OUTPUT/UefiDevicePathLib.lib(DevicePathUtilitiesDxeSmm.obj)
                              (--whole-archive)
/home/hcj/UEFIWorkspace/Build/MdeModule/DEBUG_GCC5/X64/MdePkg/Library/UefiDevicePathLib/UefiDevicePathLib/OUTPUT/UefiDevicePathLib.lib(DevicePathToText.obj)
                              (--whole-archive)
/home/hcj/UEFIWorkspace/Build/MdeModule/DEBUG_GCC5/X64/MdePkg/Library/UefiDevicePathLib/UefiDevicePathLib/OUTPUT/UefiDevicePathLib.lib(DevicePathFromText.obj)
                              (--whole-archive)
/home/hcj/UEFIWorkspace/Build/MdeModule/DEBUG_GCC5/X64/MdePkg/Library/UefiDevicePathLib/UefiDevicePathLib/OUTPUT/UefiDevicePathLib.lib(UefiDevicePathLib.obj)
                              (--whole-archive)
/home/hcj/UEFIWorkspace/Build/MdeModule/DEBUG_GCC5/X64/MdePkg/Library/UefiLib/UefiLib/OUTPUT/UefiLib.lib(UefiLibPrint.obj)
                              (--whole-archive)
/home/hcj/UEFIWorkspace/Build/MdeModule/DEBUG_GCC5/X64/MdePkg/Library/UefiLib/UefiLib/OUTPUT/UefiLib.lib(UefiNotTiano.obj)
                              (--whole-archive)
/home/hcj/UEFIWorkspace/Build/MdeModule/DEBUG_GCC5/X64/MdePkg/Library/UefiLib/UefiLib/OUTPUT/UefiLib.lib(UefiDriverModel.obj)
                              (--whole-archive)
/home/hcj/UEFIWorkspace/Build/MdeModule/DEBUG_GCC5/X64/MdePkg/Library/UefiLib/UefiLib/OUTPUT/UefiLib.lib(Console.obj)
                              (--whole-archive)
/home/hcj/UEFIWorkspace/Build/MdeModule/DEBUG_GCC5/X64/MdePkg/Library/UefiLib/UefiLib/OUTPUT/UefiLib.lib(UefiLib.obj)
                              (--whole-archive)
/home/hcj/UEFIWorkspace/Build/MdeModule/DEBUG_GCC5/X64/MdePkg/Library/UefiLib/UefiLib/OUTPUT/UefiLib.lib(Acpi.obj)
                              (--whole-archive)
/home/hcj/UEFIWorkspace/Build/MdeModule/DEBUG_GCC5/X64/MdePkg/Library/DxeHobLib/DxeHobLib/OUTPUT/DxeHobLib.lib(HobLib.obj)
                              (--whole-archive)
/home/hcj/UEFIWorkspace/Build/MdeModule/DEBUG_GCC5/X64/MdeModulePkg/Library/UefiHiiServicesLib/UefiHiiServicesLib/OUTPUT/UefiHiiServicesLib.lib(UefiHiiServicesLib.obj)
                              (--whole-archive)
/home/hcj/UEFIWorkspace/Build/MdeModule/DEBUG_GCC5/X64/MdeModulePkg/Library/BaseSortLib/BaseSortLib/OUTPUT/BaseSortLib.lib(BaseSortLib.obj)
                              (--whole-archive)
/home/hcj/UEFIWorkspace/Build/MdeModule/DEBUG_GCC5/X64/MdePkg/Library/DxeServicesLib/DxeServicesLib/OUTPUT/DxeServicesLib.lib(DxeServicesLib.obj)
                              (--whole-archive)
/home/hcj/UEFIWorkspace/Build/MdeModule/DEBUG_GCC5/X64/MdePkg/Library/DxeServicesLib/DxeServicesLib/OUTPUT/DxeServicesLib.lib(Allocate.obj)
                              (--whole-archive)
/home/hcj/UEFIWorkspace/Build/MdeModule/DEBUG_GCC5/X64/MdePkg/Library/DxeServicesTableLib/DxeServicesTableLib/OUTPUT/DxeServicesTableLib.lib(DxeServicesTableLib.obj)
                              (--whole-archive)
/home/hcj/UEFIWorkspace/Build/MdeModule/DEBUG_GCC5/X64/MdePkg/Library/BasePeCoffGetEntryPointLib/BasePeCoffGetEntryPointLib/OUTPUT/BasePeCoffGetEntryPointLib.lib(PeCoffGetEntryPoint.obj)
                              (--whole-archive)
/home/hcj/UEFIWorkspace/Build/MdeModule/DEBUG_GCC5/X64/MdePkg/Library/BasePerformanceLibNull/BasePerformanceLibNull/OUTPUT/BasePerformanceLibNull.lib(PerformanceLib.obj)
                              (--whole-archive)
/home/hcj/UEFIWorkspace/Build/MdeModule/DEBUG_GCC5/X64/MdeModulePkg/Library/UefiHiiLib/UefiHiiLib/OUTPUT/UefiHiiLib.lib(HiiLib.obj)
                              (--whole-archive)
/home/hcj/UEFIWorkspace/Build/MdeModule/DEBUG_GCC5/X64/MdeModulePkg/Library/UefiHiiLib/UefiHiiLib/OUTPUT/UefiHiiLib.lib(HiiString.obj)
                              (--whole-archive)
/home/hcj/UEFIWorkspace/Build/MdeModule/DEBUG_GCC5/X64/MdeModulePkg/Library/UefiHiiLib/UefiHiiLib/OUTPUT/UefiHiiLib.lib(HiiLanguage.obj)
                              (--whole-archive)
/home/hcj/UEFIWorkspace/Build/MdeModule/DEBUG_GCC5/X64/MdePkg/Library/BaseReportStatusCodeLibNull/BaseReportStatusCodeLibNull/OUTPUT/BaseReportStatusCodeLibNull.lib(BaseReportStatusCodeLib.obj)
                              (--whole-archive)
/home/hcj/UEFIWorkspace/Build/MdeModule/DEBUG_GCC5/X64/MdeModulePkg/Library/UefiBootManagerLib/UefiBootManagerLib/OUTPUT/UefiBootManagerLib.lib(BmConnect.obj)
                              (--whole-archive)
/home/hcj/UEFIWorkspace/Build/MdeModule/DEBUG_GCC5/X64/MdeModulePkg/Library/UefiBootManagerLib/UefiBootManagerLib/OUTPUT/UefiBootManagerLib.lib(BmMisc.obj)
                              (--whole-archive)
/home/hcj/UEFIWorkspace/Build/MdeModule/DEBUG_GCC5/X64/MdeModulePkg/Library/UefiBootManagerLib/UefiBootManagerLib/OUTPUT/UefiBootManagerLib.lib(BmConsole.obj)
                              (--whole-archive)
/home/hcj/UEFIWorkspace/Build/MdeModule/DEBUG_GCC5/X64/MdeModulePkg/Library/UefiBootManagerLib/UefiBootManagerLib/OUTPUT/UefiBootManagerLib.lib(BmBoot.obj)
                              (--whole-archive)
/home/hcj/UEFIWorkspace/Build/MdeModule/DEBUG_GCC5/X64/MdeModulePkg/Library/UefiBootManagerLib/UefiBootManagerLib/OUTPUT/UefiBootManagerLib.lib(BmBootDescription.obj)
                              (--whole-archive)
/home/hcj/UEFIWorkspace/Build/MdeModule/DEBUG_GCC5/X64/MdeModulePkg/Library/UefiBootManagerLib/UefiBootManagerLib/OUTPUT/UefiBootManagerLib.lib(BmLoadOption.obj)
                              (--whole-archive)
/home/hcj/UEFIWorkspace/Build/MdeModule/DEBUG_GCC5/X64/MdeModulePkg/Library/UefiBootManagerLib/UefiBootManagerLib/OUTPUT/UefiBootManagerLib.lib(BmHotkey.obj)
                              (--whole-archive)
/home/hcj/UEFIWorkspace/Build/MdeModule/DEBUG_GCC5/X64/MdeModulePkg/Library/UefiBootManagerLib/UefiBootManagerLib/OUTPUT/UefiBootManagerLib.lib(BmDriverHealth.obj)
                              (--whole-archive)
/home/hcj/UEFIWorkspace/Build/MdeModule/DEBUG_GCC5/X64/MdeModulePkg/Library/FileExplorerLib/FileExplorerLib/OUTPUT/FileExplorerLib.lib(FileExplorerVfr.obj)
                              (--whole-archive)
/home/hcj/UEFIWorkspace/Build/MdeModule/DEBUG_GCC5/X64/MdeModulePkg/Library/FileExplorerLib/FileExplorerLib/OUTPUT/FileExplorerLib.lib(FileExplorer.obj)
                              (--whole-archive)
/home/hcj/UEFIWorkspace/Build/MdeModule/DEBUG_GCC5/X64/MdeModulePkg/Library/FileExplorerLib/FileExplorerLib/OUTPUT/FileExplorerLib.lib(AutoGen.obj)
                              (--whole-archive)
/home/hcj/UEFIWorkspace/Build/MdeModule/DEBUG_GCC5/X64/MdePkg/Library/UefiApplicationEntryPoint/UefiApplicationEntryPoint/OUTPUT/UefiApplicationEntryPoint.lib(ApplicationEntryPoint.obj)
                              (--whole-archive)
/home/hcj/UEFIWorkspace/Build/MdeModule/DEBUG_GCC5/X64/MdeModulePkg/Library/DeviceManagerUiLib/DeviceManagerUiLib/OUTPUT/DeviceManagerUiLib.lib(DeviceManagerVfr.obj)
                              (--whole-archive)
/home/hcj/UEFIWorkspace/Build/MdeModule/DEBUG_GCC5/X64/MdeModulePkg/Library/DeviceManagerUiLib/DeviceManagerUiLib/OUTPUT/DeviceManagerUiLib.lib(DeviceManager.obj)
                              (--whole-archive)
/home/hcj/UEFIWorkspace/Build/MdeModule/DEBUG_GCC5/X64/MdeModulePkg/Library/DeviceManagerUiLib/DeviceManagerUiLib/OUTPUT/DeviceManagerUiLib.lib(AutoGen.obj)
                              (--whole-archive)
/home/hcj/UEFIWorkspace/Build/MdeModule/DEBUG_GCC5/X64/MdeModulePkg/Library/BootDiscoveryPolicyUiLib/BootDiscoveryPolicyUiLib/OUTPUT/BootDiscoveryPolicyUiLib.lib(BootDiscoveryPolicyUiLib.obj)
                              (--whole-archive)
/home/hcj/UEFIWorkspace/Build/MdeModule/DEBUG_GCC5/X64/MdeModulePkg/Library/BootDiscoveryPolicyUiLib/BootDiscoveryPolicyUiLib/OUTPUT/BootDiscoveryPolicyUiLib.lib(BootDiscoveryPolicyUiLibVfr.obj)
                              (--whole-archive)
/home/hcj/UEFIWorkspace/Build/MdeModule/DEBUG_GCC5/X64/MdeModulePkg/Library/BootDiscoveryPolicyUiLib/BootDiscoveryPolicyUiLib/OUTPUT/BootDiscoveryPolicyUiLib.lib(AutoGen.obj)
                              (--whole-archive)
/home/hcj/UEFIWorkspace/Build/MdeModule/DEBUG_GCC5/X64/MdeModulePkg/Library/BootManagerUiLib/BootManagerUiLib/OUTPUT/BootManagerUiLib.lib(BootManagerVfr.obj)
                              (--whole-archive)
/home/hcj/UEFIWorkspace/Build/MdeModule/DEBUG_GCC5/X64/MdeModulePkg/Library/BootManagerUiLib/BootManagerUiLib/OUTPUT/BootManagerUiLib.lib(BootManager.obj)
                              (--whole-archive)
/home/hcj/UEFIWorkspace/Build/MdeModule/DEBUG_GCC5/X64/MdeModulePkg/Library/BootManagerUiLib/BootManagerUiLib/OUTPUT/BootManagerUiLib.lib(AutoGen.obj)
                              (--whole-archive)
/home/hcj/UEFIWorkspace/Build/MdeModule/DEBUG_GCC5/X64/MdeModulePkg/Library/BootMaintenanceManagerUiLib/BootMaintenanceManagerUiLib/OUTPUT/BootMaintenanceManagerUiLib.lib(BootMaintenanceManager.obj)
                              (--whole-archive)
/home/hcj/UEFIWorkspace/Build/MdeModule/DEBUG_GCC5/X64/MdeModulePkg/Library/BootMaintenanceManagerUiLib/BootMaintenanceManagerUiLib/OUTPUT/BootMaintenanceManagerUiLib.lib(BootMaintenance.obj)
                              (--whole-archive)
/home/hcj/UEFIWorkspace/Build/MdeModule/DEBUG_GCC5/X64/MdeModulePkg/Library/BootMaintenanceManagerUiLib/BootMaintenanceManagerUiLib/OUTPUT/BootMaintenanceManagerUiLib.lib(BootOption.obj)
                              (--whole-archive)
/home/hcj/UEFIWorkspace/Build/MdeModule/DEBUG_GCC5/X64/MdeModulePkg/Library/BootMaintenanceManagerUiLib/BootMaintenanceManagerUiLib/OUTPUT/BootMaintenanceManagerUiLib.lib(ConsoleOption.obj)
                              (--whole-archive)
/home/hcj/UEFIWorkspace/Build/MdeModule/DEBUG_GCC5/X64/MdeModulePkg/Library/BootMaintenanceManagerUiLib/BootMaintenanceManagerUiLib/OUTPUT/BootMaintenanceManagerUiLib.lib(Data.obj)
                              (--whole-archive)
/home/hcj/UEFIWorkspace/Build/MdeModule/DEBUG_GCC5/X64/MdeModulePkg/Library/BootMaintenanceManagerUiLib/BootMaintenanceManagerUiLib/OUTPUT/BootMaintenanceManagerUiLib.lib(Variable.obj)
                              (--whole-archive)
/home/hcj/UEFIWorkspace/Build/MdeModule/DEBUG_GCC5/X64/MdeModulePkg/Library/BootMaintenanceManagerUiLib/BootMaintenanceManagerUiLib/OUTPUT/BootMaintenanceManagerUiLib.lib(UpdatePage.obj)
                              (--whole-archive)
/home/hcj/UEFIWorkspace/Build/MdeModule/DEBUG_GCC5/X64/MdeModulePkg/Library/BootMaintenanceManagerUiLib/BootMaintenanceManagerUiLib/OUTPUT/BootMaintenanceManagerUiLib.lib(BmLib.obj)
                              (--whole-archive)
/home/hcj/UEFIWorkspace/Build/MdeModule/DEBUG_GCC5/X64/MdeModulePkg/Library/BootMaintenanceManagerUiLib/BootMaintenanceManagerUiLib/OUTPUT/BootMaintenanceManagerUiLib.lib(BootMaintenanceManagerCustomizedUi.obj)
                              (--whole-archive)
/home/hcj/UEFIWorkspace/Build/MdeModule/DEBUG_GCC5/X64/MdeModulePkg/Library/BootMaintenanceManagerUiLib/BootMaintenanceManagerUiLib/OUTPUT/BootMaintenanceManagerUiLib.lib(BootMaintenanceManagerCustomizedUiSupport.obj)
                              (--whole-archive)
/home/hcj/UEFIWorkspace/Build/MdeModule/DEBUG_GCC5/X64/MdeModulePkg/Library/BootMaintenanceManagerUiLib/BootMaintenanceManagerUiLib/OUTPUT/BootMaintenanceManagerUiLib.lib(AutoGen.obj)
                              (--whole-archive)

Discarded input sections

 .text          0x0000000000000000        0x0 /tmp/ccx0bwyx.ltrans0.ltrans.o
 .data          0x0000000000000000        0x0 /tmp/ccx0bwyx.ltrans0.ltrans.o
 .bss           0x0000000000000000        0x0 /tmp/ccx0bwyx.ltrans0.ltrans.o
 .text.unlikely._ModuleEntryPoint
                0x0000000000000000        0x0 /tmp/ccx0bwyx.ltrans0.ltrans.o
 .comment       0x0000000000000000       0x2e /tmp/ccx0bwyx.ltrans0.ltrans.o
 .note.GNU-stack
                0x0000000000000000        0x0 /tmp/ccx0bwyx.ltrans0.ltrans.o
 .text          0x0000000000000000        0x0 /tmp/ccx0bwyx.ltrans1.ltrans.o
 .data          0x0000000000000000        0x0 /tmp/ccx0bwyx.ltrans1.ltrans.o
 .bss           0x0000000000000000        0x0 /tmp/ccx0bwyx.ltrans1.ltrans.o
 .text.unlikely.BootMaintCallback
                0x0000000000000000        0x0 /tmp/ccx0bwyx.ltrans1.ltrans.o
 .comment       0x0000000000000000       0x2e /tmp/ccx0bwyx.ltrans1.ltrans.o
 .note.GNU-stack
                0x0000000000000000        0x0 /tmp/ccx0bwyx.ltrans1.ltrans.o
 .text          0x0000000000000000        0x0 /tmp/ccx0bwyx.ltrans2.ltrans.o
 .data          0x0000000000000000        0x0 /tmp/ccx0bwyx.ltrans2.ltrans.o
 .bss           0x0000000000000000        0x0 /tmp/ccx0bwyx.ltrans2.ltrans.o
 .text.unlikely.EfiBootManagerBoot
                0x0000000000000000        0x0 /tmp/ccx0bwyx.ltrans2.ltrans.o
 .comment       0x0000000000000000       0x2e /tmp/ccx0bwyx.ltrans2.ltrans.o
 .note.GNU-stack
                0x0000000000000000        0x0 /tmp/ccx0bwyx.ltrans2.ltrans.o
 .text          0x0000000000000000        0x0 /tmp/ccx0bwyx.ltrans3.ltrans.o
 .data          0x0000000000000000        0x0 /tmp/ccx0bwyx.ltrans3.ltrans.o
 .bss           0x0000000000000000        0x0 /tmp/ccx0bwyx.ltrans3.ltrans.o
 .text.unlikely.ProcessLibraryConstructorList
                0x0000000000000000        0x0 /tmp/ccx0bwyx.ltrans3.ltrans.o
 .comment       0x0000000000000000       0x2e /tmp/ccx0bwyx.ltrans3.ltrans.o
 .note.GNU-stack
                0x0000000000000000        0x0 /tmp/ccx0bwyx.ltrans3.ltrans.o
 .text          0x0000000000000000        0x0 /tmp/ccx0bwyx.ltrans4.ltrans.o
 .data          0x0000000000000000        0x0 /tmp/ccx0bwyx.ltrans4.ltrans.o
 .bss           0x0000000000000000        0x0 /tmp/ccx0bwyx.ltrans4.ltrans.o
 .text.unlikely.BmEndOfBdsPerfCode
                0x0000000000000000        0x0 /tmp/ccx0bwyx.ltrans4.ltrans.o
 .text.BmEndOfBdsPerfCode
                0x0000000000000000        0x1 /tmp/ccx0bwyx.ltrans4.ltrans.o
 .text.unlikely.BmDestroyRamDisk
                0x0000000000000000        0x0 /tmp/ccx0bwyx.ltrans4.ltrans.o
 .text.unlikely.BmGetRamDiskDevicePath
                0x0000000000000000        0x0 /tmp/ccx0bwyx.ltrans4.ltrans.o
 .text.unlikely.BmExpandMediaDevicePath
                0x0000000000000000        0x0 /tmp/ccx0bwyx.ltrans4.ltrans.o
 .text.unlikely.BmExpandLoadFile
                0x0000000000000000        0x0 /tmp/ccx0bwyx.ltrans4.ltrans.o
 .text.unlikely.BmCachePartitionDevicePath
                0x0000000000000000        0x0 /tmp/ccx0bwyx.ltrans4.ltrans.o
 .text.unlikely.BmAdjustFvFilePath
                0x0000000000000000        0x0 /tmp/ccx0bwyx.ltrans4.ltrans.o
 .text.unlikely.EfiBootManagerConnectConsoleVariable.part.1.lto_priv.89
                0x0000000000000000        0x0 /tmp/ccx0bwyx.ltrans4.ltrans.o
 .data.rel.ro.local.gEfiCallerBaseName
                0x0000000000000000        0x8 /tmp/ccx0bwyx.ltrans4.ltrans.o
 .comment       0x0000000000000000       0x2e /tmp/ccx0bwyx.ltrans4.ltrans.o
 .note.GNU-stack
                0x0000000000000000        0x0 /tmp/ccx0bwyx.ltrans4.ltrans.o
 .text          0x0000000000000000        0x0 /tmp/ccx0bwyx.ltrans5.ltrans.o
 .data          0x0000000000000000        0x0 /tmp/ccx0bwyx.ltrans5.ltrans.o
 .bss           0x0000000000000000        0x0 /tmp/ccx0bwyx.ltrans5.ltrans.o
 .text.unlikely.UnicodeVSPrintAsciiFormat.constprop.80
                0x0000000000000000        0x0 /tmp/ccx0bwyx.ltrans5.ltrans.o
 .text.unlikely.UnicodeSPrintAsciiFormat.constprop.79
                0x0000000000000000        0x0 /tmp/ccx0bwyx.ltrans5.ltrans.o
 .text.unlikely.DebugPrintMarker.constprop.77
                0x0000000000000000        0x0 /tmp/ccx0bwyx.ltrans5.ltrans.o
 .text.unlikely.InternalAllocatePool.constprop.76
                0x0000000000000000        0x0 /tmp/ccx0bwyx.ltrans5.ltrans.o
 .text.unlikely.LShiftU64.constprop.74
                0x0000000000000000        0x0 /tmp/ccx0bwyx.ltrans5.ltrans.o
 .text.unlikely.CreatePopUp.constprop.72
                0x0000000000000000        0x0 /tmp/ccx0bwyx.ltrans5.ltrans.o
 .text.unlikely.HiiCreateActionOpCode.constprop.70
                0x0000000000000000        0x0 /tmp/ccx0bwyx.ltrans5.ltrans.o
 .text.unlikely.HiiCreateSubTitleOpCode.constprop.69
                0x0000000000000000        0x0 /tmp/ccx0bwyx.ltrans5.ltrans.o
 .text.unlikely.HiiCreateGotoExOpCode.constprop.68
                0x0000000000000000        0x0 /tmp/ccx0bwyx.ltrans5.ltrans.o
 .text.unlikely.HiiSetString.constprop.66
                0x0000000000000000        0x0 /tmp/ccx0bwyx.ltrans5.ltrans.o
 .text.unlikely.HiiGetString.constprop.63
                0x0000000000000000        0x0 /tmp/ccx0bwyx.ltrans5.ltrans.o
 .text.unlikely.HiiGetHiiHandles.constprop.62
                0x0000000000000000        0x0 /tmp/ccx0bwyx.ltrans5.ltrans.o
 .text.unlikely.HiiCreateOneOfOpCode.constprop.60
                0x0000000000000000        0x0 /tmp/ccx0bwyx.ltrans5.ltrans.o
 .text.unlikely.HiiCreateGuidOpCode.constprop.59
                0x0000000000000000        0x0 /tmp/ccx0bwyx.ltrans5.ltrans.o
 .rodata._gPcd_FixedAtBuild_PcdFixedDebugPrintErrorLevel
                0x0000000000000000        0x4 /tmp/ccx0bwyx.ltrans5.ltrans.o
 .comment       0x0000000000000000       0x2e /tmp/ccx0bwyx.ltrans5.ltrans.o
 .note.GNU-stack
                0x0000000000000000        0x0 /tmp/ccx0bwyx.ltrans5.ltrans.o
 .text          0x0000000000000000        0x0 /tmp/ccx0bwyx.ltrans6.ltrans.o
 .data          0x0000000000000000        0x0 /tmp/ccx0bwyx.ltrans6.ltrans.o
 .bss           0x0000000000000000        0x0 /tmp/ccx0bwyx.ltrans6.ltrans.o
 .text.unlikely.BmUpdateSystemTableConsole
                0x0000000000000000        0x0 /tmp/ccx0bwyx.ltrans6.ltrans.o
 .text.unlikely.EfiBootManagerConnectAllDefaultConsoles
                0x0000000000000000        0x0 /tmp/ccx0bwyx.ltrans6.ltrans.o
 .text.unlikely.InternalHiiGrowOpCodeHandle
                0x0000000000000000        0x0 /tmp/ccx0bwyx.ltrans6.ltrans.o
 .text.unlikely.BmPrintDp
                0x0000000000000000        0x0 /tmp/ccx0bwyx.ltrans6.ltrans.o
 .text.unlikely.BmSetVariableAndReportStatusCodeOnError
                0x0000000000000000        0x0 /tmp/ccx0bwyx.ltrans6.ltrans.o
 .text.unlikely.BmDelPartMatchInstance
                0x0000000000000000        0x0 /tmp/ccx0bwyx.ltrans6.ltrans.o
 .text.unlikely.EfiBootManagerConnectDevicePath.part.0.lto_priv.87
                0x0000000000000000        0x0 /tmp/ccx0bwyx.ltrans6.ltrans.o
 .text.unlikely.BmConnectUsbShortFormDevicePath
                0x0000000000000000        0x0 /tmp/ccx0bwyx.ltrans6.ltrans.o
 .text.unlikely.EfiBootManagerConnectAll
                0x0000000000000000        0x0 /tmp/ccx0bwyx.ltrans6.ltrans.o
 .text.unlikely.HiiGetSupportedLanguages
                0x0000000000000000        0x0 /tmp/ccx0bwyx.ltrans6.ltrans.o
 .text.unlikely.HiiUpdateForm
                0x0000000000000000        0x0 /tmp/ccx0bwyx.ltrans6.ltrans.o
 .text.unlikely.InternalHiiAppendOpCodes
                0x0000000000000000        0x0 /tmp/ccx0bwyx.ltrans6.ltrans.o
 .text.unlikely.InternalHiiCreateOpCodeExtended
                0x0000000000000000        0x0 /tmp/ccx0bwyx.ltrans6.ltrans.o
 .text.unlikely.InternalHiiCreateOpCode
                0x0000000000000000        0x0 /tmp/ccx0bwyx.ltrans6.ltrans.o
 .text.unlikely.HiiCreateGotoOpCode
                0x0000000000000000        0x0 /tmp/ccx0bwyx.ltrans6.ltrans.o
 .text.unlikely.HiiCreateOneOfOptionOpCode
                0x0000000000000000        0x0 /tmp/ccx0bwyx.ltrans6.ltrans.o
 .text.unlikely.HiiCreateEndOpCode
                0x0000000000000000        0x0 /tmp/ccx0bwyx.ltrans6.ltrans.o
 .text.unlikely.HiiFreeOpCodeHandle
                0x0000000000000000        0x0 /tmp/ccx0bwyx.ltrans6.ltrans.o
 .comment       0x0000000000000000       0x2e /tmp/ccx0bwyx.ltrans6.ltrans.o
 .note.GNU-stack
                0x0000000000000000        0x0 /tmp/ccx0bwyx.ltrans6.ltrans.o
 .text          0x0000000000000000        0x0 /tmp/ccx0bwyx.ltrans7.ltrans.o
 .data          0x0000000000000000        0x0 /tmp/ccx0bwyx.ltrans7.ltrans.o
 .bss           0x0000000000000000        0x0 /tmp/ccx0bwyx.ltrans7.ltrans.o
 .text.unlikely.EfiEventEmptyFunction
                0x0000000000000000        0x0 /tmp/ccx0bwyx.ltrans7.ltrans.o
 .text.unlikely.DevPathToTextNodeGeneric
                0x0000000000000000        0x0 /tmp/ccx0bwyx.ltrans7.ltrans.o
 .text.unlikely.DevPathToTextEndInstance
                0x0000000000000000        0x0 /tmp/ccx0bwyx.ltrans7.ltrans.o
 .text.unlikely.DevPathToTextBBS
                0x0000000000000000        0x0 /tmp/ccx0bwyx.ltrans7.ltrans.o
 .text.unlikely.DevPathRelativeOffsetRange
                0x0000000000000000        0x0 /tmp/ccx0bwyx.ltrans7.ltrans.o
 .text.unlikely.DevPathToTextFvFile
                0x0000000000000000        0x0 /tmp/ccx0bwyx.ltrans7.ltrans.o
 .text.unlikely.DevPathToTextFv
                0x0000000000000000        0x0 /tmp/ccx0bwyx.ltrans7.ltrans.o
 .text.unlikely.DevPathToTextMediaProtocol
                0x0000000000000000        0x0 /tmp/ccx0bwyx.ltrans7.ltrans.o
 .text.unlikely.DevPathToTextFilePath
                0x0000000000000000        0x0 /tmp/ccx0bwyx.ltrans7.ltrans.o
 .text.unlikely.DevPathToTextCDROM
                0x0000000000000000        0x0 /tmp/ccx0bwyx.ltrans7.ltrans.o
 .text.unlikely.DevPathToTextHardDrive
                0x0000000000000000        0x0 /tmp/ccx0bwyx.ltrans7.ltrans.o
 .text.unlikely.DevPathToTextUri
                0x0000000000000000        0x0 /tmp/ccx0bwyx.ltrans7.ltrans.o
 .text.unlikely.DevPathToTextRamDisk
                0x0000000000000000        0x0 /tmp/ccx0bwyx.ltrans7.ltrans.o
 .text.unlikely.HiiAllocateOpCodeHandle
                0x0000000000000000        0x0 /tmp/ccx0bwyx.ltrans7.ltrans.o
 .text.unlikely.InternalHiiCompareSubString
                0x0000000000000000        0x0 /tmp/ccx0bwyx.ltrans7.ltrans.o
 .text.unlikely.HiiGetFormSetFromHiiHandle
                0x0000000000000000        0x0 /tmp/ccx0bwyx.ltrans7.ltrans.o
 .text.unlikely.HiiRemovePackages
                0x0000000000000000        0x0 /tmp/ccx0bwyx.ltrans7.ltrans.o
 .text.unlikely.HiiAddPackages
                0x0000000000000000        0x0 /tmp/ccx0bwyx.ltrans7.ltrans.o
 .text.unlikely.GetBestLanguage
                0x0000000000000000        0x0 /tmp/ccx0bwyx.ltrans7.ltrans.o
 .text.unlikely.GetVariable2
                0x0000000000000000        0x0 /tmp/ccx0bwyx.ltrans7.ltrans.o
 .text.unlikely.GetEfiGlobalVariable2
                0x0000000000000000        0x0 /tmp/ccx0bwyx.ltrans7.ltrans.o
 .text.unlikely.EfiGetSystemConfigurationTable
                0x0000000000000000        0x0 /tmp/ccx0bwyx.ltrans7.ltrans.o
 .text.unlikely.GetHobList
                0x0000000000000000        0x0 /tmp/ccx0bwyx.ltrans7.ltrans.o
 .text.unlikely.UefiLibGetStringWidth
                0x0000000000000000        0x0 /tmp/ccx0bwyx.ltrans7.ltrans.o
 .text.unlikely.EfiGetNameGuidFromFwVolDevicePathNode
                0x0000000000000000        0x0 /tmp/ccx0bwyx.ltrans7.ltrans.o
 .text.unlikely.Print
                0x0000000000000000        0x0 /tmp/ccx0bwyx.ltrans7.ltrans.o
 .text.unlikely.UefiDevicePathLibConvertDevicePathToText
                0x0000000000000000        0x0 /tmp/ccx0bwyx.ltrans7.ltrans.o
 .comment       0x0000000000000000       0x2e /tmp/ccx0bwyx.ltrans7.ltrans.o
 .note.GNU-stack
                0x0000000000000000        0x0 /tmp/ccx0bwyx.ltrans7.ltrans.o
 .text          0x0000000000000000        0x0 /tmp/ccx0bwyx.ltrans8.ltrans.o
 .data          0x0000000000000000        0x0 /tmp/ccx0bwyx.ltrans8.ltrans.o
 .bss           0x0000000000000000        0x0 /tmp/ccx0bwyx.ltrans8.ltrans.o
 .text.unlikely.BootMaintRouteConfig
                0x0000000000000000        0x0 /tmp/ccx0bwyx.ltrans8.ltrans.o
 .comment       0x0000000000000000       0x2e /tmp/ccx0bwyx.ltrans8.ltrans.o
 .note.GNU-stack
                0x0000000000000000        0x0 /tmp/ccx0bwyx.ltrans8.ltrans.o
 .text          0x0000000000000000        0x0 /tmp/ccx0bwyx.ltrans9.ltrans.o
 .data          0x0000000000000000        0x0 /tmp/ccx0bwyx.ltrans9.ltrans.o
 .bss           0x0000000000000000        0x0 /tmp/ccx0bwyx.ltrans9.ltrans.o
 .text.unlikely.BmGetNextLoadOptionDevicePath
                0x0000000000000000        0x0 /tmp/ccx0bwyx.ltrans9.ltrans.o
 .comment       0x0000000000000000       0x2e /tmp/ccx0bwyx.ltrans9.ltrans.o
 .note.GNU-stack
                0x0000000000000000        0x0 /tmp/ccx0bwyx.ltrans9.ltrans.o
 .text          0x0000000000000000        0x0 /tmp/ccx0bwyx.ltrans10.ltrans.o
 .data          0x0000000000000000        0x0 /tmp/ccx0bwyx.ltrans10.ltrans.o
 .bss           0x0000000000000000        0x0 /tmp/ccx0bwyx.ltrans10.ltrans.o
 .text.unlikely.UnicodeVSPrint
                0x0000000000000000        0x0 /tmp/ccx0bwyx.ltrans10.ltrans.o
 .text.unlikely.UnicodeSPrint
                0x0000000000000000        0x0 /tmp/ccx0bwyx.ltrans10.ltrans.o
 .text.unlikely.BasePrintLibValueToString
                0x0000000000000000        0x0 /tmp/ccx0bwyx.ltrans10.ltrans.o
 .text.unlikely.BasePrintLibFillBuffer
                0x0000000000000000        0x0 /tmp/ccx0bwyx.ltrans10.ltrans.o
 .text.unlikely.UnicodeValueToStringS
                0x0000000000000000        0x0 /tmp/ccx0bwyx.ltrans10.ltrans.o
 .text.unlikely.WriteUnaligned64
                0x0000000000000000        0x0 /tmp/ccx0bwyx.ltrans10.ltrans.o
 .text.unlikely.ReadUnaligned64
                0x0000000000000000        0x0 /tmp/ccx0bwyx.ltrans10.ltrans.o
 .text.unlikely.WriteUnaligned32
                0x0000000000000000        0x0 /tmp/ccx0bwyx.ltrans10.ltrans.o
 .text.unlikely.ReadUnaligned32
                0x0000000000000000        0x0 /tmp/ccx0bwyx.ltrans10.ltrans.o
 .text.unlikely.WriteUnaligned16
                0x0000000000000000        0x0 /tmp/ccx0bwyx.ltrans10.ltrans.o
 .text.unlikely.ReadUnaligned16
                0x0000000000000000        0x0 /tmp/ccx0bwyx.ltrans10.ltrans.o
 .text.unlikely.AsciiStrLen
                0x0000000000000000        0x0 /tmp/ccx0bwyx.ltrans10.ltrans.o
 .text.unlikely.AsciiStrSize
                0x0000000000000000        0x0 /tmp/ccx0bwyx.ltrans10.ltrans.o
 .text.unlikely.AsciiStrnCmp.part.4.lto_priv.84
                0x0000000000000000        0x0 /tmp/ccx0bwyx.ltrans10.ltrans.o
 .text.unlikely.StrLen
                0x0000000000000000        0x0 /tmp/ccx0bwyx.ltrans10.ltrans.o
 .text.unlikely.StrSize
                0x0000000000000000        0x0 /tmp/ccx0bwyx.ltrans10.ltrans.o
 .text.unlikely.StrnCmp.part.0.lto_priv.86
                0x0000000000000000        0x0 /tmp/ccx0bwyx.ltrans10.ltrans.o
 .text.unlikely.StrStr
                0x0000000000000000        0x0 /tmp/ccx0bwyx.ltrans10.ltrans.o
 .text.unlikely.StrCmp
                0x0000000000000000        0x0 /tmp/ccx0bwyx.ltrans10.ltrans.o
 .text.unlikely.AsciiStrnLenS
                0x0000000000000000        0x0 /tmp/ccx0bwyx.ltrans10.ltrans.o
 .text.unlikely.AsciiStrToUnicodeStrS
                0x0000000000000000        0x0 /tmp/ccx0bwyx.ltrans10.ltrans.o
 .text.unlikely.StrCatS
                0x0000000000000000        0x0 /tmp/ccx0bwyx.ltrans10.ltrans.o
 .comment       0x0000000000000000       0x2e /tmp/ccx0bwyx.ltrans10.ltrans.o
 .note.GNU-stack
                0x0000000000000000        0x0 /tmp/ccx0bwyx.ltrans10.ltrans.o
 .text          0x0000000000000000        0x0 /tmp/ccx0bwyx.ltrans11.ltrans.o
 .data          0x0000000000000000        0x0 /tmp/ccx0bwyx.ltrans11.ltrans.o
 .bss           0x0000000000000000        0x0 /tmp/ccx0bwyx.ltrans11.ltrans.o
 .text.unlikely.EfiBootManagerIsValidLoadOptionVariableName
                0x0000000000000000        0x0 /tmp/ccx0bwyx.ltrans11.ltrans.o
 .text.unlikely.BmGetMiscDescription
                0x0000000000000000        0x0 /tmp/ccx0bwyx.ltrans11.ltrans.o
 .text.unlikely.EfiBootManagerFreeLoadOption
                0x0000000000000000        0x0 /tmp/ccx0bwyx.ltrans11.ltrans.o
 .text.unlikely.EfiBootManagerFreeLoadOptions
                0x0000000000000000        0x0 /tmp/ccx0bwyx.ltrans11.ltrans.o
 .text.unlikely.EfiBootManagerDeleteLoadOptionVariable
                0x0000000000000000        0x0 /tmp/ccx0bwyx.ltrans11.ltrans.o
 .text.unlikely.EfiBootManagerFindLoadOption
                0x0000000000000000        0x0 /tmp/ccx0bwyx.ltrans11.ltrans.o
 .text.unlikely.EfiBootManagerInitializeLoadOption
                0x0000000000000000        0x0 /tmp/ccx0bwyx.ltrans11.ltrans.o
 .text.unlikely.EfiBootManagerVariableToLoadOptionEx.part.5.lto_priv.85
                0x0000000000000000        0x0 /tmp/ccx0bwyx.ltrans11.ltrans.o
 .text.unlikely.BmCollectLoadOptions
                0x0000000000000000        0x0 /tmp/ccx0bwyx.ltrans11.ltrans.o
 .text.BmCollectLoadOptions
                0x0000000000000000      0x150 /tmp/ccx0bwyx.ltrans11.ltrans.o
 .text.unlikely.EfiBootManagerLoadOptionToVariable
                0x0000000000000000        0x0 /tmp/ccx0bwyx.ltrans11.ltrans.o
 .text.unlikely.BmGetFreeOptionNumber
                0x0000000000000000        0x0 /tmp/ccx0bwyx.ltrans11.ltrans.o
 .text.unlikely.BmGetBootDescription
                0x0000000000000000        0x0 /tmp/ccx0bwyx.ltrans11.ltrans.o
 .comment       0x0000000000000000       0x2e /tmp/ccx0bwyx.ltrans11.ltrans.o
 .note.GNU-stack
                0x0000000000000000        0x0 /tmp/ccx0bwyx.ltrans11.ltrans.o
 .text          0x0000000000000000        0x0 /tmp/ccx0bwyx.ltrans12.ltrans.o
 .data          0x0000000000000000        0x0 /tmp/ccx0bwyx.ltrans12.ltrans.o
 .bss           0x0000000000000000        0x0 /tmp/ccx0bwyx.ltrans12.ltrans.o
 .text.unlikely.ExitBootServicesCallback
                0x0000000000000000        0x0 /tmp/ccx0bwyx.ltrans12.ltrans.o
 .text.unlikely.DebugAssert.part.0
                0x0000000000000000        0x0 /tmp/ccx0bwyx.ltrans12.ltrans.o
 .text.unlikely.DevicePathFromHandle
                0x0000000000000000        0x0 /tmp/ccx0bwyx.ltrans12.ltrans.o
 .text.unlikely.AllocateZeroPool
                0x0000000000000000        0x0 /tmp/ccx0bwyx.ltrans12.ltrans.o
 .text.unlikely.AllocatePool
                0x0000000000000000        0x0 /tmp/ccx0bwyx.ltrans12.ltrans.o
 .text.unlikely.DebugPrintEnabled
                0x0000000000000000        0x0 /tmp/ccx0bwyx.ltrans12.ltrans.o
 .text.unlikely.DebugAssertEnabled
                0x0000000000000000        0x0 /tmp/ccx0bwyx.ltrans12.ltrans.o
 .text.unlikely.DebugAssert
                0x0000000000000000        0x0 /tmp/ccx0bwyx.ltrans12.ltrans.o
 .text.unlikely.SetDevicePathEndNode
                0x0000000000000000        0x0 /tmp/ccx0bwyx.ltrans12.ltrans.o
 .text.unlikely.SetDevicePathNodeLength
                0x0000000000000000        0x0 /tmp/ccx0bwyx.ltrans12.ltrans.o
 .text.unlikely.DevicePathNodeLength
                0x0000000000000000        0x0 /tmp/ccx0bwyx.ltrans12.ltrans.o
 .text.unlikely.NextDevicePathNode
                0x0000000000000000        0x0 /tmp/ccx0bwyx.ltrans12.ltrans.o
 .text.unlikely.DevicePathSubType
                0x0000000000000000        0x0 /tmp/ccx0bwyx.ltrans12.ltrans.o
 .text.unlikely.DevicePathType
                0x0000000000000000        0x0 /tmp/ccx0bwyx.ltrans12.ltrans.o
 .text.unlikely.IsDevicePathEndType
                0x0000000000000000        0x0 /tmp/ccx0bwyx.ltrans12.ltrans.o
 .text.unlikely.IsDevicePathEnd
                0x0000000000000000        0x0 /tmp/ccx0bwyx.ltrans12.ltrans.o
 .text.unlikely.IsDevicePathValid
                0x0000000000000000        0x0 /tmp/ccx0bwyx.ltrans12.ltrans.o
 .text.unlikely.UefiDevicePathLibGetDevicePathSize
                0x0000000000000000        0x0 /tmp/ccx0bwyx.ltrans12.ltrans.o
 .text.unlikely.AllocateCopyPool
                0x0000000000000000        0x0 /tmp/ccx0bwyx.ltrans12.ltrans.o
 .text.unlikely.UefiDevicePathLibDuplicateDevicePath
                0x0000000000000000        0x0 /tmp/ccx0bwyx.ltrans12.ltrans.o
 .text.unlikely.UefiDevicePathLibGetNextDevicePathInstance
                0x0000000000000000        0x0 /tmp/ccx0bwyx.ltrans12.ltrans.o
 .text.unlikely.UefiDevicePathLibAppendDevicePathInstance
                0x0000000000000000        0x0 /tmp/ccx0bwyx.ltrans12.ltrans.o
 .text.unlikely.UefiDevicePathLibAppendDevicePath
                0x0000000000000000        0x0 /tmp/ccx0bwyx.ltrans12.ltrans.o
 .text.unlikely.DebugPrint
                0x0000000000000000        0x0 /tmp/ccx0bwyx.ltrans12.ltrans.o
 .text.unlikely.FreePool
                0x0000000000000000        0x0 /tmp/ccx0bwyx.ltrans12.ltrans.o
 .text.unlikely.FileDevicePath
                0x0000000000000000        0x0 /tmp/ccx0bwyx.ltrans12.ltrans.o
 .text.unlikely.UefiDevicePathLibAppendDevicePathNode
                0x0000000000000000        0x0 /tmp/ccx0bwyx.ltrans12.ltrans.o
 .text.unlikely.ReallocatePool
                0x0000000000000000        0x0 /tmp/ccx0bwyx.ltrans12.ltrans.o
 .text.unlikely.UefiDevicePathLibCatPrint
                0x0000000000000000        0x0 /tmp/ccx0bwyx.ltrans12.ltrans.o
 .text.unlikely.DevPathToTextVendor
                0x0000000000000000        0x0 /tmp/ccx0bwyx.ltrans12.ltrans.o
 .text.unlikely.DevPathToTextMemMap
                0x0000000000000000        0x0 /tmp/ccx0bwyx.ltrans12.ltrans.o
 .text.unlikely.DevPathToTextPccard
                0x0000000000000000        0x0 /tmp/ccx0bwyx.ltrans12.ltrans.o
 .text.unlikely.DevPathToTextPci
                0x0000000000000000        0x0 /tmp/ccx0bwyx.ltrans12.ltrans.o
 .text.unlikely.FreePages
                0x0000000000000000        0x0 /tmp/ccx0bwyx.ltrans12.ltrans.o
 .comment       0x0000000000000000       0x2e /tmp/ccx0bwyx.ltrans12.ltrans.o
 .note.GNU-stack
                0x0000000000000000        0x0 /tmp/ccx0bwyx.ltrans12.ltrans.o
 .text          0x0000000000000000        0x0 /tmp/ccx0bwyx.ltrans13.ltrans.o
 .data          0x0000000000000000        0x0 /tmp/ccx0bwyx.ltrans13.ltrans.o
 .bss           0x0000000000000000        0x0 /tmp/ccx0bwyx.ltrans13.ltrans.o
 .text.unlikely.EfiBootManagerAddLoadOptionVariable.constprop.50
                0x0000000000000000        0x0 /tmp/ccx0bwyx.ltrans13.ltrans.o
 .text.unlikely.EfiBootManagerGetLoadOptions.part.7.constprop.48
                0x0000000000000000        0x0 /tmp/ccx0bwyx.ltrans13.ltrans.o
 .text.unlikely.LogPerformanceMeasurementEnabled.constprop.45
                0x0000000000000000        0x0 /tmp/ccx0bwyx.ltrans13.ltrans.o
 .text.LogPerformanceMeasurementEnabled.constprop.45
                0x0000000000000000        0x3 /tmp/ccx0bwyx.ltrans13.ltrans.o
 .text.unlikely.IsZeroBuffer.constprop.37
                0x0000000000000000        0x0 /tmp/ccx0bwyx.ltrans13.ltrans.o
 .text.unlikely.EfiAcquireLock.constprop.27
                0x0000000000000000        0x0 /tmp/ccx0bwyx.ltrans13.ltrans.o
 .text.unlikely.EfiReleaseLock.constprop.26
                0x0000000000000000        0x0 /tmp/ccx0bwyx.ltrans13.ltrans.o
 .text.unlikely.InternalHiiBrowserCallback.constprop.20
                0x0000000000000000        0x0 /tmp/ccx0bwyx.ltrans13.ltrans.o
 .text.unlikely.HiiConstructConfigHdr.constprop.19
                0x0000000000000000        0x0 /tmp/ccx0bwyx.ltrans13.ltrans.o
 .text.unlikely.HiiIsConfigHdrMatch.constprop.18
                0x0000000000000000        0x0 /tmp/ccx0bwyx.ltrans13.ltrans.o
 .text.unlikely.HiiCreateCheckBoxOpCode.constprop.15
                0x0000000000000000        0x0 /tmp/ccx0bwyx.ltrans13.ltrans.o
 .text.unlikely.ChooseFile.part.1.constprop.4
                0x0000000000000000        0x0 /tmp/ccx0bwyx.ltrans13.ltrans.o
 .text.unlikely.EfiLibDeleteVariable.constprop.2
                0x0000000000000000        0x0 /tmp/ccx0bwyx.ltrans13.ltrans.o
 .text.unlikely.RequiredDriver
                0x0000000000000000        0x0 /tmp/ccx0bwyx.ltrans13.ltrans.o
 .text.unlikely.UpdatePageBody
                0x0000000000000000        0x0 /tmp/ccx0bwyx.ltrans13.ltrans.o
 .comment       0x0000000000000000       0x2e /tmp/ccx0bwyx.ltrans13.ltrans.o
 .note.GNU-stack
                0x0000000000000000        0x0 /tmp/ccx0bwyx.ltrans13.ltrans.o
 .text          0x0000000000000000        0x0 /tmp/ccx0bwyx.ltrans14.ltrans.o
 .data          0x0000000000000000        0x0 /tmp/ccx0bwyx.ltrans14.ltrans.o
 .bss           0x0000000000000000        0x0 /tmp/ccx0bwyx.ltrans14.ltrans.o
 .text.unlikely.DevPathToTextBluetoothLE
                0x0000000000000000        0x0 /tmp/ccx0bwyx.ltrans14.ltrans.o
 .text.unlikely.DevPathToTextBluetooth
                0x0000000000000000        0x0 /tmp/ccx0bwyx.ltrans14.ltrans.o
 .text.unlikely.DevPathToTextVlan
                0x0000000000000000        0x0 /tmp/ccx0bwyx.ltrans14.ltrans.o
 .text.unlikely.DevPathToTextiSCSI
                0x0000000000000000        0x0 /tmp/ccx0bwyx.ltrans14.ltrans.o
 .text.unlikely.DevPathToTextUart
                0x0000000000000000        0x0 /tmp/ccx0bwyx.ltrans14.ltrans.o
 .text.unlikely.DevPathToTextInfiniBand
                0x0000000000000000        0x0 /tmp/ccx0bwyx.ltrans14.ltrans.o
 .text.unlikely.CatIPv6Address
                0x0000000000000000        0x0 /tmp/ccx0bwyx.ltrans14.ltrans.o
 .text.unlikely.CatIPv4Address
                0x0000000000000000        0x0 /tmp/ccx0bwyx.ltrans14.ltrans.o
 .text.unlikely.CatNetworkProtocol
                0x0000000000000000        0x0 /tmp/ccx0bwyx.ltrans14.ltrans.o
 .text.unlikely.DevPathToTextMacAddr
                0x0000000000000000        0x0 /tmp/ccx0bwyx.ltrans14.ltrans.o
 .text.unlikely.DevPathToTextI2O
                0x0000000000000000        0x0 /tmp/ccx0bwyx.ltrans14.ltrans.o
 .text.unlikely.DevPathToTextSata
                0x0000000000000000        0x0 /tmp/ccx0bwyx.ltrans14.ltrans.o
 .text.unlikely.DevPathToTextUsbClass
                0x0000000000000000        0x0 /tmp/ccx0bwyx.ltrans14.ltrans.o
 .text.unlikely.DevPathToTextLogicalUnit
                0x0000000000000000        0x0 /tmp/ccx0bwyx.ltrans14.ltrans.o
 .text.unlikely.DevPathToTextUsb
                0x0000000000000000        0x0 /tmp/ccx0bwyx.ltrans14.ltrans.o
 .text.unlikely.DevPathToText1394
                0x0000000000000000        0x0 /tmp/ccx0bwyx.ltrans14.ltrans.o
 .text.unlikely.DevPathToTextEmmc
                0x0000000000000000        0x0 /tmp/ccx0bwyx.ltrans14.ltrans.o
 .text.unlikely.DevPathToTextSd
                0x0000000000000000        0x0 /tmp/ccx0bwyx.ltrans14.ltrans.o
 .text.unlikely.DevPathToTextUfs
                0x0000000000000000        0x0 /tmp/ccx0bwyx.ltrans14.ltrans.o
 .text.unlikely.DevPathToTextNVMe
                0x0000000000000000        0x0 /tmp/ccx0bwyx.ltrans14.ltrans.o
 .text.unlikely.DevPathToTextSasEx
                0x0000000000000000        0x0 /tmp/ccx0bwyx.ltrans14.ltrans.o
 .text.unlikely.DevPathToTextFibreEx
                0x0000000000000000        0x0 /tmp/ccx0bwyx.ltrans14.ltrans.o
 .text.unlikely.DevPathToTextFibre
                0x0000000000000000        0x0 /tmp/ccx0bwyx.ltrans14.ltrans.o
 .text.unlikely.DevPathToTextScsi
                0x0000000000000000        0x0 /tmp/ccx0bwyx.ltrans14.ltrans.o
 .text.unlikely.DevPathToTextAtapi
                0x0000000000000000        0x0 /tmp/ccx0bwyx.ltrans14.ltrans.o
 .text.unlikely.DevPathToTextAcpi
                0x0000000000000000        0x0 /tmp/ccx0bwyx.ltrans14.ltrans.o
 .text.unlikely.DevPathToTextController
                0x0000000000000000        0x0 /tmp/ccx0bwyx.ltrans14.ltrans.o
 .text.unlikely.DevPathToTextDns
                0x0000000000000000        0x0 /tmp/ccx0bwyx.ltrans14.ltrans.o
 .text.unlikely.DevPathToTextIPv6
                0x0000000000000000        0x0 /tmp/ccx0bwyx.ltrans14.ltrans.o
 .text.unlikely.DevPathToTextIPv4
                0x0000000000000000        0x0 /tmp/ccx0bwyx.ltrans14.ltrans.o
 .text.unlikely.DevPathToTextAcpiAdr
                0x0000000000000000        0x0 /tmp/ccx0bwyx.ltrans14.ltrans.o
 .text.unlikely.DevPathToTextWiFi
                0x0000000000000000        0x0 /tmp/ccx0bwyx.ltrans14.ltrans.o
 .text.unlikely.DevPathToTextUsbWWID
                0x0000000000000000        0x0 /tmp/ccx0bwyx.ltrans14.ltrans.o
 .text.unlikely.DevPathToTextAcpiEx
                0x0000000000000000        0x0 /tmp/ccx0bwyx.ltrans14.ltrans.o
 .text.unlikely.DevPathToTextBmc
                0x0000000000000000        0x0 /tmp/ccx0bwyx.ltrans14.ltrans.o
 .comment       0x0000000000000000       0x2e /tmp/ccx0bwyx.ltrans14.ltrans.o
 .note.GNU-stack
                0x0000000000000000        0x0 /tmp/ccx0bwyx.ltrans14.ltrans.o
 .text          0x0000000000000000        0x0 /tmp/ccx0bwyx.ltrans15.ltrans.o
 .data          0x0000000000000000        0x0 /tmp/ccx0bwyx.ltrans15.ltrans.o
 .bss           0x0000000000000000        0x0 /tmp/ccx0bwyx.ltrans15.ltrans.o
 .text.unlikely.EfiBootManagerFreeDriverHealthInfo
                0x0000000000000000        0x0 /tmp/ccx0bwyx.ltrans15.ltrans.o
 .text.unlikely.BmRepairNotify
                0x0000000000000000        0x0 /tmp/ccx0bwyx.ltrans15.ltrans.o
 .text.unlikely.BmGetSingleControllerHealthStatus
                0x0000000000000000        0x0 /tmp/ccx0bwyx.ltrans15.ltrans.o
 .text.unlikely.EfiBootManagerGetDriverHealthInfo
                0x0000000000000000        0x0 /tmp/ccx0bwyx.ltrans15.ltrans.o
 .text.unlikely.BmGetControllerName
                0x0000000000000000        0x0 /tmp/ccx0bwyx.ltrans15.ltrans.o
 .text.unlikely.BmDisplayMessages
                0x0000000000000000        0x0 /tmp/ccx0bwyx.ltrans15.ltrans.o
 .text.unlikely.BmHotkeyCallback
                0x0000000000000000        0x0 /tmp/ccx0bwyx.ltrans15.ltrans.o
 .text.unlikely.BmRepairAllControllers
                0x0000000000000000        0x0 /tmp/ccx0bwyx.ltrans15.ltrans.o
 .rodata._gPcd_FixedAtBuild_PcdDebugPropertyMask
                0x0000000000000000        0x1 /tmp/ccx0bwyx.ltrans15.ltrans.o
 .comment       0x0000000000000000       0x2e /tmp/ccx0bwyx.ltrans15.ltrans.o
 .note.GNU-stack
                0x0000000000000000        0x0 /tmp/ccx0bwyx.ltrans15.ltrans.o
 .text          0x0000000000000000        0x0 /tmp/ccx0bwyx.ltrans16.ltrans.o
 .data          0x0000000000000000        0x0 /tmp/ccx0bwyx.ltrans16.ltrans.o
 .bss           0x0000000000000000        0x0 /tmp/ccx0bwyx.ltrans16.ltrans.o
 .text.unlikely.LibExtractConfig
                0x0000000000000000        0x0 /tmp/ccx0bwyx.ltrans16.ltrans.o
 .text.unlikely.LibGetMenuEntry
                0x0000000000000000        0x0 /tmp/ccx0bwyx.ltrans16.ltrans.o
 .text.unlikely.LibGetDevicePath
                0x0000000000000000        0x0 /tmp/ccx0bwyx.ltrans16.ltrans.o
 .text.unlikely.LibAppendFileName
                0x0000000000000000        0x0 /tmp/ccx0bwyx.ltrans16.ltrans.o
 .text.unlikely.LibCreateNewFile
                0x0000000000000000        0x0 /tmp/ccx0bwyx.ltrans16.ltrans.o
 .text.unlikely.LibRouteConfig
                0x0000000000000000        0x0 /tmp/ccx0bwyx.ltrans16.ltrans.o
 .text.unlikely.LibUpdateFileExplorePage
                0x0000000000000000        0x0 /tmp/ccx0bwyx.ltrans16.ltrans.o
 .text.unlikely.LibToLowerString
                0x0000000000000000        0x0 /tmp/ccx0bwyx.ltrans16.ltrans.o
 .text.unlikely.LibStrDuplicate
                0x0000000000000000        0x0 /tmp/ccx0bwyx.ltrans16.ltrans.o
 .text.unlikely.LibDestroyMenuEntry
                0x0000000000000000        0x0 /tmp/ccx0bwyx.ltrans16.ltrans.o
 .text.unlikely.LibFreeMenu
                0x0000000000000000        0x0 /tmp/ccx0bwyx.ltrans16.ltrans.o
 .text.unlikely.LibCreateMenuEntry
                0x0000000000000000        0x0 /tmp/ccx0bwyx.ltrans16.ltrans.o
 .text.unlikely.LibCallback
                0x0000000000000000        0x0 /tmp/ccx0bwyx.ltrans16.ltrans.o
 .comment       0x0000000000000000       0x2e /tmp/ccx0bwyx.ltrans16.ltrans.o
 .note.GNU-stack
                0x0000000000000000        0x0 /tmp/ccx0bwyx.ltrans16.ltrans.o
 .text          0x0000000000000000        0x0 /tmp/ccx0bwyx.ltrans17.ltrans.o
 .data          0x0000000000000000        0x0 /tmp/ccx0bwyx.ltrans17.ltrans.o
 .bss           0x0000000000000000        0x0 /tmp/ccx0bwyx.ltrans17.ltrans.o
 .text.unlikely.BootManagerExtractConfig
                0x0000000000000000        0x0 /tmp/ccx0bwyx.ltrans17.ltrans.o
 .text.unlikely.BmSetConsoleMode
                0x0000000000000000        0x0 /tmp/ccx0bwyx.ltrans17.ltrans.o
 .text.unlikely.BootManagerCallback
                0x0000000000000000        0x0 /tmp/ccx0bwyx.ltrans17.ltrans.o
 .text.unlikely.BootManagerRouteConfig
                0x0000000000000000        0x0 /tmp/ccx0bwyx.ltrans17.ltrans.o
 .text.unlikely.DeviceManagerRouteConfig
                0x0000000000000000        0x0 /tmp/ccx0bwyx.ltrans17.ltrans.o
 .text.unlikely.DeviceManagerCallback
                0x0000000000000000        0x0 /tmp/ccx0bwyx.ltrans17.ltrans.o
 .comment       0x0000000000000000       0x2e /tmp/ccx0bwyx.ltrans17.ltrans.o
 .note.GNU-stack
                0x0000000000000000        0x0 /tmp/ccx0bwyx.ltrans17.ltrans.o
 .text          0x0000000000000000        0x0 /tmp/ccx0bwyx.ltrans18.ltrans.o
 .data          0x0000000000000000        0x0 /tmp/ccx0bwyx.ltrans18.ltrans.o
 .bss           0x0000000000000000        0x0 /tmp/ccx0bwyx.ltrans18.ltrans.o
 .text.unlikely.UpdatePageEnd
                0x0000000000000000        0x0 /tmp/ccx0bwyx.ltrans18.ltrans.o
 .text.unlikely.RefreshUpdateData
                0x0000000000000000        0x0 /tmp/ccx0bwyx.ltrans18.ltrans.o
 .text.unlikely.CleanUpPage
                0x0000000000000000        0x0 /tmp/ccx0bwyx.ltrans18.ltrans.o
 .text.unlikely.UpdatePageStart
                0x0000000000000000        0x0 /tmp/ccx0bwyx.ltrans18.ltrans.o
 .text.unlikely.UpdateOrderPage
                0x0000000000000000        0x0 /tmp/ccx0bwyx.ltrans18.ltrans.o
 .text.unlikely.UpdateConsolePage
                0x0000000000000000        0x0 /tmp/ccx0bwyx.ltrans18.ltrans.o
 .text.unlikely.GetConsoleOutMode
                0x0000000000000000        0x0 /tmp/ccx0bwyx.ltrans18.ltrans.o
 .text.unlikely.UpdateComAttributeFromVariable
                0x0000000000000000        0x0 /tmp/ccx0bwyx.ltrans18.ltrans.o
 .text.unlikely.RetrieveUartUid
                0x0000000000000000        0x0 /tmp/ccx0bwyx.ltrans18.ltrans.o
 .text.unlikely.ChangeTerminalDevicePath
                0x0000000000000000        0x0 /tmp/ccx0bwyx.ltrans18.ltrans.o
 .text.unlikely.Var_UpdateConsoleOption
                0x0000000000000000        0x0 /tmp/ccx0bwyx.ltrans18.ltrans.o
 .text.unlikely.GetConsoleMenu
                0x0000000000000000        0x0 /tmp/ccx0bwyx.ltrans18.ltrans.o
 .data.rel.ro.local.mBmmCallbackInfo
                0x0000000000000000        0x8 /tmp/ccx0bwyx.ltrans18.ltrans.o
 .comment       0x0000000000000000       0x2e /tmp/ccx0bwyx.ltrans18.ltrans.o
 .note.GNU-stack
                0x0000000000000000        0x0 /tmp/ccx0bwyx.ltrans18.ltrans.o
 .text          0x0000000000000000        0x0 /tmp/ccx0bwyx.ltrans19.ltrans.o
 .data          0x0000000000000000        0x0 /tmp/ccx0bwyx.ltrans19.ltrans.o
 .bss           0x0000000000000000        0x0 /tmp/ccx0bwyx.ltrans19.ltrans.o
 .text.unlikely.ReSendForm
                0x0000000000000000        0x0 /tmp/ccx0bwyx.ltrans19.ltrans.o
 .text.unlikely.CreateDriverOptionFromFile
                0x0000000000000000        0x0 /tmp/ccx0bwyx.ltrans19.ltrans.o
 .text.unlikely.CreateBootOptionFromFile
                0x0000000000000000        0x0 /tmp/ccx0bwyx.ltrans19.ltrans.o
 .text.unlikely.BootFromFile
                0x0000000000000000        0x0 /tmp/ccx0bwyx.ltrans19.ltrans.o
 .text.unlikely.IsIsaSerialNode
                0x0000000000000000        0x0 /tmp/ccx0bwyx.ltrans19.ltrans.o
 .text.unlikely.BmMatchDevicePaths
                0x0000000000000000        0x0 /tmp/ccx0bwyx.ltrans19.ltrans.o
 .text.unlikely.BOpt_GetOptionNumber
                0x0000000000000000        0x0 /tmp/ccx0bwyx.ltrans19.ltrans.o
 .text.unlikely.BOpt_FreeMenu
                0x0000000000000000        0x0 /tmp/ccx0bwyx.ltrans19.ltrans.o
 .text.unlikely.BOpt_GetDriverOptions
                0x0000000000000000        0x0 /tmp/ccx0bwyx.ltrans19.ltrans.o
 .text.unlikely.BOpt_GetBootOptions
                0x0000000000000000        0x0 /tmp/ccx0bwyx.ltrans19.ltrans.o
 .text.unlikely.BOpt_GetMenuEntry
                0x0000000000000000        0x0 /tmp/ccx0bwyx.ltrans19.ltrans.o
 .text.unlikely.GetDriverOrder
                0x0000000000000000        0x0 /tmp/ccx0bwyx.ltrans19.ltrans.o
 .text.unlikely.GetBootOrder
                0x0000000000000000        0x0 /tmp/ccx0bwyx.ltrans19.ltrans.o
 .comment       0x0000000000000000       0x2e /tmp/ccx0bwyx.ltrans19.ltrans.o
 .note.GNU-stack
                0x0000000000000000        0x0 /tmp/ccx0bwyx.ltrans19.ltrans.o
 .text          0x0000000000000000        0x0 /tmp/ccx0bwyx.ltrans20.ltrans.o
 .data          0x0000000000000000        0x0 /tmp/ccx0bwyx.ltrans20.ltrans.o
 .bss           0x0000000000000000        0x0 /tmp/ccx0bwyx.ltrans20.ltrans.o
 .text.unlikely.InternalBaseLibIsListValid
                0x0000000000000000        0x0 /tmp/ccx0bwyx.ltrans20.ltrans.o
 .text.unlikely.IsNodeInList
                0x0000000000000000        0x0 /tmp/ccx0bwyx.ltrans20.ltrans.o
 .text.unlikely.StrnLenS
                0x0000000000000000        0x0 /tmp/ccx0bwyx.ltrans20.ltrans.o
 .text.unlikely.InternalSafeStringNoStrOverlap
                0x0000000000000000        0x0 /tmp/ccx0bwyx.ltrans20.ltrans.o
 .text.unlikely.StrCpyS
                0x0000000000000000        0x0 /tmp/ccx0bwyx.ltrans20.ltrans.o
 .text.unlikely.IsNull
                0x0000000000000000        0x0 /tmp/ccx0bwyx.ltrans20.ltrans.o
 .text.unlikely.IsListEmpty
                0x0000000000000000        0x0 /tmp/ccx0bwyx.ltrans20.ltrans.o
 .text.unlikely.RemoveEntryList
                0x0000000000000000        0x0 /tmp/ccx0bwyx.ltrans20.ltrans.o
 .text.unlikely.GetNextNode
                0x0000000000000000        0x0 /tmp/ccx0bwyx.ltrans20.ltrans.o
 .text.unlikely.GetFirstNode
                0x0000000000000000        0x0 /tmp/ccx0bwyx.ltrans20.ltrans.o
 .text.unlikely.InsertTailList
                0x0000000000000000        0x0 /tmp/ccx0bwyx.ltrans20.ltrans.o
 .text.unlikely.InitializeListHead
                0x0000000000000000        0x0 /tmp/ccx0bwyx.ltrans20.ltrans.o
 .text.unlikely.InternalAssertJumpBuffer
                0x0000000000000000        0x0 /tmp/ccx0bwyx.ltrans20.ltrans.o
 .text.InternalAssertJumpBuffer
                0x0000000000000000       0x56 /tmp/ccx0bwyx.ltrans20.ltrans.o
 .text.unlikely.CompareGuid
                0x0000000000000000        0x0 /tmp/ccx0bwyx.ltrans20.ltrans.o
 .text.unlikely.CopyGuid
                0x0000000000000000        0x0 /tmp/ccx0bwyx.ltrans20.ltrans.o
 .text.unlikely.CopyMem
                0x0000000000000000        0x0 /tmp/ccx0bwyx.ltrans20.ltrans.o
 .text.unlikely.SetMem16.part.0.lto_priv.83
                0x0000000000000000        0x0 /tmp/ccx0bwyx.ltrans20.ltrans.o
 .text.unlikely.CompareMem
                0x0000000000000000        0x0 /tmp/ccx0bwyx.ltrans20.ltrans.o
 .text.unlikely.ZeroMem
                0x0000000000000000        0x0 /tmp/ccx0bwyx.ltrans20.ltrans.o
 .comment       0x0000000000000000       0x2e /tmp/ccx0bwyx.ltrans20.ltrans.o
 .note.GNU-stack
                0x0000000000000000        0x0 /tmp/ccx0bwyx.ltrans20.ltrans.o
 .text          0x0000000000000000        0x0 /tmp/ccx0bwyx.ltrans21.ltrans.o
 .data          0x0000000000000000        0x0 /tmp/ccx0bwyx.ltrans21.ltrans.o
 .bss           0x0000000000000000        0x0 /tmp/ccx0bwyx.ltrans21.ltrans.o
 .text.unlikely.BmEliminateExtraSpaces
                0x0000000000000000        0x0 /tmp/ccx0bwyx.ltrans21.ltrans.o
 .text.unlikely.BmGetNvmeDescription
                0x0000000000000000        0x0 /tmp/ccx0bwyx.ltrans21.ltrans.o
 .text.unlikely.BmGetLoadFileDescription
                0x0000000000000000        0x0 /tmp/ccx0bwyx.ltrans21.ltrans.o
 .text.unlikely.BmGetNetworkDescription
                0x0000000000000000        0x0 /tmp/ccx0bwyx.ltrans21.ltrans.o
 .text.unlikely.BmGetUsbDescription
                0x0000000000000000        0x0 /tmp/ccx0bwyx.ltrans21.ltrans.o
 .text.unlikely.BmGetDescriptionFromDiskInfo
                0x0000000000000000        0x0 /tmp/ccx0bwyx.ltrans21.ltrans.o
 .text.unlikely.BmMatchPartitionDevicePathNode.part.6.lto_priv.88
                0x0000000000000000        0x0 /tmp/ccx0bwyx.ltrans21.ltrans.o
 .comment       0x0000000000000000       0x2e /tmp/ccx0bwyx.ltrans21.ltrans.o
 .note.GNU-stack
                0x0000000000000000        0x0 /tmp/ccx0bwyx.ltrans21.ltrans.o
 .text          0x0000000000000000        0x0 /tmp/ccx0bwyx.ltrans22.ltrans.o
 .data          0x0000000000000000        0x0 /tmp/ccx0bwyx.ltrans22.ltrans.o
 .bss           0x0000000000000000        0x0 /tmp/ccx0bwyx.ltrans22.ltrans.o
 .text.unlikely.BasePrintLibSPrintMarker.constprop.81
                0x0000000000000000        0x0 /tmp/ccx0bwyx.ltrans22.ltrans.o
 .comment       0x0000000000000000       0x2e /tmp/ccx0bwyx.ltrans22.ltrans.o
 .note.GNU-stack
                0x0000000000000000        0x0 /tmp/ccx0bwyx.ltrans22.ltrans.o
 .text          0x0000000000000000        0x0 /tmp/ccx0bwyx.ltrans23.ltrans.o
 .data          0x0000000000000000        0x0 /tmp/ccx0bwyx.ltrans23.ltrans.o
 .bss           0x0000000000000000        0x0 /tmp/ccx0bwyx.ltrans23.ltrans.o
 .text.unlikely.DeviceManagerExtractConfig
                0x0000000000000000        0x0 /tmp/ccx0bwyx.ltrans23.ltrans.o
 .text.unlikely.IsMacAddressDevicePath
                0x0000000000000000        0x0 /tmp/ccx0bwyx.ltrans23.ltrans.o
 .text.unlikely.CreateDeviceManagerForm
                0x0000000000000000        0x0 /tmp/ccx0bwyx.ltrans23.ltrans.o
 .comment       0x0000000000000000       0x2e /tmp/ccx0bwyx.ltrans23.ltrans.o
 .note.GNU-stack
                0x0000000000000000        0x0 /tmp/ccx0bwyx.ltrans23.ltrans.o
 .text          0x0000000000000000        0x0 /tmp/ccx0bwyx.ltrans24.ltrans.o
 .data          0x0000000000000000        0x0 /tmp/ccx0bwyx.ltrans24.ltrans.o
 .bss           0x0000000000000000        0x0 /tmp/ccx0bwyx.ltrans24.ltrans.o
 .text.unlikely.BootMaintExtractConfig
                0x0000000000000000        0x0 /tmp/ccx0bwyx.ltrans24.ltrans.o
 .text.unlikely.UpdateConsoleContent
                0x0000000000000000        0x0 /tmp/ccx0bwyx.ltrans24.ltrans.o
 .text.unlikely.UiDevicePathToStr
                0x0000000000000000        0x0 /tmp/ccx0bwyx.ltrans24.ltrans.o
 .text.unlikely.ExtractFileNameFromDevicePath
                0x0000000000000000        0x0 /tmp/ccx0bwyx.ltrans24.ltrans.o
 .text.unlikely.BmmSetConsoleMode
                0x0000000000000000        0x0 /tmp/ccx0bwyx.ltrans24.ltrans.o
 .comment       0x0000000000000000       0x2e /tmp/ccx0bwyx.ltrans24.ltrans.o
 .note.GNU-stack
                0x0000000000000000        0x0 /tmp/ccx0bwyx.ltrans24.ltrans.o
 .text          0x0000000000000000        0x0 /tmp/ccx0bwyx.ltrans25.ltrans.o
 .data          0x0000000000000000        0x0 /tmp/ccx0bwyx.ltrans25.ltrans.o
 .bss           0x0000000000000000        0x0 /tmp/ccx0bwyx.ltrans25.ltrans.o
 .text.unlikely.EfiBootManagerRefreshAllBootOption
                0x0000000000000000        0x0 /tmp/ccx0bwyx.ltrans25.ltrans.o
 .comment       0x0000000000000000       0x2e /tmp/ccx0bwyx.ltrans25.ltrans.o
 .note.GNU-stack
                0x0000000000000000        0x0 /tmp/ccx0bwyx.ltrans25.ltrans.o
 .text          0x0000000000000000        0x0 /tmp/ccx0bwyx.ltrans26.ltrans.o
 .data          0x0000000000000000        0x0 /tmp/ccx0bwyx.ltrans26.ltrans.o
 .bss           0x0000000000000000        0x0 /tmp/ccx0bwyx.ltrans26.ltrans.o
 .text.unlikely.FakeRouteConfig
                0x0000000000000000        0x0 /tmp/ccx0bwyx.ltrans26.ltrans.o
 .text.unlikely.FakeExtractConfig
                0x0000000000000000        0x0 /tmp/ccx0bwyx.ltrans26.ltrans.o
 .text.unlikely.GetNextLanguage
                0x0000000000000000        0x0 /tmp/ccx0bwyx.ltrans26.ltrans.o
 .text.unlikely.FrontPageCallback
                0x0000000000000000        0x0 /tmp/ccx0bwyx.ltrans26.ltrans.o
 .text.unlikely.UiCustomizeFrontPageBanner
                0x0000000000000000        0x0 /tmp/ccx0bwyx.ltrans26.ltrans.o
 .text.unlikely.UiSetConsoleMode
                0x0000000000000000        0x0 /tmp/ccx0bwyx.ltrans26.ltrans.o
 .text.unlikely.GetOptionalStringByIndex
                0x0000000000000000        0x0 /tmp/ccx0bwyx.ltrans26.ltrans.o
 .comment       0x0000000000000000       0x2e /tmp/ccx0bwyx.ltrans26.ltrans.o
 .note.GNU-stack
                0x0000000000000000        0x0 /tmp/ccx0bwyx.ltrans26.ltrans.o
 .text          0x0000000000000000        0x0 /tmp/ccx0bwyx.ltrans27.ltrans.o
 .data          0x0000000000000000        0x0 /tmp/ccx0bwyx.ltrans27.ltrans.o
 .bss           0x0000000000000000        0x0 /tmp/ccx0bwyx.ltrans27.ltrans.o
 .text.unlikely.BOpt_DestroyMenuEntry
                0x0000000000000000        0x0 /tmp/ccx0bwyx.ltrans27.ltrans.o
 .text.unlikely.BOpt_CreateMenuEntry
                0x0000000000000000        0x0 /tmp/ccx0bwyx.ltrans27.ltrans.o
 .text.unlikely.CleanUselessBeforeSubmit
                0x0000000000000000        0x0 /tmp/ccx0bwyx.ltrans27.ltrans.o
 .comment       0x0000000000000000       0x2e /tmp/ccx0bwyx.ltrans27.ltrans.o
 .note.GNU-stack
                0x0000000000000000        0x0 /tmp/ccx0bwyx.ltrans27.ltrans.o
 .text          0x0000000000000000        0x0 /tmp/ccx0bwyx.ltrans28.ltrans.o
 .data          0x0000000000000000        0x0 /tmp/ccx0bwyx.ltrans28.ltrans.o
 .bss           0x0000000000000000        0x0 /tmp/ccx0bwyx.ltrans28.ltrans.o
 .text.unlikely.BmReportLoadFailure
                0x0000000000000000        0x0 /tmp/ccx0bwyx.ltrans28.ltrans.o
 .text.unlikely.BmIsBootManagerMenuFilePath
                0x0000000000000000        0x0 /tmp/ccx0bwyx.ltrans28.ltrans.o
 .comment       0x0000000000000000       0x2e /tmp/ccx0bwyx.ltrans28.ltrans.o
 .note.GNU-stack
                0x0000000000000000        0x0 /tmp/ccx0bwyx.ltrans28.ltrans.o
 .text          0x0000000000000000        0x0 /tmp/ccx0bwyx.ltrans29.ltrans.o
 .data          0x0000000000000000        0x0 /tmp/ccx0bwyx.ltrans29.ltrans.o
 .bss           0x0000000000000000        0x0 /tmp/ccx0bwyx.ltrans29.ltrans.o
 .text.unlikely.InternalMemSetMem
                0x0000000000000000        0x0 /tmp/ccx0bwyx.ltrans29.ltrans.o
 .comment       0x0000000000000000       0x2e /tmp/ccx0bwyx.ltrans29.ltrans.o
 .note.GNU-stack
                0x0000000000000000        0x0 /tmp/ccx0bwyx.ltrans29.ltrans.o
 .text          0x0000000000000000        0x0 /tmp/ccx0bwyx.ltrans30.ltrans.o
 .data          0x0000000000000000        0x0 /tmp/ccx0bwyx.ltrans30.ltrans.o
 .bss           0x0000000000000000        0x0 /tmp/ccx0bwyx.ltrans30.ltrans.o
 .text.unlikely.DmExtractDevicePathFromHiiHandle
                0x0000000000000000        0x0 /tmp/ccx0bwyx.ltrans30.ltrans.o
 .comment       0x0000000000000000       0x2e /tmp/ccx0bwyx.ltrans30.ltrans.o
 .note.GNU-stack
                0x0000000000000000        0x0 /tmp/ccx0bwyx.ltrans30.ltrans.o
 .text          0x0000000000000000        0x0 /tmp/ccx0bwyx.ltrans31.ltrans.o
 .data          0x0000000000000000        0x0 /tmp/ccx0bwyx.ltrans31.ltrans.o
 .bss           0x0000000000000000        0x0 /tmp/ccx0bwyx.ltrans31.ltrans.o
 .text.unlikely.BasePrintLibSPrint.constprop.82
                0x0000000000000000        0x0 /tmp/ccx0bwyx.ltrans31.ltrans.o
 .comment       0x0000000000000000       0x2e /tmp/ccx0bwyx.ltrans31.ltrans.o
 .note.GNU-stack
                0x0000000000000000        0x0 /tmp/ccx0bwyx.ltrans31.ltrans.o
 .text          0x0000000000000000      0x204 /home/hcj/UEFIWorkspace/Build/MdeModule/DEBUG_GCC5/X64/MdePkg/Library/BaseLib/BaseLib/OUTPUT/BaseLib.lib(Thunk16.obj)
 .data          0x0000000000000000        0xa /home/hcj/UEFIWorkspace/Build/MdeModule/DEBUG_GCC5/X64/MdePkg/Library/BaseLib/BaseLib/OUTPUT/BaseLib.lib(Thunk16.obj)
 .text          0x0000000000000000       0x2f /home/hcj/UEFIWorkspace/Build/MdeModule/DEBUG_GCC5/X64/MdePkg/Library/BaseLib/BaseLib/OUTPUT/BaseLib.lib(CpuIdEx.obj)
 .text          0x0000000000000000       0x27 /home/hcj/UEFIWorkspace/Build/MdeModule/DEBUG_GCC5/X64/MdePkg/Library/BaseLib/BaseLib/OUTPUT/BaseLib.lib(CpuId.obj)
 .text          0x0000000000000000       0xac /home/hcj/UEFIWorkspace/Build/MdeModule/DEBUG_GCC5/X64/MdePkg/Library/BaseLib/BaseLib/OUTPUT/BaseLib.lib(LongJump.obj)
 .text          0x0000000000000000       0xc2 /home/hcj/UEFIWorkspace/Build/MdeModule/DEBUG_GCC5/X64/MdePkg/Library/BaseLib/BaseLib/OUTPUT/BaseLib.lib(SetJump.obj)
 .text          0x0000000000000000        0xf /home/hcj/UEFIWorkspace/Build/MdeModule/DEBUG_GCC5/X64/MdePkg/Library/BaseLib/BaseLib/OUTPUT/BaseLib.lib(SwitchStack.obj)
 .text          0x0000000000000000       0x13 /home/hcj/UEFIWorkspace/Build/MdeModule/DEBUG_GCC5/X64/MdePkg/Library/BaseLib/BaseLib/OUTPUT/BaseLib.lib(EnableCache.obj)
 .text          0x0000000000000000       0x13 /home/hcj/UEFIWorkspace/Build/MdeModule/DEBUG_GCC5/X64/MdePkg/Library/BaseLib/BaseLib/OUTPUT/BaseLib.lib(DisableCache.obj)
 .text          0x0000000000000000        0x6 /home/hcj/UEFIWorkspace/Build/MdeModule/DEBUG_GCC5/X64/MdePkg/Library/BaseLib/BaseLib/OUTPUT/BaseLib.lib(WriteTr.obj)
 .text          0x0000000000000000        0x4 /home/hcj/UEFIWorkspace/Build/MdeModule/DEBUG_GCC5/X64/MdePkg/Library/BaseLib/BaseLib/OUTPUT/BaseLib.lib(Lfence.obj)
 .text          0x0000000000000000        0x3 /home/hcj/UEFIWorkspace/Build/MdeModule/DEBUG_GCC5/X64/MdePkg/Library/BaseLib/BaseLib/OUTPUT/BaseLib.lib(EnableDisableInterrupts.obj)
 .text          0x0000000000000000       0x61 /home/hcj/UEFIWorkspace/Build/MdeModule/DEBUG_GCC5/X64/MdePkg/Library/BaseLib/BaseLib/OUTPUT/BaseLib.lib(DisablePaging64.obj)
 .text          0x0000000000000000       0x1b /home/hcj/UEFIWorkspace/Build/MdeModule/DEBUG_GCC5/X64/MdePkg/Library/BaseLib/BaseLib/OUTPUT/BaseLib.lib(Pvalidate.obj)
 .text          0x0000000000000000       0x36 /home/hcj/UEFIWorkspace/Build/MdeModule/DEBUG_GCC5/X64/MdePkg/Library/BaseLib/BaseLib/OUTPUT/BaseLib.lib(RdRand.obj)
 .text          0x0000000000000000        0xe /home/hcj/UEFIWorkspace/Build/MdeModule/DEBUG_GCC5/X64/MdePkg/Library/BaseLib/BaseLib/OUTPUT/BaseLib.lib(RmpAdjust.obj)
 .text          0x0000000000000000        0xb /home/hcj/UEFIWorkspace/Build/MdeModule/DEBUG_GCC5/X64/MdePkg/Library/BaseLib/BaseLib/OUTPUT/BaseLib.lib(XGetBv.obj)
 .text          0x0000000000000000        0xb /home/hcj/UEFIWorkspace/Build/MdeModule/DEBUG_GCC5/X64/MdePkg/Library/BaseLib/BaseLib/OUTPUT/BaseLib.lib(XSetBv.obj)
 .text          0x0000000000000000        0x5 /home/hcj/UEFIWorkspace/Build/MdeModule/DEBUG_GCC5/X64/MdePkg/Library/BaseLib/BaseLib/OUTPUT/BaseLib.lib(VmgExit.obj)

Memory Configuration

Name             Origin             Length             Attributes
*default*        0x0000000000000000 0xffffffffffffffff

Linker script and memory map

LOAD /tmp/ccx0bwyx.ltrans0.ltrans.o
LOAD /tmp/ccx0bwyx.ltrans1.ltrans.o
LOAD /tmp/ccx0bwyx.ltrans2.ltrans.o
LOAD /tmp/ccx0bwyx.ltrans3.ltrans.o
LOAD /tmp/ccx0bwyx.ltrans4.ltrans.o
LOAD /tmp/ccx0bwyx.ltrans5.ltrans.o
LOAD /tmp/ccx0bwyx.ltrans6.ltrans.o
LOAD /tmp/ccx0bwyx.ltrans7.ltrans.o
LOAD /tmp/ccx0bwyx.ltrans8.ltrans.o
LOAD /tmp/ccx0bwyx.ltrans9.ltrans.o
LOAD /tmp/ccx0bwyx.ltrans10.ltrans.o
LOAD /tmp/ccx0bwyx.ltrans11.ltrans.o
LOAD /tmp/ccx0bwyx.ltrans12.ltrans.o
LOAD /tmp/ccx0bwyx.ltrans13.ltrans.o
LOAD /tmp/ccx0bwyx.ltrans14.ltrans.o
LOAD /tmp/ccx0bwyx.ltrans15.ltrans.o
LOAD /tmp/ccx0bwyx.ltrans16.ltrans.o
LOAD /tmp/ccx0bwyx.ltrans17.ltrans.o
LOAD /tmp/ccx0bwyx.ltrans18.ltrans.o
LOAD /tmp/ccx0bwyx.ltrans19.ltrans.o
LOAD /tmp/ccx0bwyx.ltrans20.ltrans.o
LOAD /tmp/ccx0bwyx.ltrans21.ltrans.o
LOAD /tmp/ccx0bwyx.ltrans22.ltrans.o
LOAD /tmp/ccx0bwyx.ltrans23.ltrans.o
LOAD /tmp/ccx0bwyx.ltrans24.ltrans.o
LOAD /tmp/ccx0bwyx.ltrans25.ltrans.o
LOAD /tmp/ccx0bwyx.ltrans26.ltrans.o
LOAD /tmp/ccx0bwyx.ltrans27.ltrans.o
LOAD /tmp/ccx0bwyx.ltrans28.ltrans.o
LOAD /tmp/ccx0bwyx.ltrans29.ltrans.o
LOAD /tmp/ccx0bwyx.ltrans30.ltrans.o
LOAD /tmp/ccx0bwyx.ltrans31.ltrans.o
START GROUP
LOAD /home/hcj/UEFIWorkspace/Build/MdeModule/DEBUG_GCC5/X64/MdeModulePkg/Application/UiApp/UiApp/OUTPUT/UiApp.lib
LOAD /home/hcj/UEFIWorkspace/Build/MdeModule/DEBUG_GCC5/X64/MdePkg/Library/RegisterFilterLibNull/RegisterFilterLibNull/OUTPUT/FilterLibNull.lib
LOAD /home/hcj/UEFIWorkspace/Build/MdeModule/DEBUG_GCC5/X64/MdePkg/Library/BasePcdLibNull/BasePcdLibNull/OUTPUT/BasePcdLibNull.lib
LOAD /home/hcj/UEFIWorkspace/Build/MdeModule/DEBUG_GCC5/X64/MdePkg/Library/BaseMemoryLib/BaseMemoryLib/OUTPUT/BaseMemoryLib.lib
LOAD /home/hcj/UEFIWorkspace/Build/MdeModule/DEBUG_GCC5/X64/MdePkg/Library/BaseLib/BaseLib/OUTPUT/BaseLib.lib
LOAD /home/hcj/UEFIWorkspace/Build/MdeModule/DEBUG_GCC5/X64/MdePkg/Library/BaseDebugPrintErrorLevelLib/BaseDebugPrintErrorLevelLib/OUTPUT/BaseDebugPrintErrorLevelLib.lib
LOAD /home/hcj/UEFIWorkspace/Build/MdeModule/DEBUG_GCC5/X64/MdePkg/Library/BasePrintLib/BasePrintLib/OUTPUT/BasePrintLib.lib
LOAD /home/hcj/UEFIWorkspace/Build/MdeModule/DEBUG_GCC5/X64/MdePkg/Library/UefiDebugLibStdErr/UefiDebugLibStdErr/OUTPUT/UefiDebugLibStdErr.lib
LOAD /home/hcj/UEFIWorkspace/Build/MdeModule/DEBUG_GCC5/X64/MdePkg/Library/UefiBootServicesTableLib/UefiBootServicesTableLib/OUTPUT/UefiBootServicesTableLib.lib
LOAD /home/hcj/UEFIWorkspace/Build/MdeModule/DEBUG_GCC5/X64/MdePkg/Library/UefiMemoryAllocationLib/UefiMemoryAllocationLib/OUTPUT/UefiMemoryAllocationLib.lib
LOAD /home/hcj/UEFIWorkspace/Build/MdeModule/DEBUG_GCC5/X64/MdePkg/Library/UefiRuntimeServicesTableLib/UefiRuntimeServicesTableLib/OUTPUT/UefiRuntimeServicesTableLib.lib
LOAD /home/hcj/UEFIWorkspace/Build/MdeModule/DEBUG_GCC5/X64/MdePkg/Library/UefiDevicePathLib/UefiDevicePathLib/OUTPUT/UefiDevicePathLib.lib
LOAD /home/hcj/UEFIWorkspace/Build/MdeModule/DEBUG_GCC5/X64/MdePkg/Library/UefiLib/UefiLib/OUTPUT/UefiLib.lib
LOAD /home/hcj/UEFIWorkspace/Build/MdeModule/DEBUG_GCC5/X64/MdePkg/Library/DxeHobLib/DxeHobLib/OUTPUT/DxeHobLib.lib
LOAD /home/hcj/UEFIWorkspace/Build/MdeModule/DEBUG_GCC5/X64/MdeModulePkg/Library/UefiHiiServicesLib/UefiHiiServicesLib/OUTPUT/UefiHiiServicesLib.lib
LOAD /home/hcj/UEFIWorkspace/Build/MdeModule/DEBUG_GCC5/X64/MdeModulePkg/Library/BaseSortLib/BaseSortLib/OUTPUT/BaseSortLib.lib
LOAD /home/hcj/UEFIWorkspace/Build/MdeModule/DEBUG_GCC5/X64/MdePkg/Library/DxeServicesLib/DxeServicesLib/OUTPUT/DxeServicesLib.lib
LOAD /home/hcj/UEFIWorkspace/Build/MdeModule/DEBUG_GCC5/X64/MdePkg/Library/DxeServicesTableLib/DxeServicesTableLib/OUTPUT/DxeServicesTableLib.lib
LOAD /home/hcj/UEFIWorkspace/Build/MdeModule/DEBUG_GCC5/X64/MdePkg/Library/BasePeCoffGetEntryPointLib/BasePeCoffGetEntryPointLib/OUTPUT/BasePeCoffGetEntryPointLib.lib
LOAD /home/hcj/UEFIWorkspace/Build/MdeModule/DEBUG_GCC5/X64/MdePkg/Library/BasePerformanceLibNull/BasePerformanceLibNull/OUTPUT/BasePerformanceLibNull.lib
LOAD /home/hcj/UEFIWorkspace/Build/MdeModule/DEBUG_GCC5/X64/MdeModulePkg/Library/UefiHiiLib/UefiHiiLib/OUTPUT/UefiHiiLib.lib
LOAD /home/hcj/UEFIWorkspace/Build/MdeModule/DEBUG_GCC5/X64/MdePkg/Library/BaseReportStatusCodeLibNull/BaseReportStatusCodeLibNull/OUTPUT/BaseReportStatusCodeLibNull.lib
LOAD /home/hcj/UEFIWorkspace/Build/MdeModule/DEBUG_GCC5/X64/MdeModulePkg/Library/UefiBootManagerLib/UefiBootManagerLib/OUTPUT/UefiBootManagerLib.lib
LOAD /home/hcj/UEFIWorkspace/Build/MdeModule/DEBUG_GCC5/X64/MdeModulePkg/Library/FileExplorerLib/FileExplorerLib/OUTPUT/FileExplorerLib.lib
LOAD /home/hcj/UEFIWorkspace/Build/MdeModule/DEBUG_GCC5/X64/MdePkg/Library/UefiApplicationEntryPoint/UefiApplicationEntryPoint/OUTPUT/UefiApplicationEntryPoint.lib
LOAD /home/hcj/UEFIWorkspace/Build/MdeModule/DEBUG_GCC5/X64/MdeModulePkg/Library/DeviceManagerUiLib/DeviceManagerUiLib/OUTPUT/DeviceManagerUiLib.lib
LOAD /home/hcj/UEFIWorkspace/Build/MdeModule/DEBUG_GCC5/X64/MdeModulePkg/Library/BootDiscoveryPolicyUiLib/BootDiscoveryPolicyUiLib/OUTPUT/BootDiscoveryPolicyUiLib.lib
LOAD /home/hcj/UEFIWorkspace/Build/MdeModule/DEBUG_GCC5/X64/MdeModulePkg/Library/BootManagerUiLib/BootManagerUiLib/OUTPUT/BootManagerUiLib.lib
LOAD /home/hcj/UEFIWorkspace/Build/MdeModule/DEBUG_GCC5/X64/MdeModulePkg/Library/BootMaintenanceManagerUiLib/BootMaintenanceManagerUiLib/OUTPUT/BootMaintenanceManagerUiLib.lib
END GROUP
                0x0000000000000228                PECOFF_HEADER_SIZE = 0x228
                0x0000000000000228                . = PECOFF_HEADER_SIZE

.text           0x0000000000000240    0x22630
 *(.text .text.* .stub .gnu.linkonce.t.*)
 .text._ModuleEntryPoint
                0x0000000000000240     0x1a6f /tmp/ccx0bwyx.ltrans0.ltrans.o
                0x0000000000000240                _ModuleEntryPoint
 .text.BootMaintCallback
                0x0000000000001caf     0x1f20 /tmp/ccx0bwyx.ltrans1.ltrans.o
                0x0000000000001caf                BootMaintCallback
 .text.EfiBootManagerBoot
                0x0000000000003bcf     0x13c3 /tmp/ccx0bwyx.ltrans2.ltrans.o
                0x0000000000003bcf                EfiBootManagerBoot
 .text.ProcessLibraryConstructorList
                0x0000000000004f92     0x175d /tmp/ccx0bwyx.ltrans3.ltrans.o
                0x0000000000004f92                ProcessLibraryConstructorList
 .text.BmDestroyRamDisk
                0x00000000000066ef      0x2ed /tmp/ccx0bwyx.ltrans4.ltrans.o
                0x00000000000066ef                BmDestroyRamDisk
 .text.BmGetRamDiskDevicePath
                0x00000000000069dc       0xde /tmp/ccx0bwyx.ltrans4.ltrans.o
                0x00000000000069dc                BmGetRamDiskDevicePath
 .text.BmExpandMediaDevicePath
                0x0000000000006aba      0x376 /tmp/ccx0bwyx.ltrans4.ltrans.o
                0x0000000000006aba                BmExpandMediaDevicePath
 .text.BmExpandLoadFile
                0x0000000000006e30      0x3c7 /tmp/ccx0bwyx.ltrans4.ltrans.o
                0x0000000000006e30                BmExpandLoadFile
 .text.BmCachePartitionDevicePath
                0x00000000000071f7       0xcb /tmp/ccx0bwyx.ltrans4.ltrans.o
                0x00000000000071f7                BmCachePartitionDevicePath
 .text.BmAdjustFvFilePath
                0x00000000000072c2      0x1bb /tmp/ccx0bwyx.ltrans4.ltrans.o
                0x00000000000072c2                BmAdjustFvFilePath
 .text.EfiBootManagerConnectConsoleVariable.part.1.lto_priv.89
                0x000000000000747d      0x367 /tmp/ccx0bwyx.ltrans4.ltrans.o
                0x000000000000747d                EfiBootManagerConnectConsoleVariable.part.1.lto_priv.89
 .text.UnicodeVSPrintAsciiFormat.constprop.80
                0x00000000000077e4       0xe6 /tmp/ccx0bwyx.ltrans5.ltrans.o
 .text.UnicodeSPrintAsciiFormat.constprop.79
                0x00000000000078ca       0x29 /tmp/ccx0bwyx.ltrans5.ltrans.o
                0x00000000000078ca                UnicodeSPrintAsciiFormat.constprop.79
 .text.DebugPrintMarker.constprop.77
                0x00000000000078f3       0xac /tmp/ccx0bwyx.ltrans5.ltrans.o
                0x00000000000078f3                DebugPrintMarker.constprop.77
 .text.InternalAllocatePool.constprop.76
                0x000000000000799f       0x37 /tmp/ccx0bwyx.ltrans5.ltrans.o
                0x000000000000799f                InternalAllocatePool.constprop.76
 .text.LShiftU64.constprop.74
                0x00000000000079d6        0x8 /tmp/ccx0bwyx.ltrans5.ltrans.o
                0x00000000000079d6                LShiftU64.constprop.74
 .text.CreatePopUp.constprop.72
                0x00000000000079de      0x7b6 /tmp/ccx0bwyx.ltrans5.ltrans.o
                0x00000000000079de                CreatePopUp.constprop.72
 .text.HiiCreateActionOpCode.constprop.70
                0x0000000000008194       0x6e /tmp/ccx0bwyx.ltrans5.ltrans.o
                0x0000000000008194                HiiCreateActionOpCode.constprop.70
 .text.HiiCreateSubTitleOpCode.constprop.69
                0x0000000000008202       0x8d /tmp/ccx0bwyx.ltrans5.ltrans.o
                0x0000000000008202                HiiCreateSubTitleOpCode.constprop.69
 .text.HiiCreateGotoExOpCode.constprop.68
                0x000000000000828f       0xc1 /tmp/ccx0bwyx.ltrans5.ltrans.o
                0x000000000000828f                HiiCreateGotoExOpCode.constprop.68
 .text.HiiSetString.constprop.66
                0x0000000000008350      0x165 /tmp/ccx0bwyx.ltrans5.ltrans.o
                0x0000000000008350                HiiSetString.constprop.66
 .text.HiiGetString.constprop.63
                0x00000000000084b5      0x194 /tmp/ccx0bwyx.ltrans5.ltrans.o
                0x00000000000084b5                HiiGetString.constprop.63
 .text.HiiGetHiiHandles.constprop.62
                0x0000000000008649       0x8b /tmp/ccx0bwyx.ltrans5.ltrans.o
                0x0000000000008649                HiiGetHiiHandles.constprop.62
 .text.HiiCreateOneOfOpCode.constprop.60
                0x00000000000086d4      0x12f /tmp/ccx0bwyx.ltrans5.ltrans.o
                0x00000000000086d4                HiiCreateOneOfOpCode.constprop.60
 .text.HiiCreateGuidOpCode.constprop.59
                0x0000000000008803       0x5a /tmp/ccx0bwyx.ltrans5.ltrans.o
                0x0000000000008803                HiiCreateGuidOpCode.constprop.59
 .text.BmUpdateSystemTableConsole
                0x000000000000885d      0x2a4 /tmp/ccx0bwyx.ltrans6.ltrans.o
 .text.EfiBootManagerConnectAllDefaultConsoles
                0x0000000000008b01      0x195 /tmp/ccx0bwyx.ltrans6.ltrans.o
 .text.InternalHiiGrowOpCodeHandle
                0x0000000000008c96       0xad /tmp/ccx0bwyx.ltrans6.ltrans.o
 .text.BmPrintDp
                0x0000000000008d43       0x55 /tmp/ccx0bwyx.ltrans6.ltrans.o
                0x0000000000008d43                BmPrintDp
 .text.BmSetVariableAndReportStatusCodeOnError
                0x0000000000008d98       0xd4 /tmp/ccx0bwyx.ltrans6.ltrans.o
                0x0000000000008d98                BmSetVariableAndReportStatusCodeOnError
 .text.BmDelPartMatchInstance
                0x0000000000008e6c       0xff /tmp/ccx0bwyx.ltrans6.ltrans.o
                0x0000000000008e6c                BmDelPartMatchInstance
 .text.EfiBootManagerConnectDevicePath.part.0.lto_priv.87
                0x0000000000008f6b      0x14d /tmp/ccx0bwyx.ltrans6.ltrans.o
                0x0000000000008f6b                EfiBootManagerConnectDevicePath.part.0.lto_priv.87
 .text.BmConnectUsbShortFormDevicePath
                0x00000000000090b8      0x197 /tmp/ccx0bwyx.ltrans6.ltrans.o
                0x00000000000090b8                BmConnectUsbShortFormDevicePath
 .text.EfiBootManagerConnectAll
                0x000000000000924f       0x8a /tmp/ccx0bwyx.ltrans6.ltrans.o
                0x000000000000924f                EfiBootManagerConnectAll
 .text.HiiGetSupportedLanguages
                0x00000000000092d9       0xa7 /tmp/ccx0bwyx.ltrans6.ltrans.o
                0x00000000000092d9                HiiGetSupportedLanguages
 .text.HiiUpdateForm
                0x0000000000009380      0x519 /tmp/ccx0bwyx.ltrans6.ltrans.o
                0x0000000000009380                HiiUpdateForm
 .text.InternalHiiAppendOpCodes
                0x0000000000009899       0x85 /tmp/ccx0bwyx.ltrans6.ltrans.o
                0x0000000000009899                InternalHiiAppendOpCodes
 .text.InternalHiiCreateOpCodeExtended
                0x000000000000991e       0xa8 /tmp/ccx0bwyx.ltrans6.ltrans.o
                0x000000000000991e                InternalHiiCreateOpCodeExtended
 .text.InternalHiiCreateOpCode
                0x00000000000099c6       0x23 /tmp/ccx0bwyx.ltrans6.ltrans.o
                0x00000000000099c6                InternalHiiCreateOpCode
 .text.HiiCreateGotoOpCode
                0x00000000000099e9       0xa3 /tmp/ccx0bwyx.ltrans6.ltrans.o
                0x00000000000099e9                HiiCreateGotoOpCode
 .text.HiiCreateOneOfOptionOpCode
                0x0000000000009a8c       0xa2 /tmp/ccx0bwyx.ltrans6.ltrans.o
                0x0000000000009a8c                HiiCreateOneOfOptionOpCode
 .text.HiiCreateEndOpCode
                0x0000000000009b2e       0x1f /tmp/ccx0bwyx.ltrans6.ltrans.o
                0x0000000000009b2e                HiiCreateEndOpCode
 .text.HiiFreeOpCodeHandle
                0x0000000000009b4d       0x48 /tmp/ccx0bwyx.ltrans6.ltrans.o
                0x0000000000009b4d                HiiFreeOpCodeHandle
 .text.EfiEventEmptyFunction
                0x0000000000009b95        0x1 /tmp/ccx0bwyx.ltrans7.ltrans.o
                0x0000000000009b95                EfiEventEmptyFunction
 .text.DevPathToTextNodeGeneric
                0x0000000000009b96      0x117 /tmp/ccx0bwyx.ltrans7.ltrans.o
 .text.DevPathToTextEndInstance
                0x0000000000009cad       0x18 /tmp/ccx0bwyx.ltrans7.ltrans.o
 .text.DevPathToTextBBS
                0x0000000000009cc5       0xce /tmp/ccx0bwyx.ltrans7.ltrans.o
 .text.DevPathRelativeOffsetRange
                0x0000000000009d93       0x20 /tmp/ccx0bwyx.ltrans7.ltrans.o
 .text.DevPathToTextFvFile
                0x0000000000009db3       0x1c /tmp/ccx0bwyx.ltrans7.ltrans.o
 .text.DevPathToTextFv
                0x0000000000009dcf       0x1c /tmp/ccx0bwyx.ltrans7.ltrans.o
 .text.DevPathToTextMediaProtocol
                0x0000000000009deb       0x1c /tmp/ccx0bwyx.ltrans7.ltrans.o
 .text.DevPathToTextFilePath
                0x0000000000009e07       0x1c /tmp/ccx0bwyx.ltrans7.ltrans.o
 .text.DevPathToTextCDROM
                0x0000000000009e23       0x40 /tmp/ccx0bwyx.ltrans7.ltrans.o
 .text.DevPathToTextHardDrive
                0x0000000000009e63       0x96 /tmp/ccx0bwyx.ltrans7.ltrans.o
 .text.DevPathToTextUri
                0x0000000000009ef9       0x9f /tmp/ccx0bwyx.ltrans7.ltrans.o
 .text.DevPathToTextRamDisk
                0x0000000000009f98      0x20d /tmp/ccx0bwyx.ltrans7.ltrans.o
 .text.HiiAllocateOpCodeHandle
                0x000000000000a1a5       0x58 /tmp/ccx0bwyx.ltrans7.ltrans.o
                0x000000000000a1a5                HiiAllocateOpCodeHandle
 .text.InternalHiiCompareSubString
                0x000000000000a1fd      0x113 /tmp/ccx0bwyx.ltrans7.ltrans.o
                0x000000000000a1fd                InternalHiiCompareSubString
 .text.HiiGetFormSetFromHiiHandle
                0x000000000000a310      0x1fc /tmp/ccx0bwyx.ltrans7.ltrans.o
                0x000000000000a310                HiiGetFormSetFromHiiHandle
 .text.HiiRemovePackages
                0x000000000000a50c       0x93 /tmp/ccx0bwyx.ltrans7.ltrans.o
                0x000000000000a50c                HiiRemovePackages
 .text.HiiAddPackages
                0x000000000000a59f      0x12a /tmp/ccx0bwyx.ltrans7.ltrans.o
                0x000000000000a59f                HiiAddPackages
 .text.GetBestLanguage
                0x000000000000a6c9      0x13e /tmp/ccx0bwyx.ltrans7.ltrans.o
                0x000000000000a6c9                GetBestLanguage
 .text.GetVariable2
                0x000000000000a807      0x136 /tmp/ccx0bwyx.ltrans7.ltrans.o
                0x000000000000a807                GetVariable2
 .text.GetEfiGlobalVariable2
                0x000000000000a93d       0x12 /tmp/ccx0bwyx.ltrans7.ltrans.o
                0x000000000000a93d                GetEfiGlobalVariable2
 .text.EfiGetSystemConfigurationTable
                0x000000000000a94f       0xaa /tmp/ccx0bwyx.ltrans7.ltrans.o
                0x000000000000a94f                EfiGetSystemConfigurationTable
 .text.GetHobList
                0x000000000000a9f9       0xa3 /tmp/ccx0bwyx.ltrans7.ltrans.o
                0x000000000000a9f9                GetHobList
 .text.UefiLibGetStringWidth
                0x000000000000aa9c       0x71 /tmp/ccx0bwyx.ltrans7.ltrans.o
                0x000000000000aa9c                UefiLibGetStringWidth
 .text.EfiGetNameGuidFromFwVolDevicePathNode
                0x000000000000ab0d       0x54 /tmp/ccx0bwyx.ltrans7.ltrans.o
                0x000000000000ab0d                EfiGetNameGuidFromFwVolDevicePathNode
 .text.Print    0x000000000000ab61       0xfa /tmp/ccx0bwyx.ltrans7.ltrans.o
                0x000000000000ab61                Print
 .text.UefiDevicePathLibConvertDevicePathToText
                0x000000000000ac5b      0x1bc /tmp/ccx0bwyx.ltrans7.ltrans.o
                0x000000000000ac5b                UefiDevicePathLibConvertDevicePathToText
 .text.BootMaintRouteConfig
                0x000000000000ae17     0x1435 /tmp/ccx0bwyx.ltrans8.ltrans.o
                0x000000000000ae17                BootMaintRouteConfig
 .text.BmGetNextLoadOptionDevicePath
                0x000000000000c24c     0x127d /tmp/ccx0bwyx.ltrans9.ltrans.o
                0x000000000000c24c                BmGetNextLoadOptionDevicePath
 .text.UnicodeVSPrint
                0x000000000000d4c9       0xe9 /tmp/ccx0bwyx.ltrans10.ltrans.o
                0x000000000000d4c9                UnicodeVSPrint
 .text.UnicodeSPrint
                0x000000000000d5b2       0x1d /tmp/ccx0bwyx.ltrans10.ltrans.o
                0x000000000000d5b2                UnicodeSPrint
 .text.BasePrintLibValueToString
                0x000000000000d5cf       0x7e /tmp/ccx0bwyx.ltrans10.ltrans.o
                0x000000000000d5cf                BasePrintLibValueToString
 .text.BasePrintLibFillBuffer
                0x000000000000d64d       0x2e /tmp/ccx0bwyx.ltrans10.ltrans.o
                0x000000000000d64d                BasePrintLibFillBuffer
 .text.UnicodeValueToStringS
                0x000000000000d67b      0x42b /tmp/ccx0bwyx.ltrans10.ltrans.o
                0x000000000000d67b                UnicodeValueToStringS
 .text.WriteUnaligned64
                0x000000000000daa6       0x3f /tmp/ccx0bwyx.ltrans10.ltrans.o
                0x000000000000daa6                WriteUnaligned64
 .text.ReadUnaligned64
                0x000000000000dae5       0x37 /tmp/ccx0bwyx.ltrans10.ltrans.o
                0x000000000000dae5                ReadUnaligned64
 .text.WriteUnaligned32
                0x000000000000db1c       0x3c /tmp/ccx0bwyx.ltrans10.ltrans.o
                0x000000000000db1c                WriteUnaligned32
 .text.ReadUnaligned32
                0x000000000000db58       0x36 /tmp/ccx0bwyx.ltrans10.ltrans.o
                0x000000000000db58                ReadUnaligned32
 .text.WriteUnaligned16
                0x000000000000db8e       0x3d /tmp/ccx0bwyx.ltrans10.ltrans.o
                0x000000000000db8e                WriteUnaligned16
 .text.ReadUnaligned16
                0x000000000000dbcb       0x37 /tmp/ccx0bwyx.ltrans10.ltrans.o
                0x000000000000dbcb                ReadUnaligned16
 .text.AsciiStrLen
                0x000000000000dc02       0x85 /tmp/ccx0bwyx.ltrans10.ltrans.o
                0x000000000000dc02                AsciiStrLen
 .text.AsciiStrSize
                0x000000000000dc87       0x11 /tmp/ccx0bwyx.ltrans10.ltrans.o
                0x000000000000dc87                AsciiStrSize
 .text.AsciiStrnCmp.part.4.lto_priv.84
                0x000000000000dc98       0xd6 /tmp/ccx0bwyx.ltrans10.ltrans.o
                0x000000000000dc98                AsciiStrnCmp.part.4.lto_priv.84
 .text.StrLen   0x000000000000dd6e       0x90 /tmp/ccx0bwyx.ltrans10.ltrans.o
                0x000000000000dd6e                StrLen
 .text.StrSize  0x000000000000ddfe       0x13 /tmp/ccx0bwyx.ltrans10.ltrans.o
                0x000000000000ddfe                StrSize
 .text.StrnCmp.part.0.lto_priv.86
                0x000000000000de11       0xc1 /tmp/ccx0bwyx.ltrans10.ltrans.o
                0x000000000000de11                StrnCmp.part.0.lto_priv.86
 .text.StrStr   0x000000000000ded2       0xa6 /tmp/ccx0bwyx.ltrans10.ltrans.o
                0x000000000000ded2                StrStr
 .text.StrCmp   0x000000000000df78       0x84 /tmp/ccx0bwyx.ltrans10.ltrans.o
                0x000000000000df78                StrCmp
 .text.AsciiStrnLenS
                0x000000000000dffc       0x26 /tmp/ccx0bwyx.ltrans10.ltrans.o
                0x000000000000dffc                AsciiStrnLenS
 .text.AsciiStrToUnicodeStrS
                0x000000000000e022      0x299 /tmp/ccx0bwyx.ltrans10.ltrans.o
                0x000000000000e022                AsciiStrToUnicodeStrS
 .text.StrCatS  0x000000000000e2bb      0x341 /tmp/ccx0bwyx.ltrans10.ltrans.o
                0x000000000000e2bb                StrCatS
 .text.EfiBootManagerIsValidLoadOptionVariableName
                0x000000000000e5fc       0xd1 /tmp/ccx0bwyx.ltrans11.ltrans.o
 .text.BmGetMiscDescription
                0x000000000000e6cd      0x28b /tmp/ccx0bwyx.ltrans11.ltrans.o
 .text.EfiBootManagerFreeLoadOption
                0x000000000000e958       0x4b /tmp/ccx0bwyx.ltrans11.ltrans.o
                0x000000000000e958                EfiBootManagerFreeLoadOption
 .text.EfiBootManagerFreeLoadOptions
                0x000000000000e9a3       0x4c /tmp/ccx0bwyx.ltrans11.ltrans.o
                0x000000000000e9a3                EfiBootManagerFreeLoadOptions
 .text.EfiBootManagerDeleteLoadOptionVariable
                0x000000000000e9ef      0x168 /tmp/ccx0bwyx.ltrans11.ltrans.o
                0x000000000000e9ef                EfiBootManagerDeleteLoadOptionVariable
 .text.EfiBootManagerFindLoadOption
                0x000000000000eb57       0x89 /tmp/ccx0bwyx.ltrans11.ltrans.o
                0x000000000000eb57                EfiBootManagerFindLoadOption
 .text.EfiBootManagerInitializeLoadOption
                0x000000000000ebe0       0xd7 /tmp/ccx0bwyx.ltrans11.ltrans.o
                0x000000000000ebe0                EfiBootManagerInitializeLoadOption
 .text.EfiBootManagerVariableToLoadOptionEx.part.5.lto_priv.85
                0x000000000000ecb7      0x24c /tmp/ccx0bwyx.ltrans11.ltrans.o
                0x000000000000ecb7                EfiBootManagerVariableToLoadOptionEx.part.5.lto_priv.85
 .text.EfiBootManagerLoadOptionToVariable
                0x000000000000ef03      0x21a /tmp/ccx0bwyx.ltrans11.ltrans.o
                0x000000000000ef03                EfiBootManagerLoadOptionToVariable
 .text.BmGetFreeOptionNumber
                0x000000000000f11d      0x1ff /tmp/ccx0bwyx.ltrans11.ltrans.o
                0x000000000000f11d                BmGetFreeOptionNumber
 .text.BmGetBootDescription
                0x000000000000f31c      0x1be /tmp/ccx0bwyx.ltrans11.ltrans.o
                0x000000000000f31c                BmGetBootDescription
 .text.ExitBootServicesCallback
                0x000000000000f4da        0x8 /tmp/ccx0bwyx.ltrans12.ltrans.o
                0x000000000000f4da                ExitBootServicesCallback
 .text.DebugAssert.part.0
                0x000000000000f4e2       0x5e /tmp/ccx0bwyx.ltrans12.ltrans.o
 .text.DevicePathFromHandle
                0x000000000000f540       0x35 /tmp/ccx0bwyx.ltrans12.ltrans.o
                0x000000000000f540                DevicePathFromHandle
 .text.AllocateZeroPool
                0x000000000000f575       0xf9 /tmp/ccx0bwyx.ltrans12.ltrans.o
                0x000000000000f575                AllocateZeroPool
 .text.AllocatePool
                0x000000000000f66e       0x99 /tmp/ccx0bwyx.ltrans12.ltrans.o
                0x000000000000f66e                AllocatePool
 .text.DebugPrintEnabled
                0x000000000000f707        0x3 /tmp/ccx0bwyx.ltrans12.ltrans.o
                0x000000000000f707                DebugPrintEnabled
 .text.DebugAssertEnabled
                0x000000000000f70a        0x3 /tmp/ccx0bwyx.ltrans12.ltrans.o
                0x000000000000f70a                DebugAssertEnabled
 .text.DebugAssert
                0x000000000000f70d        0xf /tmp/ccx0bwyx.ltrans12.ltrans.o
                0x000000000000f70d                DebugAssert
 .text.SetDevicePathEndNode
                0x000000000000f71c       0x48 /tmp/ccx0bwyx.ltrans12.ltrans.o
                0x000000000000f71c                SetDevicePathEndNode
 .text.SetDevicePathNodeLength
                0x000000000000f764       0x68 /tmp/ccx0bwyx.ltrans12.ltrans.o
                0x000000000000f764                SetDevicePathNodeLength
 .text.DevicePathNodeLength
                0x000000000000f7cc       0x40 /tmp/ccx0bwyx.ltrans12.ltrans.o
                0x000000000000f7cc                DevicePathNodeLength
 .text.NextDevicePathNode
                0x000000000000f80c       0x3f /tmp/ccx0bwyx.ltrans12.ltrans.o
                0x000000000000f80c                NextDevicePathNode
 .text.DevicePathSubType
                0x000000000000f84b       0x37 /tmp/ccx0bwyx.ltrans12.ltrans.o
                0x000000000000f84b                DevicePathSubType
 .text.DevicePathType
                0x000000000000f882       0x36 /tmp/ccx0bwyx.ltrans12.ltrans.o
                0x000000000000f882                DevicePathType
 .text.IsDevicePathEndType
                0x000000000000f8b8       0x41 /tmp/ccx0bwyx.ltrans12.ltrans.o
                0x000000000000f8b8                IsDevicePathEndType
 .text.IsDevicePathEnd
                0x000000000000f8f9       0x53 /tmp/ccx0bwyx.ltrans12.ltrans.o
                0x000000000000f8f9                IsDevicePathEnd
 .text.IsDevicePathValid
                0x000000000000f94c       0xd7 /tmp/ccx0bwyx.ltrans12.ltrans.o
                0x000000000000f94c                IsDevicePathValid
 .text.UefiDevicePathLibGetDevicePathSize
                0x000000000000fa23       0x4e /tmp/ccx0bwyx.ltrans12.ltrans.o
                0x000000000000fa23                UefiDevicePathLibGetDevicePathSize
 .text.AllocateCopyPool
                0x000000000000fa71      0x160 /tmp/ccx0bwyx.ltrans12.ltrans.o
                0x000000000000fa71                AllocateCopyPool
 .text.UefiDevicePathLibDuplicateDevicePath
                0x000000000000fbd1       0x2a /tmp/ccx0bwyx.ltrans12.ltrans.o
                0x000000000000fbd1                UefiDevicePathLibDuplicateDevicePath
 .text.UefiDevicePathLibGetNextDevicePathInstance
                0x000000000000fbfb       0xc7 /tmp/ccx0bwyx.ltrans12.ltrans.o
                0x000000000000fbfb                UefiDevicePathLibGetNextDevicePathInstance
 .text.UefiDevicePathLibAppendDevicePathInstance
                0x000000000000fcc2       0xbc /tmp/ccx0bwyx.ltrans12.ltrans.o
                0x000000000000fcc2                UefiDevicePathLibAppendDevicePathInstance
 .text.UefiDevicePathLibAppendDevicePath
                0x000000000000fd7e       0x9c /tmp/ccx0bwyx.ltrans12.ltrans.o
                0x000000000000fd7e                UefiDevicePathLibAppendDevicePath
 .text.DebugPrint
                0x000000000000fe1a       0xc1 /tmp/ccx0bwyx.ltrans12.ltrans.o
                0x000000000000fe1a                DebugPrint
 .text.FreePool
                0x000000000000fedb       0x5a /tmp/ccx0bwyx.ltrans12.ltrans.o
                0x000000000000fedb                FreePool
 .text.FileDevicePath
                0x000000000000ff35       0x95 /tmp/ccx0bwyx.ltrans12.ltrans.o
                0x000000000000ff35                FileDevicePath
 .text.UefiDevicePathLibAppendDevicePathNode
                0x000000000000ffca       0x86 /tmp/ccx0bwyx.ltrans12.ltrans.o
                0x000000000000ffca                UefiDevicePathLibAppendDevicePathNode
 .text.ReallocatePool
                0x0000000000010050       0xfc /tmp/ccx0bwyx.ltrans12.ltrans.o
                0x0000000000010050                ReallocatePool
 .text.UefiDevicePathLibCatPrint
                0x000000000001014c      0x169 /tmp/ccx0bwyx.ltrans12.ltrans.o
                0x000000000001014c                UefiDevicePathLibCatPrint
 .text.DevPathToTextVendor
                0x00000000000102b5      0x378 /tmp/ccx0bwyx.ltrans12.ltrans.o
                0x00000000000102b5                DevPathToTextVendor
 .text.DevPathToTextMemMap
                0x000000000001062d       0x27 /tmp/ccx0bwyx.ltrans12.ltrans.o
                0x000000000001062d                DevPathToTextMemMap
 .text.DevPathToTextPccard
                0x0000000000010654       0x1d /tmp/ccx0bwyx.ltrans12.ltrans.o
                0x0000000000010654                DevPathToTextPccard
 .text.DevPathToTextPci
                0x0000000000010671       0x22 /tmp/ccx0bwyx.ltrans12.ltrans.o
                0x0000000000010671                DevPathToTextPci
 .text.FreePages
                0x0000000000010693       0x92 /tmp/ccx0bwyx.ltrans12.ltrans.o
                0x0000000000010693                FreePages
 .text.EfiBootManagerAddLoadOptionVariable.constprop.50
                0x0000000000010725      0x274 /tmp/ccx0bwyx.ltrans13.ltrans.o
                0x0000000000010725                EfiBootManagerAddLoadOptionVariable.constprop.50
 .text.EfiBootManagerGetLoadOptions.part.7.constprop.48
                0x0000000000010999      0x1ab /tmp/ccx0bwyx.ltrans13.ltrans.o
                0x0000000000010999                EfiBootManagerGetLoadOptions.part.7.constprop.48
 .text.IsZeroBuffer.constprop.37
                0x0000000000010b44       0x5d /tmp/ccx0bwyx.ltrans13.ltrans.o
                0x0000000000010b44                IsZeroBuffer.constprop.37
 .text.EfiAcquireLock.constprop.27
                0x0000000000010ba1       0x55 /tmp/ccx0bwyx.ltrans13.ltrans.o
                0x0000000000010ba1                EfiAcquireLock.constprop.27
 .text.EfiReleaseLock.constprop.26
                0x0000000000010bf6       0x50 /tmp/ccx0bwyx.ltrans13.ltrans.o
                0x0000000000010bf6                EfiReleaseLock.constprop.26
 .text.InternalHiiBrowserCallback.constprop.20
                0x0000000000010c46      0x114 /tmp/ccx0bwyx.ltrans13.ltrans.o
                0x0000000000010c46                InternalHiiBrowserCallback.constprop.20
 .text.HiiConstructConfigHdr.constprop.19
                0x0000000000010d5a      0x220 /tmp/ccx0bwyx.ltrans13.ltrans.o
                0x0000000000010d5a                HiiConstructConfigHdr.constprop.19
 .text.HiiIsConfigHdrMatch.constprop.18
                0x0000000000010f7a       0x9c /tmp/ccx0bwyx.ltrans13.ltrans.o
                0x0000000000010f7a                HiiIsConfigHdrMatch.constprop.18
 .text.HiiCreateCheckBoxOpCode.constprop.15
                0x0000000000011016       0xc1 /tmp/ccx0bwyx.ltrans13.ltrans.o
                0x0000000000011016                HiiCreateCheckBoxOpCode.constprop.15
 .text.ChooseFile.part.1.constprop.4
                0x00000000000110d7      0x4eb /tmp/ccx0bwyx.ltrans13.ltrans.o
                0x00000000000110d7                ChooseFile.part.1.constprop.4
 .text.EfiLibDeleteVariable.constprop.2
                0x00000000000115c2       0x29 /tmp/ccx0bwyx.ltrans13.ltrans.o
                0x00000000000115c2                EfiLibDeleteVariable.constprop.2
 .text.RequiredDriver
                0x00000000000115eb      0x102 /tmp/ccx0bwyx.ltrans13.ltrans.o
                0x00000000000115eb                IsRequiredDriver
                0x00000000000115eb                RequiredDriver
 .text.UpdatePageBody
                0x00000000000116ed       0x84 /tmp/ccx0bwyx.ltrans13.ltrans.o
                0x00000000000116ed                UpdatePageBody
 .text.DevPathToTextBluetoothLE
                0x0000000000011771       0x3f /tmp/ccx0bwyx.ltrans14.ltrans.o
                0x0000000000011771                DevPathToTextBluetoothLE
 .text.DevPathToTextBluetooth
                0x00000000000117b0       0x37 /tmp/ccx0bwyx.ltrans14.ltrans.o
                0x00000000000117b0                DevPathToTextBluetooth
 .text.DevPathToTextVlan
                0x00000000000117e7       0x1d /tmp/ccx0bwyx.ltrans14.ltrans.o
                0x00000000000117e7                DevPathToTextVlan
 .text.DevPathToTextiSCSI
                0x0000000000011804      0x124 /tmp/ccx0bwyx.ltrans14.ltrans.o
                0x0000000000011804                DevPathToTextiSCSI
 .text.DevPathToTextUart
                0x0000000000011928      0x107 /tmp/ccx0bwyx.ltrans14.ltrans.o
                0x0000000000011928                DevPathToTextUart
 .text.DevPathToTextInfiniBand
                0x0000000000011a2f       0x2d /tmp/ccx0bwyx.ltrans14.ltrans.o
                0x0000000000011a2f                DevPathToTextInfiniBand
 .text.CatIPv6Address
                0x0000000000011a5c       0x6b /tmp/ccx0bwyx.ltrans14.ltrans.o
 .text.CatIPv4Address
                0x0000000000011ac7       0x2c /tmp/ccx0bwyx.ltrans14.ltrans.o
 .text.CatNetworkProtocol
                0x0000000000011af3       0x49 /tmp/ccx0bwyx.ltrans14.ltrans.o
 .text.DevPathToTextMacAddr
                0x0000000000011b3c       0x80 /tmp/ccx0bwyx.ltrans14.ltrans.o
                0x0000000000011b3c                DevPathToTextMacAddr
 .text.DevPathToTextI2O
                0x0000000000011bbc       0x1c /tmp/ccx0bwyx.ltrans14.ltrans.o
                0x0000000000011bbc                DevPathToTextI2O
 .text.DevPathToTextSata
                0x0000000000011bd8       0x2b /tmp/ccx0bwyx.ltrans14.ltrans.o
                0x0000000000011bd8                DevPathToTextSata
 .text.DevPathToTextUsbClass
                0x0000000000011c03      0x1ad /tmp/ccx0bwyx.ltrans14.ltrans.o
                0x0000000000011c03                DevPathToTextUsbClass
 .text.DevPathToTextLogicalUnit
                0x0000000000011db0       0x1d /tmp/ccx0bwyx.ltrans14.ltrans.o
                0x0000000000011db0                DevPathToTextLogicalUnit
 .text.DevPathToTextUsb
                0x0000000000011dcd       0x22 /tmp/ccx0bwyx.ltrans14.ltrans.o
                0x0000000000011dcd                DevPathToTextUsb
 .text.DevPathToText1394
                0x0000000000011def       0x1c /tmp/ccx0bwyx.ltrans14.ltrans.o
                0x0000000000011def                DevPathToText1394
 .text.DevPathToTextEmmc
                0x0000000000011e0b       0x1d /tmp/ccx0bwyx.ltrans14.ltrans.o
                0x0000000000011e0b                DevPathToTextEmmc
 .text.DevPathToTextSd
                0x0000000000011e28       0x1d /tmp/ccx0bwyx.ltrans14.ltrans.o
                0x0000000000011e28                DevPathToTextSd
 .text.DevPathToTextUfs
                0x0000000000011e45       0x22 /tmp/ccx0bwyx.ltrans14.ltrans.o
                0x0000000000011e45                DevPathToTextUfs
 .text.DevPathToTextNVMe
                0x0000000000011e67       0x48 /tmp/ccx0bwyx.ltrans14.ltrans.o
                0x0000000000011e67                DevPathToTextNVMe
 .text.DevPathToTextSasEx
                0x0000000000011eaf      0x1a0 /tmp/ccx0bwyx.ltrans14.ltrans.o
                0x0000000000011eaf                DevPathToTextSasEx
 .text.DevPathToTextFibreEx
                0x000000000001204f       0xa4 /tmp/ccx0bwyx.ltrans14.ltrans.o
                0x000000000001204f                DevPathToTextFibreEx
 .text.DevPathToTextFibre
                0x00000000000120f3       0x20 /tmp/ccx0bwyx.ltrans14.ltrans.o
                0x00000000000120f3                DevPathToTextFibre
 .text.DevPathToTextScsi
                0x0000000000012113       0x22 /tmp/ccx0bwyx.ltrans14.ltrans.o
                0x0000000000012113                DevPathToTextScsi
 .text.DevPathToTextAtapi
                0x0000000000012135       0x6b /tmp/ccx0bwyx.ltrans14.ltrans.o
                0x0000000000012135                DevPathToTextAtapi
 .text.DevPathToTextAcpi
                0x00000000000121a0       0xc6 /tmp/ccx0bwyx.ltrans14.ltrans.o
                0x00000000000121a0                DevPathToTextAcpi
 .text.DevPathToTextController
                0x0000000000012266       0x1c /tmp/ccx0bwyx.ltrans14.ltrans.o
                0x0000000000012266                DevPathToTextController
 .text.DevPathToTextDns
                0x0000000000012282       0xa5 /tmp/ccx0bwyx.ltrans14.ltrans.o
                0x0000000000012282                DevPathToTextDns
 .text.DevPathToTextIPv6
                0x0000000000012327      0x103 /tmp/ccx0bwyx.ltrans14.ltrans.o
                0x0000000000012327                DevPathToTextIPv6
 .text.DevPathToTextIPv4
                0x000000000001242a      0x112 /tmp/ccx0bwyx.ltrans14.ltrans.o
                0x000000000001242a                DevPathToTextIPv4
 .text.DevPathToTextAcpiAdr
                0x000000000001253c       0x88 /tmp/ccx0bwyx.ltrans14.ltrans.o
                0x000000000001253c                DevPathToTextAcpiAdr
 .text.DevPathToTextWiFi
                0x00000000000125c4       0x42 /tmp/ccx0bwyx.ltrans14.ltrans.o
                0x00000000000125c4                DevPathToTextWiFi
 .text.DevPathToTextUsbWWID
                0x0000000000012606       0xbe /tmp/ccx0bwyx.ltrans14.ltrans.o
                0x0000000000012606                DevPathToTextUsbWWID
 .text.DevPathToTextAcpiEx
                0x00000000000126c4      0x2ba /tmp/ccx0bwyx.ltrans14.ltrans.o
                0x00000000000126c4                DevPathToTextAcpiEx
 .text.DevPathToTextBmc
                0x000000000001297e       0x33 /tmp/ccx0bwyx.ltrans14.ltrans.o
                0x000000000001297e                DevPathToTextBmc
 .text.EfiBootManagerFreeDriverHealthInfo
                0x00000000000129b1       0x43 /tmp/ccx0bwyx.ltrans15.ltrans.o
 .text.BmRepairNotify
                0x00000000000129f4       0x47 /tmp/ccx0bwyx.ltrans15.ltrans.o
 .text.BmGetSingleControllerHealthStatus
                0x0000000000012a3b      0x2b9 /tmp/ccx0bwyx.ltrans15.ltrans.o
 .text.EfiBootManagerGetDriverHealthInfo
                0x0000000000012cf4      0x328 /tmp/ccx0bwyx.ltrans15.ltrans.o
 .text.BmGetControllerName
                0x000000000001301c      0x184 /tmp/ccx0bwyx.ltrans15.ltrans.o
 .text.BmDisplayMessages
                0x00000000000131a0      0x117 /tmp/ccx0bwyx.ltrans15.ltrans.o
 .text.BmHotkeyCallback
                0x00000000000132b7      0x21a /tmp/ccx0bwyx.ltrans15.ltrans.o
                0x00000000000132b7                BmHotkeyCallback
 .text.BmRepairAllControllers
                0x00000000000134d1      0x42f /tmp/ccx0bwyx.ltrans15.ltrans.o
                0x00000000000134d1                BmRepairAllControllers
 .text.LibExtractConfig
                0x0000000000013900       0x23 /tmp/ccx0bwyx.ltrans16.ltrans.o
                0x0000000000013900                LibExtractConfig
 .text.LibGetMenuEntry
                0x0000000000013923       0x94 /tmp/ccx0bwyx.ltrans16.ltrans.o
 .text.LibGetDevicePath
                0x00000000000139b7       0x55 /tmp/ccx0bwyx.ltrans16.ltrans.o
 .text.LibAppendFileName
                0x0000000000013a0c      0x1ec /tmp/ccx0bwyx.ltrans16.ltrans.o
 .text.LibCreateNewFile
                0x0000000000013bf8      0x32c /tmp/ccx0bwyx.ltrans16.ltrans.o
 .text.LibRouteConfig
                0x0000000000013f24        0x5 /tmp/ccx0bwyx.ltrans16.ltrans.o
                0x0000000000013f24                LibRouteConfig
 .text.LibUpdateFileExplorePage
                0x0000000000013f29      0x244 /tmp/ccx0bwyx.ltrans16.ltrans.o
                0x0000000000013f29                LibUpdateFileExplorePage
 .text.LibToLowerString
                0x000000000001416d       0x1e /tmp/ccx0bwyx.ltrans16.ltrans.o
                0x000000000001416d                LibToLowerString
 .text.LibStrDuplicate
                0x000000000001418b       0x78 /tmp/ccx0bwyx.ltrans16.ltrans.o
                0x000000000001418b                LibStrDuplicate
 .text.LibDestroyMenuEntry
                0x0000000000014203       0xa0 /tmp/ccx0bwyx.ltrans16.ltrans.o
                0x0000000000014203                LibDestroyMenuEntry
 .text.LibFreeMenu
                0x00000000000142a3       0x90 /tmp/ccx0bwyx.ltrans16.ltrans.o
                0x00000000000142a3                LibFreeMenu
 .text.LibCreateMenuEntry
                0x0000000000014333       0x58 /tmp/ccx0bwyx.ltrans16.ltrans.o
                0x0000000000014333                LibCreateMenuEntry
 .text.LibCallback
                0x000000000001438b      0x5e9 /tmp/ccx0bwyx.ltrans16.ltrans.o
                0x000000000001438b                LibCallback
 .text.BootManagerExtractConfig
                0x0000000000014974       0x23 /tmp/ccx0bwyx.ltrans17.ltrans.o
 .text.BmSetConsoleMode
                0x0000000000014997      0x491 /tmp/ccx0bwyx.ltrans17.ltrans.o
 .text.BootManagerCallback
                0x0000000000014e28      0x934 /tmp/ccx0bwyx.ltrans17.ltrans.o
 .text.BootManagerRouteConfig
                0x000000000001575c        0x5 /tmp/ccx0bwyx.ltrans17.ltrans.o
 .text.DeviceManagerRouteConfig
                0x0000000000015761        0x5 /tmp/ccx0bwyx.ltrans17.ltrans.o
 .text.DeviceManagerCallback
                0x0000000000015766      0x145 /tmp/ccx0bwyx.ltrans17.ltrans.o
 .text.UpdatePageEnd
                0x00000000000158ab       0xaa /tmp/ccx0bwyx.ltrans18.ltrans.o
                0x00000000000158ab                UpdatePageEnd
 .text.RefreshUpdateData
                0x0000000000015955       0x52 /tmp/ccx0bwyx.ltrans18.ltrans.o
                0x0000000000015955                RefreshUpdateData
 .text.CleanUpPage
                0x00000000000159a7       0x45 /tmp/ccx0bwyx.ltrans18.ltrans.o
                0x00000000000159a7                CleanUpPage
 .text.UpdatePageStart
                0x00000000000159ec       0x4c /tmp/ccx0bwyx.ltrans18.ltrans.o
                0x00000000000159ec                UpdatePageStart
 .text.UpdateOrderPage
                0x0000000000015a38      0x284 /tmp/ccx0bwyx.ltrans18.ltrans.o
                0x0000000000015a38                UpdateOrderPage
 .text.UpdateConsolePage
                0x0000000000015cbc      0x289 /tmp/ccx0bwyx.ltrans18.ltrans.o
                0x0000000000015cbc                UpdateConsolePage
 .text.GetConsoleOutMode
                0x0000000000015f45       0x95 /tmp/ccx0bwyx.ltrans18.ltrans.o
                0x0000000000015f45                GetConsoleOutMode
 .text.UpdateComAttributeFromVariable
                0x0000000000015fda      0x21c /tmp/ccx0bwyx.ltrans18.ltrans.o
                0x0000000000015fda                UpdateComAttributeFromVariable
 .text.RetrieveUartUid
                0x00000000000161f6       0xd0 /tmp/ccx0bwyx.ltrans18.ltrans.o
                0x00000000000161f6                RetrieveUartUid
 .text.ChangeTerminalDevicePath
                0x00000000000162c6      0x1f8 /tmp/ccx0bwyx.ltrans18.ltrans.o
                0x00000000000162c6                ChangeTerminalDevicePath
 .text.Var_UpdateConsoleOption
                0x00000000000164be      0x226 /tmp/ccx0bwyx.ltrans18.ltrans.o
                0x00000000000164be                Var_UpdateConsoleOption
 .text.GetConsoleMenu
                0x00000000000166e4      0x441 /tmp/ccx0bwyx.ltrans18.ltrans.o
                0x00000000000166e4                GetConsoleMenu
 .text.ReSendForm
                0x0000000000016b25      0x1e8 /tmp/ccx0bwyx.ltrans19.ltrans.o
 .text.CreateDriverOptionFromFile
                0x0000000000016d0d       0x9e /tmp/ccx0bwyx.ltrans19.ltrans.o
                0x0000000000016d0d                CreateDriverOptionFromFile
 .text.CreateBootOptionFromFile
                0x0000000000016dab       0x9e /tmp/ccx0bwyx.ltrans19.ltrans.o
                0x0000000000016dab                CreateBootOptionFromFile
 .text.BootFromFile
                0x0000000000016e49      0x266 /tmp/ccx0bwyx.ltrans19.ltrans.o
                0x0000000000016e49                BootFromFile
 .text.IsIsaSerialNode
                0x00000000000170af       0x4e /tmp/ccx0bwyx.ltrans19.ltrans.o
                0x00000000000170af                IsIsaSerialNode
 .text.BmMatchDevicePaths
                0x00000000000170fd       0x8f /tmp/ccx0bwyx.ltrans19.ltrans.o
                0x00000000000170fd                BmMatchDevicePaths
                0x00000000000170fd                MatchDevicePaths
 .text.BOpt_GetOptionNumber
                0x000000000001718c      0x11c /tmp/ccx0bwyx.ltrans19.ltrans.o
                0x000000000001718c                BOpt_GetOptionNumber
 .text.BOpt_FreeMenu
                0x00000000000172a8       0x90 /tmp/ccx0bwyx.ltrans19.ltrans.o
                0x00000000000172a8                BOpt_FreeMenu
 .text.BOpt_GetDriverOptions
                0x0000000000017338      0x35a /tmp/ccx0bwyx.ltrans19.ltrans.o
                0x0000000000017338                BOpt_GetDriverOptions
 .text.BOpt_GetBootOptions
                0x0000000000017692      0x509 /tmp/ccx0bwyx.ltrans19.ltrans.o
                0x0000000000017692                BOpt_GetBootOptions
 .text.BOpt_GetMenuEntry
                0x0000000000017b9b       0x94 /tmp/ccx0bwyx.ltrans19.ltrans.o
                0x0000000000017b9b                BOpt_GetMenuEntry
 .text.GetDriverOrder
                0x0000000000017c2f       0xc0 /tmp/ccx0bwyx.ltrans19.ltrans.o
                0x0000000000017c2f                GetDriverOrder
 .text.GetBootOrder
                0x0000000000017cef       0xc0 /tmp/ccx0bwyx.ltrans19.ltrans.o
                0x0000000000017cef                GetBootOrder
 .text.InternalBaseLibIsListValid
                0x0000000000017daf       0x9e /tmp/ccx0bwyx.ltrans20.ltrans.o
 .text.IsNodeInList
                0x0000000000017e4d       0x93 /tmp/ccx0bwyx.ltrans20.ltrans.o
 .text.StrnLenS
                0x0000000000017ee0       0x5e /tmp/ccx0bwyx.ltrans20.ltrans.o
                0x0000000000017ee0                StrnLenS
 .text.InternalSafeStringNoStrOverlap
                0x0000000000017f3e       0x29 /tmp/ccx0bwyx.ltrans20.ltrans.o
                0x0000000000017f3e                InternalSafeStringNoStrOverlap
 .text.StrCpyS  0x0000000000017f67      0x2e0 /tmp/ccx0bwyx.ltrans20.ltrans.o
                0x0000000000017f67                StrCpyS
 .text.IsNull   0x0000000000018247       0x70 /tmp/ccx0bwyx.ltrans20.ltrans.o
                0x0000000000018247                IsNull
 .text.IsListEmpty
                0x00000000000182b7       0x41 /tmp/ccx0bwyx.ltrans20.ltrans.o
                0x00000000000182b7                IsListEmpty
 .text.RemoveEntryList
                0x00000000000182f8       0x53 /tmp/ccx0bwyx.ltrans20.ltrans.o
                0x00000000000182f8                RemoveEntryList
 .text.GetNextNode
                0x000000000001834b       0x71 /tmp/ccx0bwyx.ltrans20.ltrans.o
                0x000000000001834b                GetNextNode
 .text.GetFirstNode
                0x00000000000183bc       0x3e /tmp/ccx0bwyx.ltrans20.ltrans.o
                0x00000000000183bc                GetFirstNode
 .text.InsertTailList
                0x00000000000183fa       0x7f /tmp/ccx0bwyx.ltrans20.ltrans.o
                0x00000000000183fa                InsertTailList
 .text.InitializeListHead
                0x0000000000018479       0x3e /tmp/ccx0bwyx.ltrans20.ltrans.o
                0x0000000000018479                InitializeListHead
 .text.CompareGuid
                0x00000000000184b7       0x4d /tmp/ccx0bwyx.ltrans20.ltrans.o
                0x00000000000184b7                CompareGuid
 .text.CopyGuid
                0x0000000000018504       0x3e /tmp/ccx0bwyx.ltrans20.ltrans.o
                0x0000000000018504                CopyGuid
 .text.CopyMem  0x0000000000018542      0x260 /tmp/ccx0bwyx.ltrans20.ltrans.o
                0x0000000000018542                CopyMem
 .text.SetMem16.part.0.lto_priv.83
                0x00000000000187a2       0xb8 /tmp/ccx0bwyx.ltrans20.ltrans.o
                0x00000000000187a2                SetMem16.part.0.lto_priv.83
 .text.CompareMem
                0x000000000001885a       0xec /tmp/ccx0bwyx.ltrans20.ltrans.o
                0x000000000001885a                CompareMem
 .text.ZeroMem  0x0000000000018946       0x72 /tmp/ccx0bwyx.ltrans20.ltrans.o
                0x0000000000018946                ZeroMem
 .text.BmEliminateExtraSpaces
                0x00000000000189b8       0x34 /tmp/ccx0bwyx.ltrans21.ltrans.o
 .text.BmGetNvmeDescription
                0x00000000000189ec      0x278 /tmp/ccx0bwyx.ltrans21.ltrans.o
                0x00000000000189ec                BmGetNvmeDescription
 .text.BmGetLoadFileDescription
                0x0000000000018c64       0xbe /tmp/ccx0bwyx.ltrans21.ltrans.o
                0x0000000000018c64                BmGetLoadFileDescription
 .text.BmGetNetworkDescription
                0x0000000000018d22      0x3a0 /tmp/ccx0bwyx.ltrans21.ltrans.o
                0x0000000000018d22                BmGetNetworkDescription
 .text.BmGetUsbDescription
                0x00000000000190c2      0x21b /tmp/ccx0bwyx.ltrans21.ltrans.o
                0x00000000000190c2                BmGetUsbDescription
 .text.BmGetDescriptionFromDiskInfo
                0x00000000000192dd      0x32b /tmp/ccx0bwyx.ltrans21.ltrans.o
                0x00000000000192dd                BmGetDescriptionFromDiskInfo
 .text.BmMatchPartitionDevicePathNode.part.6.lto_priv.88
                0x0000000000019608       0xac /tmp/ccx0bwyx.ltrans21.ltrans.o
                0x0000000000019608                BmMatchPartitionDevicePathNode.part.6.lto_priv.88
 .text.BasePrintLibSPrintMarker.constprop.81
                0x00000000000196b4     0x1074 /tmp/ccx0bwyx.ltrans22.ltrans.o
                0x00000000000196b4                BasePrintLibSPrintMarker.constprop.81
 .text.DeviceManagerExtractConfig
                0x000000000001a728       0x23 /tmp/ccx0bwyx.ltrans23.ltrans.o
                0x000000000001a728                DeviceManagerExtractConfig
 .text.IsMacAddressDevicePath
                0x000000000001a74b      0x411 /tmp/ccx0bwyx.ltrans23.ltrans.o
 .text.CreateDeviceManagerForm
                0x000000000001ab5c      0x7ee /tmp/ccx0bwyx.ltrans23.ltrans.o
                0x000000000001ab5c                CreateDeviceManagerForm
 .text.BootMaintExtractConfig
                0x000000000001b34a      0x1c0 /tmp/ccx0bwyx.ltrans24.ltrans.o
                0x000000000001b34a                BootMaintExtractConfig
 .text.UpdateConsoleContent
                0x000000000001b50a      0x334 /tmp/ccx0bwyx.ltrans24.ltrans.o
                0x000000000001b50a                UpdateConsoleContent
 .text.UiDevicePathToStr
                0x000000000001b83e       0xea /tmp/ccx0bwyx.ltrans24.ltrans.o
                0x000000000001b83e                UiDevicePathToStr
 .text.ExtractFileNameFromDevicePath
                0x000000000001b928       0xb9 /tmp/ccx0bwyx.ltrans24.ltrans.o
                0x000000000001b928                ExtractFileNameFromDevicePath
 .text.BmmSetConsoleMode
                0x000000000001b9e1      0x491 /tmp/ccx0bwyx.ltrans24.ltrans.o
                0x000000000001b9e1                BmmSetConsoleMode
 .text.EfiBootManagerRefreshAllBootOption
                0x000000000001be72      0x80b /tmp/ccx0bwyx.ltrans25.ltrans.o
                0x000000000001be72                EfiBootManagerRefreshAllBootOption
 .text.FakeRouteConfig
                0x000000000001c67d       0x23 /tmp/ccx0bwyx.ltrans26.ltrans.o
                0x000000000001c67d                FakeRouteConfig
 .text.FakeExtractConfig
                0x000000000001c6a0       0x23 /tmp/ccx0bwyx.ltrans26.ltrans.o
                0x000000000001c6a0                FakeExtractConfig
 .text.GetNextLanguage
                0x000000000001c6c3       0xe6 /tmp/ccx0bwyx.ltrans26.ltrans.o
                0x000000000001c6c3                GetNextLanguage
 .text.FrontPageCallback
                0x000000000001c7a9      0x263 /tmp/ccx0bwyx.ltrans26.ltrans.o
                0x000000000001c7a9                FrontPageCallback
 .text.UiCustomizeFrontPageBanner
                0x000000000001ca0c       0x3e /tmp/ccx0bwyx.ltrans26.ltrans.o
                0x000000000001ca0c                UiCustomizeFrontPageBanner
 .text.UiSetConsoleMode
                0x000000000001ca4a      0x491 /tmp/ccx0bwyx.ltrans26.ltrans.o
                0x000000000001ca4a                UiSetConsoleMode
 .text.GetOptionalStringByIndex
                0x000000000001cedb       0xaa /tmp/ccx0bwyx.ltrans26.ltrans.o
                0x000000000001cedb                GetOptionalStringByIndex
 .text.BOpt_DestroyMenuEntry
                0x000000000001cf85      0x10d /tmp/ccx0bwyx.ltrans27.ltrans.o
                0x000000000001cf85                BOpt_DestroyMenuEntry
 .text.BOpt_CreateMenuEntry
                0x000000000001d092       0x7b /tmp/ccx0bwyx.ltrans27.ltrans.o
                0x000000000001d092                BOpt_CreateMenuEntry
 .text.CleanUselessBeforeSubmit
                0x000000000001d10d       0x8f /tmp/ccx0bwyx.ltrans27.ltrans.o
                0x000000000001d10d                CleanUselessBeforeSubmit
 .text.BmReportLoadFailure
                0x000000000001d19c        0x1 /tmp/ccx0bwyx.ltrans28.ltrans.o
                0x000000000001d19c                BmReportLoadFailure
 .text.BmIsBootManagerMenuFilePath
                0x000000000001d19d       0x6b /tmp/ccx0bwyx.ltrans28.ltrans.o
                0x000000000001d19d                BmIsBootManagerMenuFilePath
 .text.InternalMemSetMem
                0x000000000001d208       0xed /tmp/ccx0bwyx.ltrans29.ltrans.o
                0x000000000001d208                InternalMemSetMem
 .text.DmExtractDevicePathFromHiiHandle
                0x000000000001d2f5       0x8c /tmp/ccx0bwyx.ltrans30.ltrans.o
                0x000000000001d2f5                DmExtractDevicePathFromHiiHandle
 .text.BasePrintLibSPrint.constprop.82
                0x000000000001d381       0xb8 /tmp/ccx0bwyx.ltrans31.ltrans.o
                0x000000000001d381                BasePrintLibSPrint.constprop.82
 *(.rodata .rodata.* .gnu.linkonce.r.*)
 .rodata.str1.1
                0x000000000001d439      0x437 /tmp/ccx0bwyx.ltrans0.ltrans.o
                                        0x4c1 (size before relaxing)
 .rodata.str2.2
                0x000000000001d870       0xde /tmp/ccx0bwyx.ltrans0.ltrans.o
                                         0xe2 (size before relaxing)
 *fill*         0x000000000001d94e        0x2 
 .rodata._gPcd_FixedAtBuild_PcdUefiVariableDefaultPlatformLangCodes
                0x000000000001d950       0x12 /tmp/ccx0bwyx.ltrans0.ltrans.o
 *fill*         0x000000000001d962        0x2 
 .rodata._gUefiDriverRevision
                0x000000000001d964        0x4 /tmp/ccx0bwyx.ltrans0.ltrans.o
                0x000000000001d964                _gPcd_FixedAtBuild_PcdMaximumDevicePathNodeCount
                0x000000000001d964                _gUefiDriverRevision
                0x000000000001d964                _gPcd_FixedAtBuild_PcdControlFlowEnforcementPropertyMask
                0x000000000001d964                _gPcd_FixedAtBuild_PcdMaxRepairCount
 .rodata.str1.1
                0x000000000001d968      0x673 /tmp/ccx0bwyx.ltrans1.ltrans.o
                                        0x776 (size before relaxing)
 *fill*         0x000000000001dfdb        0x1 
 .rodata.str2.2
                0x000000000001dfdc       0x78 /tmp/ccx0bwyx.ltrans1.ltrans.o
 .rodata.BootMaintCallback
                0x000000000001e054       0xc0 /tmp/ccx0bwyx.ltrans1.ltrans.o
 *fill*         0x000000000001e114        0xc 
 .rodata.TerminalType
                0x000000000001e120       0x12 /tmp/ccx0bwyx.ltrans1.ltrans.o
 *fill*         0x000000000001e132        0xe 
 .rodata.StopBitsList
                0x000000000001e140       0x30 /tmp/ccx0bwyx.ltrans1.ltrans.o
                0x000000000001e140                StopBitsList
 *fill*         0x000000000001e170       0x10 
 .rodata.ParityList
                0x000000000001e180       0x50 /tmp/ccx0bwyx.ltrans1.ltrans.o
                0x000000000001e180                ParityList
 *fill*         0x000000000001e1d0       0x10 
 .rodata.DataBitsList
                0x000000000001e1e0       0x40 /tmp/ccx0bwyx.ltrans1.ltrans.o
                0x000000000001e1e0                DataBitsList
 .rodata.BaudRateList
                0x000000000001e220      0x130 /tmp/ccx0bwyx.ltrans1.ltrans.o
                0x000000000001e220                BaudRateList
 .rodata.__FUNCTION__.2881
                0x000000000001e350        0x9 /tmp/ccx0bwyx.ltrans1.ltrans.o
 *fill*         0x000000000001e359        0x7 
 .rodata.mConfigHdrTemplate
                0x000000000001e360       0x70 /tmp/ccx0bwyx.ltrans1.ltrans.o
 .rodata.str2.2
                0x000000000001e3d0       0x5c /tmp/ccx0bwyx.ltrans2.ltrans.o
 .rodata.str1.1
                0x000000000001e42c      0x404 /tmp/ccx0bwyx.ltrans2.ltrans.o
                                        0x463 (size before relaxing)
 .rodata.str1.1
                0x000000000001e830      0x413 /tmp/ccx0bwyx.ltrans3.ltrans.o
                                        0x646 (size before relaxing)
 *fill*         0x000000000001ec43        0x1 
 .rodata.str2.2
                0x000000000001ec44       0x28 /tmp/ccx0bwyx.ltrans3.ltrans.o
                                         0x50 (size before relaxing)
 .rodata.str1.1
                0x000000000001ec6c       0xff /tmp/ccx0bwyx.ltrans4.ltrans.o
                                        0x195 (size before relaxing)
 *fill*         0x000000000001ed6b        0x1 
 .rodata.str2.2
                0x000000000001ed6c       0x66 /tmp/ccx0bwyx.ltrans4.ltrans.o
                                         0x8e (size before relaxing)
 *fill*         0x000000000001edd2        0xe 
 .rodata.__FUNCTION__.19307
                0x000000000001ede0       0x11 /tmp/ccx0bwyx.ltrans4.ltrans.o
 .rodata.str1.1
                0x000000000001edf1      0x2e6 /tmp/ccx0bwyx.ltrans5.ltrans.o
                                        0x499 (size before relaxing)
 *fill*         0x000000000001f0d7        0x1 
 .rodata.str2.2
                0x000000000001f0d8        0x8 /tmp/ccx0bwyx.ltrans5.ltrans.o
                                         0x22 (size before relaxing)
 .rodata.__FUNCTION__.2856
                0x000000000001f0e0        0x9 /tmp/ccx0bwyx.ltrans5.ltrans.o
 .rodata.str1.1
                0x000000000001f0e9      0x29e /tmp/ccx0bwyx.ltrans6.ltrans.o
                                        0x354 (size before relaxing)
 .rodata.str2.2
                0x000000000001f387       0x28 /tmp/ccx0bwyx.ltrans6.ltrans.o
 *fill*         0x000000000001f387        0x1 
 .rodata.mHiiDefaultTypeToWidth
                0x000000000001f388        0x8 /tmp/ccx0bwyx.ltrans6.ltrans.o
 .rodata.str2.2
                0x000000000001f390      0x296 /tmp/ccx0bwyx.ltrans7.ltrans.o
                                        0x382 (size before relaxing)
 *fill*         0x000000000001f626        0x2 
 .rodata.DevPathToTextBBS
                0x000000000001f628       0x18 /tmp/ccx0bwyx.ltrans7.ltrans.o
 .rodata.str1.1
                0x000000000001f640      0x287 /tmp/ccx0bwyx.ltrans7.ltrans.o
                                        0x3df (size before relaxing)
 .rodata.mEndOfPakageList
                0x000000000001f8c7        0x4 /tmp/ccx0bwyx.ltrans7.ltrans.o
 .rodata.str1.1
                0x000000000001f8cb      0x21e /tmp/ccx0bwyx.ltrans8.ltrans.o
                                        0x2f8 (size before relaxing)
 *fill*         0x000000000001fae9        0x1 
 .rodata.str2.2
                0x000000000001faea       0xb0 /tmp/ccx0bwyx.ltrans8.ltrans.o
                                         0xe2 (size before relaxing)
 .rodata.str1.1
                0x000000000001fb9a       0x19 /tmp/ccx0bwyx.ltrans9.ltrans.o
                                         0xaf (size before relaxing)
 *fill*         0x000000000001fbb3        0x1 
 .rodata.str2.2
                0x000000000001fbb4        0xa /tmp/ccx0bwyx.ltrans9.ltrans.o
 .rodata.str1.1
                0x000000000001fbbe      0x436 /tmp/ccx0bwyx.ltrans10.ltrans.o
                                        0x70d (size before relaxing)
 *fill*         0x000000000001fff4        0x4 
 .rodata.__FUNCTION__.2868
                0x000000000001fff8        0x8 /tmp/ccx0bwyx.ltrans10.ltrans.o
 .rodata.__FUNCTION__.3147
                0x0000000000020000       0x16 /tmp/ccx0bwyx.ltrans10.ltrans.o
 *fill*         0x0000000000020016        0xa 
 .rodata.mHexStr
                0x0000000000020020       0x10 /tmp/ccx0bwyx.ltrans10.ltrans.o
 .rodata.str2.2
                0x0000000000020030       0xa4 /tmp/ccx0bwyx.ltrans11.ltrans.o
                                         0xe8 (size before relaxing)
 .rodata.str1.1
                0x00000000000200d4      0x23f /tmp/ccx0bwyx.ltrans11.ltrans.o
                                        0x2d9 (size before relaxing)
 .rodata.str1.1
                0x0000000000020313      0x16c /tmp/ccx0bwyx.ltrans12.ltrans.o
                                        0x24f (size before relaxing)
 *fill*         0x000000000002047f        0x1 
 .rodata.str2.2
                0x0000000000020480      0x236 /tmp/ccx0bwyx.ltrans12.ltrans.o
                                        0x26e (size before relaxing)
 .rodata.mUefiDevicePathLibEndDevicePath
                0x00000000000206b6        0x4 /tmp/ccx0bwyx.ltrans12.ltrans.o
 .rodata.str1.1
                0x00000000000206ba      0x248 /tmp/ccx0bwyx.ltrans13.ltrans.o
                                        0x457 (size before relaxing)
 .rodata.str2.2
                0x0000000000020902       0xd2 /tmp/ccx0bwyx.ltrans13.ltrans.o
                                        0x12e (size before relaxing)
 .rodata.UpdatePageBody
                0x00000000000209d4       0x20 /tmp/ccx0bwyx.ltrans13.ltrans.o
 .rodata._gPcd_FixedAtBuild_PcdPerformanceLibraryPropertyMask
                0x00000000000209f4        0x1 /tmp/ccx0bwyx.ltrans13.ltrans.o
                0x00000000000209f4                _gPcd_FixedAtBuild_PcdVerifyNodeInList
                0x00000000000209f4                _gPcd_FixedAtBuild_PcdPerformanceLibraryPropertyMask
 *fill*         0x00000000000209f5        0x1 
 .rodata.str2.2
                0x00000000000209f6      0xa6a /tmp/ccx0bwyx.ltrans14.ltrans.o
                                        0xb70 (size before relaxing)
 .rodata.str1.1
                0x0000000000021460       0x17 /tmp/ccx0bwyx.ltrans14.ltrans.o
                                         0x68 (size before relaxing)
 .rodata.CSWTCH.43
                0x0000000000021477        0x6 /tmp/ccx0bwyx.ltrans14.ltrans.o
 .rodata.str1.1
                0x000000000002147d      0x21c /tmp/ccx0bwyx.ltrans15.ltrans.o
                                        0x2ca (size before relaxing)
 *fill*         0x0000000000021699        0x1 
 .rodata.str2.2
                0x000000000002169a      0x112 /tmp/ccx0bwyx.ltrans15.ltrans.o
                                        0x14e (size before relaxing)
 *fill*         0x00000000000217ac        0x4 
 .rodata.__FUNCTION__.19161
                0x00000000000217b0       0x17 /tmp/ccx0bwyx.ltrans15.ltrans.o
 *fill*         0x00000000000217c7        0x9 
 .rodata._gPcd_FixedAtBuild_PcdDriverHealthConfigureForm
                0x00000000000217d0       0x10 /tmp/ccx0bwyx.ltrans15.ltrans.o
 .rodata.str1.1
                0x00000000000217e0       0x50 /tmp/ccx0bwyx.ltrans16.ltrans.o
                                         0xca (size before relaxing)
 .rodata.str2.2
                0x0000000000021830        0xa /tmp/ccx0bwyx.ltrans16.ltrans.o
                                          0xe (size before relaxing)
 .rodata.str1.1
                0x000000000002183a      0x14d /tmp/ccx0bwyx.ltrans17.ltrans.o
                                        0x2b3 (size before relaxing)
 *fill*         0x0000000000021987        0x1 
 .rodata.str2.2
                0x0000000000021988      0x11e /tmp/ccx0bwyx.ltrans17.ltrans.o
                                        0x1ca (size before relaxing)
 .rodata.str1.1
                0x0000000000021aa6       0xdc /tmp/ccx0bwyx.ltrans18.ltrans.o
                                        0x274 (size before relaxing)
 .rodata.str2.2
                0x0000000000021b82       0x62 /tmp/ccx0bwyx.ltrans18.ltrans.o
 .rodata.str1.1
                0x0000000000021b82       0x85 /tmp/ccx0bwyx.ltrans19.ltrans.o
                                        0x20f (size before relaxing)
 *fill*         0x0000000000021c07        0x1 
 .rodata.str2.2
                0x0000000000021c08       0x10 /tmp/ccx0bwyx.ltrans19.ltrans.o
                                        0x10a (size before relaxing)
 .rodata.str1.1
                0x0000000000021c18      0x49c /tmp/ccx0bwyx.ltrans20.ltrans.o
                                        0x6df (size before relaxing)
 *fill*         0x00000000000220b4        0x4 
 .rodata.__FUNCTION__.2845
                0x00000000000220b8        0x8 /tmp/ccx0bwyx.ltrans20.ltrans.o
 .rodata.str1.1
                0x00000000000220c0      0x49c /tmp/ccx0bwyx.ltrans21.ltrans.o
                                         0xbd (size before relaxing)
 .rodata.str2.2
                0x00000000000220c0       0xe0 /tmp/ccx0bwyx.ltrans21.ltrans.o
                                         0xe4 (size before relaxing)
 .rodata.str1.1
                0x00000000000221a0      0x227 /tmp/ccx0bwyx.ltrans22.ltrans.o
                                        0x2a3 (size before relaxing)
 *fill*         0x00000000000223c7       0x19 
 .rodata.mWarningString
                0x00000000000223e0       0x96 /tmp/ccx0bwyx.ltrans22.ltrans.o
 *fill*         0x0000000000022476        0xa 
 .rodata.mErrorString
                0x0000000000022480      0x2b5 /tmp/ccx0bwyx.ltrans22.ltrans.o
 *fill*         0x0000000000022735        0x3 
 .rodata._gPcd_FixedAtBuild_PcdMaximumUnicodeStringLength
                0x0000000000022738        0x4 /tmp/ccx0bwyx.ltrans22.ltrans.o
                0x0000000000022738                _gPcd_FixedAtBuild_PcdMaximumLinkedListLength
                0x0000000000022738                _gPcd_FixedAtBuild_PcdMaximumAsciiStringLength
                0x0000000000022738                _gPcd_FixedAtBuild_PcdMaximumUnicodeStringLength
 .rodata.str1.1
                0x000000000002273c       0x1f /tmp/ccx0bwyx.ltrans23.ltrans.o
                                         0xfd (size before relaxing)
 *fill*         0x000000000002275b        0x1 
 .rodata.str2.2
                0x000000000002275c       0x16 /tmp/ccx0bwyx.ltrans23.ltrans.o
 .rodata.str1.1
                0x0000000000022772       0x1e /tmp/ccx0bwyx.ltrans24.ltrans.o
                                        0x191 (size before relaxing)
 .rodata.str2.2
                0x0000000000022790        0xe /tmp/ccx0bwyx.ltrans24.ltrans.o
                                         0x6c (size before relaxing)
 .rodata.str1.1
                0x000000000002279e       0x34 /tmp/ccx0bwyx.ltrans25.ltrans.o
                                        0x123 (size before relaxing)
 .rodata.str2.2
                0x00000000000227d2        0xc /tmp/ccx0bwyx.ltrans25.ltrans.o
 .rodata.str1.1
                0x00000000000227de       0x5e /tmp/ccx0bwyx.ltrans26.ltrans.o
                                        0x189 (size before relaxing)
 .rodata.str2.2
                0x000000000002283c       0x1a /tmp/ccx0bwyx.ltrans26.ltrans.o
 .rodata.BOpt_DestroyMenuEntry
                0x000000000002283c       0x18 /tmp/ccx0bwyx.ltrans27.ltrans.o
 .rodata.CSWTCH.33
                0x0000000000022854        0x6 /tmp/ccx0bwyx.ltrans27.ltrans.o
 *fill*         0x000000000002285a        0x6 
 .rodata._gPcd_FixedAtBuild_PcdBootManagerMenuFile
                0x0000000000022860       0x10 /tmp/ccx0bwyx.ltrans28.ltrans.o
 .rodata.str1.1
                0x0000000000022870       0x6c /tmp/ccx0bwyx.ltrans30.ltrans.o
 *(.got .got.*)
 .got           0x0000000000022870        0x0 FrontPageVfr.obj (symbol from plugin)
 .got.plt       0x0000000000022870        0x0 FrontPageVfr.obj (symbol from plugin)
 *:AutoGen.obj(.data.g*Guid)

.plt            0x0000000000022870        0x0
 .plt           0x0000000000022870        0x0 FrontPageVfr.obj (symbol from plugin)

.plt.got        0x0000000000022870        0x0
 .plt.got       0x0000000000022870        0x0 FrontPageVfr.obj (symbol from plugin)

.data           0x0000000000022880     0x7738
 *(.data .data.* .gnu.linkonce.d.*)
 .data.mBmmHiiVendorDevicePath
                0x0000000000022880       0x18 /tmp/ccx0bwyx.ltrans0.ltrans.o
                0x0000000000022880                mBmmHiiVendorDevicePath
 *fill*         0x0000000000022898        0x8 
 .data.mBootManagerHiiVendorDevicePath
                0x00000000000228a0       0x18 /tmp/ccx0bwyx.ltrans0.ltrans.o
                0x00000000000228a0                mBootManagerHiiVendorDevicePath
 *fill*         0x00000000000228b8        0x8 
 .data.mVendorDevicePath.lto_priv.90
                0x00000000000228c0       0x18 /tmp/ccx0bwyx.ltrans0.ltrans.o
                0x00000000000228c0                mVendorDevicePath.lto_priv.90
 *fill*         0x00000000000228d8        0x8 
 .data.mDeviceManagerHiiVendorDevicePath
                0x00000000000228e0       0x18 /tmp/ccx0bwyx.ltrans0.ltrans.o
                0x00000000000228e0                mDeviceManagerHiiVendorDevicePath
 *fill*         0x00000000000228f8        0x8 
 .data.mFontBin
                0x0000000000022900      0xda0 /tmp/ccx0bwyx.ltrans0.ltrans.o
 .data.mFontPackageGuid
                0x00000000000236a0       0x10 /tmp/ccx0bwyx.ltrans0.ltrans.o
 .data.mUiStringPackGuid
                0x00000000000236b0       0x10 /tmp/ccx0bwyx.ltrans0.ltrans.o
 .data.gEfiHiiStringProtocolGuid
                0x00000000000236c0       0x10 /tmp/ccx0bwyx.ltrans0.ltrans.o
                0x00000000000236c0                gEfiHiiStringProtocolGuid
 .data.gEfiIfrFrontPageGuid
                0x00000000000236d0       0x10 /tmp/ccx0bwyx.ltrans0.ltrans.o
 .data.gEfiSmbiosProtocolGuid
                0x00000000000236e0       0x10 /tmp/ccx0bwyx.ltrans0.ltrans.o
 *fill*         0x00000000000236f0       0x10 
 .data.UiAppStrings
                0x0000000000023700      0x426 /tmp/ccx0bwyx.ltrans0.ltrans.o
 *fill*         0x0000000000023b26       0x1a 
 .data.FrontPageVfrBin
                0x0000000000023b40      0x147 /tmp/ccx0bwyx.ltrans0.ltrans.o
 *fill*         0x0000000000023c87        0x9 
 .data.mFrontPageGuid
                0x0000000000023c90       0x10 /tmp/ccx0bwyx.ltrans0.ltrans.o
 .data.gEfiHiiConfigAccessProtocolGuid
                0x0000000000023ca0       0x10 /tmp/ccx0bwyx.ltrans0.ltrans.o
                0x0000000000023ca0                gEfiHiiConfigAccessProtocolGuid
 .data.mFrontPageHiiVendorDevicePath
                0x0000000000023cb0       0x18 /tmp/ccx0bwyx.ltrans0.ltrans.o
 *fill*         0x0000000000023cc8       0x18 
 .data.rel.local.gFrontPagePrivate
                0x0000000000023ce0       0x38 /tmp/ccx0bwyx.ltrans0.ltrans.o
                0x0000000000023ce0                gFrontPagePrivate
 *fill*         0x0000000000023d18        0x8 
 .data.gEfiBootLogoProtocolGuid
                0x0000000000023d20       0x10 /tmp/ccx0bwyx.ltrans0.ltrans.o
                0x0000000000023d20                gEfiBootLogoProtocolGuid
 .data._gPcd_BinaryPatch_PcdSetupVideoVerticalResolution
                0x0000000000023d30        0x4 /tmp/ccx0bwyx.ltrans0.ltrans.o
                0x0000000000023d30                _gPcd_BinaryPatch_PcdSetupVideoVerticalResolution
 .data._gPcd_BinaryPatch_PcdSetupVideoHorizontalResolution
                0x0000000000023d34        0x4 /tmp/ccx0bwyx.ltrans0.ltrans.o
                0x0000000000023d34                _gPcd_BinaryPatch_PcdSetupVideoHorizontalResolution
 *fill*         0x0000000000023d38        0x8 
 .data.gEfiIfrBootMaintenanceGuid
                0x0000000000023d40       0x10 /tmp/ccx0bwyx.ltrans1.ltrans.o
 *fill*         0x0000000000023d50       0x10 
 .data.DriverMenu
                0x0000000000023d60       0x20 /tmp/ccx0bwyx.ltrans1.ltrans.o
                0x0000000000023d60                DriverMenu
 .data.gEfiSimpleTextInputExProtocolGuid
                0x0000000000023d80       0x10 /tmp/ccx0bwyx.ltrans2.ltrans.o
 .data.gEfiEventReadyToBootGuid
                0x0000000000023d90       0x10 /tmp/ccx0bwyx.ltrans2.ltrans.o
 .data.gEfiMemoryTypeInformationGuid
                0x0000000000023da0       0x10 /tmp/ccx0bwyx.ltrans2.ltrans.o
 .data.gEfiFileInfoGuid
                0x0000000000023db0       0x10 /tmp/ccx0bwyx.ltrans2.ltrans.o
 .data.gEfiFirmwareVolume2ProtocolGuid
                0x0000000000023dc0       0x10 /tmp/ccx0bwyx.ltrans2.ltrans.o
                0x0000000000023dc0                gEfiFirmwareVolume2ProtocolGuid
 .data.gEfiLoadedImageProtocolGuid
                0x0000000000023dd0       0x10 /tmp/ccx0bwyx.ltrans2.ltrans.o
                0x0000000000023dd0                gEfiLoadedImageProtocolGuid
 .data.gEfiHiiImageProtocolGuid
                0x0000000000023de0       0x10 /tmp/ccx0bwyx.ltrans3.ltrans.o
 .data.gEfiHiiFontProtocolGuid
                0x0000000000023df0       0x10 /tmp/ccx0bwyx.ltrans3.ltrans.o
 .data.gEfiHiiDatabaseProtocolGuid
                0x0000000000023e00       0x10 /tmp/ccx0bwyx.ltrans3.ltrans.o
 .data.gEfiDxeServicesTableGuid
                0x0000000000023e10       0x10 /tmp/ccx0bwyx.ltrans3.ltrans.o
 .data.FileExplorerLibStrings
                0x0000000000023e20      0x81a /tmp/ccx0bwyx.ltrans3.ltrans.o
 *fill*         0x000000000002463a        0x6 
 .data.FileExplorerVfrBin
                0x0000000000024640       0xf9 /tmp/ccx0bwyx.ltrans3.ltrans.o
 *fill*         0x0000000000024739        0x7 
 .data.FeHiiVendorDevicePath
                0x0000000000024740       0x18 /tmp/ccx0bwyx.ltrans3.ltrans.o
 *fill*         0x0000000000024758        0x8 
 .data.DeviceManagerUiLibStrings
                0x0000000000024760      0x4b8 /tmp/ccx0bwyx.ltrans3.ltrans.o
 *fill*         0x0000000000024c18        0x8 
 .data.DeviceManagerVfrBin
                0x0000000000024c20      0x12d /tmp/ccx0bwyx.ltrans3.ltrans.o
 *fill*         0x0000000000024d4d       0x13 
 .data.BootDiscoveryPolicyUiLibStrings
                0x0000000000024d60       0xe2 /tmp/ccx0bwyx.ltrans3.ltrans.o
 *fill*         0x0000000000024e42       0x1e 
 .data.BootDiscoveryPolicyUiLibVfrBin
                0x0000000000024e60       0xad /tmp/ccx0bwyx.ltrans3.ltrans.o
 *fill*         0x0000000000024f0d        0x3 
 .data._gPcd_BinaryPatch_PcdBootDiscoveryPolicy
                0x0000000000024f10        0x4 /tmp/ccx0bwyx.ltrans3.ltrans.o
 *fill*         0x0000000000024f14        0xc 
 .data.gBootDiscoveryPolicyMgrFormsetGuid
                0x0000000000024f20       0x10 /tmp/ccx0bwyx.ltrans3.ltrans.o
 *fill*         0x0000000000024f30       0x10 
 .data.BootManagerUiLibStrings
                0x0000000000024f40      0x434 /tmp/ccx0bwyx.ltrans3.ltrans.o
 *fill*         0x0000000000025374        0xc 
 .data.BootManagerVfrBin
                0x0000000000025380       0xb3 /tmp/ccx0bwyx.ltrans3.ltrans.o
 *fill*         0x0000000000025433        0xd 
 .data.gEfiSerialIoProtocolGuid
                0x0000000000025440       0x10 /tmp/ccx0bwyx.ltrans3.ltrans.o
 *fill*         0x0000000000025450       0x10 
 .data.BootMaintenanceManagerUiLibStrings
                0x0000000000025460     0x1bbe /tmp/ccx0bwyx.ltrans3.ltrans.o
 *fill*         0x000000000002701e        0x2 
 .data.BootMaintenanceManagerBin
                0x0000000000027020      0x594 /tmp/ccx0bwyx.ltrans3.ltrans.o
 *fill*         0x00000000000275b4        0xc 
 .data.rel.ro.local.mConVarName
                0x00000000000275c0       0x30 /tmp/ccx0bwyx.ltrans4.ltrans.o
 .data.gEfiCallerIdGuid
                0x00000000000275f0       0x10 /tmp/ccx0bwyx.ltrans4.ltrans.o
                0x00000000000275f0                gEfiCallerIdGuid
 .data.gEfiRamDiskProtocolGuid
                0x0000000000027600       0x10 /tmp/ccx0bwyx.ltrans4.ltrans.o
 .data.gEfiIfrTianoGuid
                0x0000000000027610       0x10 /tmp/ccx0bwyx.ltrans5.ltrans.o
                0x0000000000027610                gEfiIfrTianoGuid
 .data.gEfiSimpleTextInProtocolGuid
                0x0000000000027620       0x10 /tmp/ccx0bwyx.ltrans6.ltrans.o
 .data.gEfiPersistentVirtualCdGuid
                0x0000000000027630       0x10 /tmp/ccx0bwyx.ltrans7.ltrans.o
 .data.gEfiPersistentVirtualDiskGuid
                0x0000000000027640       0x10 /tmp/ccx0bwyx.ltrans7.ltrans.o
 .data.gEfiVirtualCdGuid
                0x0000000000027650       0x10 /tmp/ccx0bwyx.ltrans7.ltrans.o
 .data.gEfiVirtualDiskGuid
                0x0000000000027660       0x10 /tmp/ccx0bwyx.ltrans7.ltrans.o
 *fill*         0x0000000000027670       0x10 
 .data.rel.ro.local.mUefiDevicePathLibToTextTableGeneric
                0x0000000000027680       0x60 /tmp/ccx0bwyx.ltrans7.ltrans.o
 .data.rel.ro.local.mUefiDevicePathLibToTextTable
                0x00000000000276e0      0x320 /tmp/ccx0bwyx.ltrans7.ltrans.o
 .data.gEfiHobListGuid
                0x0000000000027a00       0x10 /tmp/ccx0bwyx.ltrans7.ltrans.o
 .data.gEfiHiiConfigRoutingProtocolGuid
                0x0000000000027a10       0x10 /tmp/ccx0bwyx.ltrans8.ltrans.o
                0x0000000000027a10                gEfiHiiConfigRoutingProtocolGuid
 .data.mBmHardDriveBootVariableGuid
                0x0000000000027a20       0x10 /tmp/ccx0bwyx.ltrans9.ltrans.o
 .data.gEfiBlockIoProtocolGuid
                0x0000000000027a30       0x10 /tmp/ccx0bwyx.ltrans11.ltrans.o
                0x0000000000027a30                gEfiBlockIoProtocolGuid
 .data.rel.local.mPlatformBootDescriptionHandlers
                0x0000000000027a40       0x10 /tmp/ccx0bwyx.ltrans11.ltrans.o
 .data.mBmUefiPrefix
                0x0000000000027a50        0xc /tmp/ccx0bwyx.ltrans11.ltrans.o
 *fill*         0x0000000000027a5c        0x4 
 .data.rel.ro.local.mBmBootDescriptionHandlers
                0x0000000000027a60       0x30 /tmp/ccx0bwyx.ltrans11.ltrans.o
 .data.gEdkiiVariableLockProtocolGuid
                0x0000000000027a90       0x10 /tmp/ccx0bwyx.ltrans11.ltrans.o
 .data.gEfiDebugPortProtocolGuid
                0x0000000000027aa0       0x10 /tmp/ccx0bwyx.ltrans12.ltrans.o
 .data.gEfiSasDevicePathGuid
                0x0000000000027ab0       0x10 /tmp/ccx0bwyx.ltrans12.ltrans.o
 .data.gEfiUartDevicePathGuid
                0x0000000000027ac0       0x10 /tmp/ccx0bwyx.ltrans12.ltrans.o
 .data.gEfiVTUTF8Guid
                0x0000000000027ad0       0x10 /tmp/ccx0bwyx.ltrans12.ltrans.o
 .data.gEfiVT100PlusGuid
                0x0000000000027ae0       0x10 /tmp/ccx0bwyx.ltrans12.ltrans.o
 .data.gEfiVT100Guid
                0x0000000000027af0       0x10 /tmp/ccx0bwyx.ltrans12.ltrans.o
 .data.gEfiPcAnsiGuid
                0x0000000000027b00       0x10 /tmp/ccx0bwyx.ltrans12.ltrans.o
 *fill*         0x0000000000027b10       0x10 
 .data.mFsOptionMenu
                0x0000000000027b20       0x28 /tmp/ccx0bwyx.ltrans13.ltrans.o
 *fill*         0x0000000000027b48       0x18 
 .data.DriverOptionMenu
                0x0000000000027b60       0x20 /tmp/ccx0bwyx.ltrans13.ltrans.o
                0x0000000000027b60                DriverOptionMenu
 .data.BootOptionMenu
                0x0000000000027b80       0x20 /tmp/ccx0bwyx.ltrans13.ltrans.o
                0x0000000000027b80                BootOptionMenu
 .data.ConsoleErrMenu
                0x0000000000027ba0       0x20 /tmp/ccx0bwyx.ltrans13.ltrans.o
                0x0000000000027ba0                ConsoleErrMenu
 .data.ConsoleOutMenu
                0x0000000000027bc0       0x20 /tmp/ccx0bwyx.ltrans13.ltrans.o
                0x0000000000027bc0                ConsoleOutMenu
 .data.ConsoleInpMenu
                0x0000000000027be0       0x20 /tmp/ccx0bwyx.ltrans13.ltrans.o
                0x0000000000027be0                ConsoleInpMenu
 .data.gEfiDevicePathToTextProtocolGuid
                0x0000000000027c00       0x10 /tmp/ccx0bwyx.ltrans13.ltrans.o
                0x0000000000027c00                gEfiDevicePathToTextProtocolGuid
 .data.gEfiFileSystemVolumeLabelInfoIdGuid
                0x0000000000027c10       0x10 /tmp/ccx0bwyx.ltrans13.ltrans.o
 .data.gEfiSimpleFileSystemProtocolGuid
                0x0000000000027c20       0x10 /tmp/ccx0bwyx.ltrans13.ltrans.o
                0x0000000000027c20                gEfiSimpleFileSystemProtocolGuid
 .data.FileExplorerGuid
                0x0000000000027c30       0x10 /tmp/ccx0bwyx.ltrans13.ltrans.o
                0x0000000000027c30                FileExplorerGuid
 .data.rel.local.gFileExplorerPrivate
                0x0000000000027c40       0x58 /tmp/ccx0bwyx.ltrans13.ltrans.o
                0x0000000000027c40                gFileExplorerPrivate
 *fill*         0x0000000000027c98        0x8 
 .data.mBootMaintStorageName
                0x0000000000027ca0       0x10 /tmp/ccx0bwyx.ltrans13.ltrans.o
                0x0000000000027ca0                mBootMaintStorageName
 .data.mBootMaintGuid
                0x0000000000027cb0       0x10 /tmp/ccx0bwyx.ltrans13.ltrans.o
                0x0000000000027cb0                mBootMaintGuid
 .data.gEfiFormBrowser2ProtocolGuid
                0x0000000000027cc0       0x10 /tmp/ccx0bwyx.ltrans13.ltrans.o
                0x0000000000027cc0                gEfiFormBrowser2ProtocolGuid
 .data.mBmHotkeyLock
                0x0000000000027cd0       0x18 /tmp/ccx0bwyx.ltrans13.ltrans.o
                0x0000000000027cd0                mBmHotkeyLock
 *fill*         0x0000000000027ce8       0x18 
 .data.rel.ro.local.mBmLoadOptionName
                0x0000000000027d00       0x20 /tmp/ccx0bwyx.ltrans13.ltrans.o
                0x0000000000027d00                mBmLoadOptionName
 .data.gEfiGlobalVariableGuid
                0x0000000000027d20       0x10 /tmp/ccx0bwyx.ltrans13.ltrans.o
                0x0000000000027d20                gEfiGlobalVariableGuid
 *fill*         0x0000000000027d30       0x10 
 .data.rel.ro.local.mBmLoadOptionOrderName
                0x0000000000027d40       0x20 /tmp/ccx0bwyx.ltrans13.ltrans.o
                0x0000000000027d40                mBmLoadOptionOrderName
 .data.rel.local.mBmHotkeyList
                0x0000000000027d60       0x10 /tmp/ccx0bwyx.ltrans15.ltrans.o
                0x0000000000027d60                mBmHotkeyList
 *fill*         0x0000000000027d70       0x10 
 .data.mBmHotkeyBootOption
                0x0000000000027d80       0x58 /tmp/ccx0bwyx.ltrans15.ltrans.o
 *fill*         0x0000000000027dd8        0x8 
 .data.gEfiComponentNameProtocolGuid
                0x0000000000027de0       0x10 /tmp/ccx0bwyx.ltrans15.ltrans.o
 .data.gEfiComponentName2ProtocolGuid
                0x0000000000027df0       0x10 /tmp/ccx0bwyx.ltrans15.ltrans.o
 .data.gEfiDriverHealthProtocolGuid
                0x0000000000027e00       0x10 /tmp/ccx0bwyx.ltrans15.ltrans.o
 *fill*         0x0000000000027e10       0x10 
 .data.rel.ro.local.mBmHealthStatusText
                0x0000000000027e20       0x30 /tmp/ccx0bwyx.ltrans15.ltrans.o
 .data.mNewFolderQuestionId
                0x0000000000027e50        0x8 /tmp/ccx0bwyx.ltrans16.ltrans.o
 .data.mNewFileQuestionId
                0x0000000000027e58        0x8 /tmp/ccx0bwyx.ltrans16.ltrans.o
 .data.rel.local.gDeviceManagerPrivate
                0x0000000000027e60       0x38 /tmp/ccx0bwyx.ltrans17.ltrans.o
                0x0000000000027e60                gDeviceManagerPrivate
 *fill*         0x0000000000027e98        0x8 
 .data.mBootManagerGuid
                0x0000000000027ea0       0x10 /tmp/ccx0bwyx.ltrans17.ltrans.o
                0x0000000000027ea0                mBootManagerGuid
 *fill*         0x0000000000027eb0       0x10 
 .data.rel.ro.local.mDeviceTypeStr
                0x0000000000027ec0       0x40 /tmp/ccx0bwyx.ltrans17.ltrans.o
 .data.rel.local.gBootManagerPrivate
                0x0000000000027f00       0x30 /tmp/ccx0bwyx.ltrans17.ltrans.o
                0x0000000000027f00                gBootManagerPrivate
 *fill*         0x0000000000027f30       0x10 
 .data.rel.local.gBootMaintenancePrivate
                0x0000000000027f40     0x1c60 /tmp/ccx0bwyx.ltrans18.ltrans.o
                0x0000000000027f40                gBootMaintenancePrivate
 .data.gEfiDevicePathProtocolGuid
                0x0000000000029ba0       0x10 /tmp/ccx0bwyx.ltrans18.ltrans.o
                0x0000000000029ba0                gEfiDevicePathProtocolGuid
 .data._gPcd_BinaryPatch_PcdSetupConOutRow
                0x0000000000029bb0        0x4 /tmp/ccx0bwyx.ltrans18.ltrans.o
                0x0000000000029bb0                _gPcd_BinaryPatch_PcdSetupConOutRow
 .data._gPcd_BinaryPatch_PcdSetupConOutColumn
                0x0000000000029bb4        0x4 /tmp/ccx0bwyx.ltrans18.ltrans.o
                0x0000000000029bb4                _gPcd_BinaryPatch_PcdSetupConOutColumn
 *fill*         0x0000000000029bb8        0x8 
 .data.TerminalTypeGuid
                0x0000000000029bc0       0x90 /tmp/ccx0bwyx.ltrans18.ltrans.o
                0x0000000000029bc0                TerminalTypeGuid
 *fill*         0x0000000000029c50       0x10 
 .data.TerminalMenu
                0x0000000000029c60       0x20 /tmp/ccx0bwyx.ltrans18.ltrans.o
                0x0000000000029c60                TerminalMenu
 .data.gEdkiiFormBrowserEx2ProtocolGuid
                0x0000000000029c80       0x10 /tmp/ccx0bwyx.ltrans19.ltrans.o
                0x0000000000029c80                gEdkiiFormBrowserEx2ProtocolGuid
 .data.gEfiDiskInfoSdMmcInterfaceGuid
                0x0000000000029c90       0x10 /tmp/ccx0bwyx.ltrans21.ltrans.o
 .data.gEfiDiskInfoScsiInterfaceGuid
                0x0000000000029ca0       0x10 /tmp/ccx0bwyx.ltrans21.ltrans.o
 .data.gEfiDiskInfoIdeInterfaceGuid
                0x0000000000029cb0       0x10 /tmp/ccx0bwyx.ltrans21.ltrans.o
 .data.gEfiDiskInfoAhciInterfaceGuid
                0x0000000000029cc0       0x10 /tmp/ccx0bwyx.ltrans21.ltrans.o
 .data.gEfiDiskInfoProtocolGuid
                0x0000000000029cd0       0x10 /tmp/ccx0bwyx.ltrans21.ltrans.o
 .data.gEfiUsbIoProtocolGuid
                0x0000000000029ce0       0x10 /tmp/ccx0bwyx.ltrans21.ltrans.o
                0x0000000000029ce0                gEfiUsbIoProtocolGuid
 .data.gEfiLoadFileProtocolGuid
                0x0000000000029cf0       0x10 /tmp/ccx0bwyx.ltrans21.ltrans.o
                0x0000000000029cf0                gEfiLoadFileProtocolGuid
 .data.gEfiNvmExpressPassThruProtocolGuid
                0x0000000000029d00       0x10 /tmp/ccx0bwyx.ltrans21.ltrans.o
 .data.gEfiPciIoProtocolGuid
                0x0000000000029d10       0x10 /tmp/ccx0bwyx.ltrans23.ltrans.o
                0x0000000000029d10                gEfiPciIoProtocolGuid
 .data.mDeviceManagerGuid
                0x0000000000029d20       0x10 /tmp/ccx0bwyx.ltrans23.ltrans.o
                0x0000000000029d20                mDeviceManagerGuid
 .data.gEfiHiiPlatformSetupFormsetGuid
                0x0000000000029d30       0x10 /tmp/ccx0bwyx.ltrans23.ltrans.o
 .data._gPcd_BinaryPatch_PcdVideoVerticalResolution
                0x0000000000029d40        0x4 /tmp/ccx0bwyx.ltrans24.ltrans.o
                0x0000000000029d40                _gPcd_BinaryPatch_PcdVideoVerticalResolution
 .data._gPcd_BinaryPatch_PcdVideoHorizontalResolution
                0x0000000000029d44        0x4 /tmp/ccx0bwyx.ltrans24.ltrans.o
                0x0000000000029d44                _gPcd_BinaryPatch_PcdVideoHorizontalResolution
 .data._gPcd_BinaryPatch_PcdConOutRow
                0x0000000000029d48        0x4 /tmp/ccx0bwyx.ltrans24.ltrans.o
                0x0000000000029d48                _gPcd_BinaryPatch_PcdConOutRow
 .data._gPcd_BinaryPatch_PcdConOutColumn
                0x0000000000029d4c        0x4 /tmp/ccx0bwyx.ltrans24.ltrans.o
                0x0000000000029d4c                _gPcd_BinaryPatch_PcdConOutColumn
 .data.gEfiSimpleTextOutProtocolGuid
                0x0000000000029d50       0x10 /tmp/ccx0bwyx.ltrans24.ltrans.o
                0x0000000000029d50                gEfiSimpleTextOutProtocolGuid
 .data.gEfiGraphicsOutputProtocolGuid
                0x0000000000029d60       0x10 /tmp/ccx0bwyx.ltrans24.ltrans.o
                0x0000000000029d60                gEfiGraphicsOutputProtocolGuid
 .data.gEdkiiPlatformBootManagerProtocolGuid
                0x0000000000029d70       0x10 /tmp/ccx0bwyx.ltrans25.ltrans.o
 .data.mBmAutoCreateBootOptionGuid
                0x0000000000029d80       0x10 /tmp/ccx0bwyx.ltrans25.ltrans.o
                0x0000000000029d80                mBmAutoCreateBootOptionGuid
 .data.rel.ro   0x0000000000029d90        0x0 FrontPageVfr.obj (symbol from plugin)
 *(.bss .bss.*)
 .bss.mAllMenuInit
                0x0000000000029d90        0x1 /tmp/ccx0bwyx.ltrans0.ltrans.o
                0x0000000000029d90                mAllMenuInit
 *fill*         0x0000000000029d91        0x7 
 .bss.mBPHiiHandle
                0x0000000000029d98        0x8 /tmp/ccx0bwyx.ltrans0.ltrans.o
                0x0000000000029d98                mBPHiiHandle
 .bss.mBPDriverHandle
                0x0000000000029da0        0x8 /tmp/ccx0bwyx.ltrans0.ltrans.o
                0x0000000000029da0                mBPDriverHandle
 .bss.gHiiVendorDevicePath
                0x0000000000029da8        0x8 /tmp/ccx0bwyx.ltrans0.ltrans.o
                0x0000000000029da8                gHiiVendorDevicePath
 .bss.mExitBootServicesEvent.lto_priv.91
                0x0000000000029db0        0x8 /tmp/ccx0bwyx.ltrans0.ltrans.o
                0x0000000000029db0                mExitBootServicesEvent.lto_priv.91
 .bss.gImageHandle
                0x0000000000029db8        0x8 /tmp/ccx0bwyx.ltrans0.ltrans.o
                0x0000000000029db8                gImageHandle
 .bss.mResetRequired
                0x0000000000029dc0        0x1 /tmp/ccx0bwyx.ltrans0.ltrans.o
 .bss.gCurrentLanguageIndex
                0x0000000000029dc1        0x1 /tmp/ccx0bwyx.ltrans0.ltrans.o
                0x0000000000029dc1                gCurrentLanguageIndex
 *fill*         0x0000000000029dc2        0x6 
 .bss.gLanguageToken
                0x0000000000029dc8        0x8 /tmp/ccx0bwyx.ltrans0.ltrans.o
 .bss.gLanguageString
                0x0000000000029dd0        0x8 /tmp/ccx0bwyx.ltrans0.ltrans.o
                0x0000000000029dd0                gLanguageString
 .bss.gHiiDriverList
                0x0000000000029dd8        0x8 /tmp/ccx0bwyx.ltrans0.ltrans.o
 .bss.gFormBrowser2
                0x0000000000029de0        0x8 /tmp/ccx0bwyx.ltrans0.ltrans.o
 .bss.mLanguageString
                0x0000000000029de8        0x8 /tmp/ccx0bwyx.ltrans0.ltrans.o
 .bss.gStringPackHandle
                0x0000000000029df0        0x8 /tmp/ccx0bwyx.ltrans0.ltrans.o
                0x0000000000029df0                gStringPackHandle
 .bss.mSetupTextModeRow
                0x0000000000029df8        0x4 /tmp/ccx0bwyx.ltrans0.ltrans.o
                0x0000000000029df8                mSetupTextModeRow
 .bss.mSetupTextModeColumn
                0x0000000000029dfc        0x4 /tmp/ccx0bwyx.ltrans0.ltrans.o
                0x0000000000029dfc                mSetupTextModeColumn
 .bss.mSetupVerticalResolution
                0x0000000000029e00        0x4 /tmp/ccx0bwyx.ltrans0.ltrans.o
                0x0000000000029e00                mSetupVerticalResolution
 .bss.mSetupHorizontalResolution
                0x0000000000029e04        0x4 /tmp/ccx0bwyx.ltrans0.ltrans.o
                0x0000000000029e04                mSetupHorizontalResolution
 .bss.mBootTextModeRow
                0x0000000000029e08        0x4 /tmp/ccx0bwyx.ltrans0.ltrans.o
                0x0000000000029e08                mBootTextModeRow
 .bss.mBootTextModeColumn
                0x0000000000029e0c        0x4 /tmp/ccx0bwyx.ltrans0.ltrans.o
                0x0000000000029e0c                mBootTextModeColumn
 .bss.mBootVerticalResolution
                0x0000000000029e10        0x4 /tmp/ccx0bwyx.ltrans0.ltrans.o
                0x0000000000029e10                mBootVerticalResolution
 .bss.mBootHorizontalResolution
                0x0000000000029e14        0x4 /tmp/ccx0bwyx.ltrans0.ltrans.o
                0x0000000000029e14                mBootHorizontalResolution
 .bss.mModeInitialized
                0x0000000000029e18        0x1 /tmp/ccx0bwyx.ltrans0.ltrans.o
 *fill*         0x0000000000029e19        0x7 
 .bss.gHiiConfigRouting
                0x0000000000029e20        0x8 /tmp/ccx0bwyx.ltrans1.ltrans.o
                0x0000000000029e20                gHiiConfigRouting
 .bss.gHiiDriverList
                0x0000000000029e28        0x8 /tmp/ccx0bwyx.ltrans1.ltrans.o
 .bss.mFirstEnterBMMForm
                0x0000000000029e30        0x1 /tmp/ccx0bwyx.ltrans1.ltrans.o
 *fill*         0x0000000000029e31        0x7 
 .bss.gHiiImage
                0x0000000000029e38        0x8 /tmp/ccx0bwyx.ltrans3.ltrans.o
 .bss.gHiiFont  0x0000000000029e40        0x8 /tmp/ccx0bwyx.ltrans3.ltrans.o
 .bss.mBmModeInitialized
                0x0000000000029e48        0x1 /tmp/ccx0bwyx.ltrans3.ltrans.o
 .bss.mBmmModeInitialized
                0x0000000000029e49        0x1 /tmp/ccx0bwyx.ltrans3.ltrans.o
 *fill*         0x0000000000029e4a        0x6 
 .bss.mRamDisk  0x0000000000029e50        0x8 /tmp/ccx0bwyx.ltrans4.ltrans.o
 .bss.gHiiDatabase
                0x0000000000029e58        0x8 /tmp/ccx0bwyx.ltrans5.ltrans.o
                0x0000000000029e58                gHiiDatabase
 .bss.gHiiString
                0x0000000000029e60        0x8 /tmp/ccx0bwyx.ltrans5.ltrans.o
                0x0000000000029e60                gHiiString
 .bss.gST       0x0000000000029e68        0x8 /tmp/ccx0bwyx.ltrans5.ltrans.o
                0x0000000000029e68                gST
 .bss.gBS       0x0000000000029e70        0x8 /tmp/ccx0bwyx.ltrans5.ltrans.o
                0x0000000000029e70                gBS
 .bss.mDebugST  0x0000000000029e78        0x8 /tmp/ccx0bwyx.ltrans5.ltrans.o
                0x0000000000029e78                mDebugST
 .bss.mPostEBS  0x0000000000029e80        0x1 /tmp/ccx0bwyx.ltrans5.ltrans.o
                0x0000000000029e80                mPostEBS
 *fill*         0x0000000000029e81        0x7 
 .bss.gDS       0x0000000000029e88        0x8 /tmp/ccx0bwyx.ltrans6.ltrans.o
                0x0000000000029e88                gDS
 .bss.mHobList  0x0000000000029e90        0x8 /tmp/ccx0bwyx.ltrans7.ltrans.o
 .bss.mQuestionIdUpdate
                0x0000000000029e98        0x2 /tmp/ccx0bwyx.ltrans13.ltrans.o
                0x0000000000029e98                mQuestionIdUpdate
 *fill*         0x0000000000029e9a        0x6 
 .bss.mUefiFormBrowser2
                0x0000000000029ea0        0x8 /tmp/ccx0bwyx.ltrans13.ltrans.o
 .bss.gRT       0x0000000000029ea8        0x8 /tmp/ccx0bwyx.ltrans13.ltrans.o
                0x0000000000029ea8                gRT
 *fill*         0x0000000000029eb0       0x10 
 .bss.mNewFolderName
                0x0000000000029ec0       0x28 /tmp/ccx0bwyx.ltrans16.ltrans.o
 *fill*         0x0000000000029ee8       0x18 
 .bss.mNewFileName
                0x0000000000029f00       0x28 /tmp/ccx0bwyx.ltrans16.ltrans.o
 .bss.mLibEndOpCodeHandle
                0x0000000000029f28        0x8 /tmp/ccx0bwyx.ltrans16.ltrans.o
 .bss.mLibStartOpCodeHandle
                0x0000000000029f30        0x8 /tmp/ccx0bwyx.ltrans16.ltrans.o
 .bss.mSelectedMacAddrString
                0x0000000000029f38        0x8 /tmp/ccx0bwyx.ltrans17.ltrans.o
                0x0000000000029f38                mSelectedMacAddrString
 .bss.mMacDeviceList
                0x0000000000029f40       0x18 /tmp/ccx0bwyx.ltrans17.ltrans.o
                0x0000000000029f40                mMacDeviceList
 .bss.mBmBootTextModeRow
                0x0000000000029f58        0x4 /tmp/ccx0bwyx.ltrans17.ltrans.o
                0x0000000000029f58                mBmBootTextModeRow
 .bss.mBmBootTextModeColumn
                0x0000000000029f5c        0x4 /tmp/ccx0bwyx.ltrans17.ltrans.o
                0x0000000000029f5c                mBmBootTextModeColumn
 .bss.mBmBootVerticalResolution
                0x0000000000029f60        0x4 /tmp/ccx0bwyx.ltrans17.ltrans.o
                0x0000000000029f60                mBmBootVerticalResolution
 .bss.mBmBootHorizontalResolution
                0x0000000000029f64        0x4 /tmp/ccx0bwyx.ltrans17.ltrans.o
                0x0000000000029f64                mBmBootHorizontalResolution
 .bss.mBmSetupTextModeRow
                0x0000000000029f68        0x4 /tmp/ccx0bwyx.ltrans17.ltrans.o
                0x0000000000029f68                mBmSetupTextModeRow
 .bss.mBmSetupTextModeColumn
                0x0000000000029f6c        0x4 /tmp/ccx0bwyx.ltrans17.ltrans.o
                0x0000000000029f6c                mBmSetupTextModeColumn
 .bss.mBmSetupVerticalResolution
                0x0000000000029f70        0x4 /tmp/ccx0bwyx.ltrans17.ltrans.o
                0x0000000000029f70                mBmSetupVerticalResolution
 .bss.mBmSetupHorizontalResolution
                0x0000000000029f74        0x4 /tmp/ccx0bwyx.ltrans17.ltrans.o
                0x0000000000029f74                mBmSetupHorizontalResolution
 .bss.mKeyInput
                0x0000000000029f78        0x2 /tmp/ccx0bwyx.ltrans17.ltrans.o
 *fill*         0x0000000000029f7a        0x6 
 .bss.mEndOpCodeHandle
                0x0000000000029f80        0x8 /tmp/ccx0bwyx.ltrans18.ltrans.o
                0x0000000000029f80                mEndOpCodeHandle
 .bss.mStartLabel
                0x0000000000029f88        0x8 /tmp/ccx0bwyx.ltrans18.ltrans.o
                0x0000000000029f88                mStartLabel
 .bss.mStartOpCodeHandle
                0x0000000000029f90        0x8 /tmp/ccx0bwyx.ltrans18.ltrans.o
                0x0000000000029f90                mStartOpCodeHandle
 .bss.mBmmBootTextModeRow
                0x0000000000029f98        0x4 /tmp/ccx0bwyx.ltrans24.ltrans.o
                0x0000000000029f98                mBmmBootTextModeRow
 .bss.mBmmBootTextModeColumn
                0x0000000000029f9c        0x4 /tmp/ccx0bwyx.ltrans24.ltrans.o
                0x0000000000029f9c                mBmmBootTextModeColumn
 .bss.mBmmBootVerticalResolution
                0x0000000000029fa0        0x4 /tmp/ccx0bwyx.ltrans24.ltrans.o
                0x0000000000029fa0                mBmmBootVerticalResolution
 .bss.mBmmBootHorizontalResolution
                0x0000000000029fa4        0x4 /tmp/ccx0bwyx.ltrans24.ltrans.o
                0x0000000000029fa4                mBmmBootHorizontalResolution
 .bss.mBmmSetupTextModeRow
                0x0000000000029fa8        0x4 /tmp/ccx0bwyx.ltrans24.ltrans.o
                0x0000000000029fa8                mBmmSetupTextModeRow
 .bss.mBmmSetupTextModeColumn
                0x0000000000029fac        0x4 /tmp/ccx0bwyx.ltrans24.ltrans.o
                0x0000000000029fac                mBmmSetupTextModeColumn
 .bss.mBmmSetupVerticalResolution
                0x0000000000029fb0        0x4 /tmp/ccx0bwyx.ltrans24.ltrans.o
                0x0000000000029fb0                mBmmSetupVerticalResolution
 .bss.mBmmSetupHorizontalResolution
                0x0000000000029fb4        0x4 /tmp/ccx0bwyx.ltrans24.ltrans.o
                0x0000000000029fb4                mBmmSetupHorizontalResolution

.eh_frame       0x0000000000029fc0        0x0
 *(.eh_frame)
 .eh_frame      0x0000000000029fc0        0x0 FrontPageVfr.obj (symbol from plugin)
 .eh_frame      0x0000000000029fc0        0x0 FrontPageVfr.obj (symbol from plugin)

.dynbss         0x0000000000029fc0        0x0
 .dynbss        0x0000000000029fc0        0x0 FrontPageVfr.obj (symbol from plugin)

.gnu.version_d  0x0000000000029fc0        0x0
 .gnu.version_d
                0x0000000000029fc0        0x0 FrontPageVfr.obj (symbol from plugin)

.gnu.version    0x0000000000029fc0        0x0
 .gnu.version   0x0000000000029fc0        0x0 FrontPageVfr.obj (symbol from plugin)

.gnu.version_r  0x0000000000029fc0        0x0
 .gnu.version_r
                0x0000000000029fc0        0x0 FrontPageVfr.obj (symbol from plugin)

.rela           0x0000000000029fc0      0xa08
 *(.rela .rela.*)
 .rela.plt      0x0000000000029fc0        0x0 FrontPageVfr.obj (symbol from plugin)
 .rela.got      0x0000000000029fc0        0x0 FrontPageVfr.obj (symbol from plugin)
 .rela.bss      0x0000000000029fc0        0x0 FrontPageVfr.obj (symbol from plugin)
 .rela.data.rel.ro
                0x0000000000029fc0        0x0 FrontPageVfr.obj (symbol from plugin)
 .rela.ifunc    0x0000000000029fc0        0x0 FrontPageVfr.obj (symbol from plugin)
 .rela.data.rel.local.gFrontPagePrivate
                0x0000000000029fc0       0x48 FrontPageVfr.obj (symbol from plugin)
 .rela.data.rel.ro.local.mConVarName
                0x000000000002a008       0x90 FrontPageVfr.obj (symbol from plugin)
 .rela.data.rel.ro.local.mUefiDevicePathLibToTextTableGeneric
                0x000000000002a098       0x78 FrontPageVfr.obj (symbol from plugin)
 .rela.data.rel.ro.local.mUefiDevicePathLibToTextTable
                0x000000000002a110      0x498 FrontPageVfr.obj (symbol from plugin)
 .rela.data.rel.local.mPlatformBootDescriptionHandlers
                0x000000000002a5a8       0x30 FrontPageVfr.obj (symbol from plugin)
 .rela.data.rel.ro.local.mBmBootDescriptionHandlers
                0x000000000002a5d8       0x90 FrontPageVfr.obj (symbol from plugin)
 .rela.data.rel.local.gFileExplorerPrivate
                0x000000000002a668       0x60 FrontPageVfr.obj (symbol from plugin)
 .rela.data.rel.ro.local.mBmLoadOptionName
                0x000000000002a6c8       0x60 FrontPageVfr.obj (symbol from plugin)
 .rela.data.rel.ro.local.mBmLoadOptionOrderName
                0x000000000002a728       0x48 FrontPageVfr.obj (symbol from plugin)
 .rela.data.rel.local.mBmHotkeyList
                0x000000000002a770       0x30 FrontPageVfr.obj (symbol from plugin)
 .rela.data.rel.ro.local.mBmHealthStatusText
                0x000000000002a7a0       0x90 FrontPageVfr.obj (symbol from plugin)
 .rela.data.rel.local.gDeviceManagerPrivate
                0x000000000002a830       0x48 FrontPageVfr.obj (symbol from plugin)
 .rela.data.rel.ro.local.mDeviceTypeStr
                0x000000000002a878       0xc0 FrontPageVfr.obj (symbol from plugin)
 .rela.data.rel.local.gBootManagerPrivate
                0x000000000002a938       0x48 FrontPageVfr.obj (symbol from plugin)
 .rela.data.rel.local.gBootMaintenancePrivate
                0x000000000002a980       0x48 FrontPageVfr.obj (symbol from plugin)

.hii
 *(.hii)

.build-id       0x000000000002a9c8       0x24
 *(.note.gnu.build-id)
 .note.gnu.build-id
                0x000000000002a9c8       0x24 FrontPageVfr.obj (symbol from plugin)

/DISCARD/
 *(.note.GNU-stack)
 *(.gnu_debuglink)
 *(.interp)
 *(.dynsym)
 *(.dynstr)
 *(.dynamic)
 *(.hash .gnu.hash)
 *(.comment)
OUTPUT(/home/hcj/UEFIWorkspace/Build/MdeModule/DEBUG_GCC5/X64/MdeModulePkg/Application/UiApp/UiApp/DEBUG/UiApp.dll elf64-x86-64)

.debug_info     0x0000000000000000    0x4c78f
 .debug_info    0x0000000000000000     0x5bf2 /tmp/ccx0bwyx.ltrans0.ltrans.o
 .debug_info    0x0000000000005bf2     0x48b4 /tmp/ccx0bwyx.ltrans1.ltrans.o
 .debug_info    0x000000000000a4a6     0x501f /tmp/ccx0bwyx.ltrans2.ltrans.o
 .debug_info    0x000000000000f4c5     0x55d8 /tmp/ccx0bwyx.ltrans3.ltrans.o
 .debug_info    0x0000000000014a9d     0x34ab /tmp/ccx0bwyx.ltrans4.ltrans.o
 .debug_info    0x0000000000017f48     0x3b5d /tmp/ccx0bwyx.ltrans5.ltrans.o
 .debug_info    0x000000000001baa5     0x31c2 /tmp/ccx0bwyx.ltrans6.ltrans.o
 .debug_info    0x000000000001ec67     0x3b4f /tmp/ccx0bwyx.ltrans7.ltrans.o
 .debug_info    0x00000000000227b6     0x2dc8 /tmp/ccx0bwyx.ltrans8.ltrans.o
 .debug_info    0x000000000002557e     0x2501 /tmp/ccx0bwyx.ltrans9.ltrans.o
 .debug_info    0x0000000000027a7f     0x164f /tmp/ccx0bwyx.ltrans10.ltrans.o
 .debug_info    0x00000000000290ce     0x2677 /tmp/ccx0bwyx.ltrans11.ltrans.o
 .debug_info    0x000000000002b745     0x2739 /tmp/ccx0bwyx.ltrans12.ltrans.o
 .debug_info    0x000000000002de7e     0x3a23 /tmp/ccx0bwyx.ltrans13.ltrans.o
 .debug_info    0x00000000000318a1     0x2afd /tmp/ccx0bwyx.ltrans14.ltrans.o
 .debug_info    0x000000000003439e     0x1de3 /tmp/ccx0bwyx.ltrans15.ltrans.o
 .debug_info    0x0000000000036181     0x2197 /tmp/ccx0bwyx.ltrans16.ltrans.o
 .debug_info    0x0000000000038318     0x2690 /tmp/ccx0bwyx.ltrans17.ltrans.o
 .debug_info    0x000000000003a9a8     0x2e85 /tmp/ccx0bwyx.ltrans18.ltrans.o
 .debug_info    0x000000000003d82d     0x29a2 /tmp/ccx0bwyx.ltrans19.ltrans.o
 .debug_info    0x00000000000401cf     0x150a /tmp/ccx0bwyx.ltrans20.ltrans.o
 .debug_info    0x00000000000416d9     0x33ee /tmp/ccx0bwyx.ltrans21.ltrans.o
 .debug_info    0x0000000000044ac7      0xa13 /tmp/ccx0bwyx.ltrans22.ltrans.o
 .debug_info    0x00000000000454da     0x10a8 /tmp/ccx0bwyx.ltrans23.ltrans.o
 .debug_info    0x0000000000046582     0x2287 /tmp/ccx0bwyx.ltrans24.ltrans.o
 .debug_info    0x0000000000048809     0x108b /tmp/ccx0bwyx.ltrans25.ltrans.o
 .debug_info    0x0000000000049894     0x1514 /tmp/ccx0bwyx.ltrans26.ltrans.o
 .debug_info    0x000000000004ada8     0x113c /tmp/ccx0bwyx.ltrans27.ltrans.o
 .debug_info    0x000000000004bee4      0x3cc /tmp/ccx0bwyx.ltrans28.ltrans.o
 .debug_info    0x000000000004c2b0      0x148 /tmp/ccx0bwyx.ltrans29.ltrans.o
 .debug_info    0x000000000004c3f8      0x23b /tmp/ccx0bwyx.ltrans30.ltrans.o
 .debug_info    0x000000000004c633      0x15c /tmp/ccx0bwyx.ltrans31.ltrans.o

.debug_abbrev   0x0000000000000000     0x5eb0
 .debug_abbrev  0x0000000000000000      0x3fe /tmp/ccx0bwyx.ltrans0.ltrans.o
 .debug_abbrev  0x00000000000003fe      0x31e /tmp/ccx0bwyx.ltrans1.ltrans.o
 .debug_abbrev  0x000000000000071c      0x386 /tmp/ccx0bwyx.ltrans2.ltrans.o
 .debug_abbrev  0x0000000000000aa2      0x354 /tmp/ccx0bwyx.ltrans3.ltrans.o
 .debug_abbrev  0x0000000000000df6      0x3d7 /tmp/ccx0bwyx.ltrans4.ltrans.o
 .debug_abbrev  0x00000000000011cd      0x390 /tmp/ccx0bwyx.ltrans5.ltrans.o
 .debug_abbrev  0x000000000000155d      0x428 /tmp/ccx0bwyx.ltrans6.ltrans.o
 .debug_abbrev  0x0000000000001985      0x409 /tmp/ccx0bwyx.ltrans7.ltrans.o
 .debug_abbrev  0x0000000000001d8e      0x2e5 /tmp/ccx0bwyx.ltrans8.ltrans.o
 .debug_abbrev  0x0000000000002073      0x25f /tmp/ccx0bwyx.ltrans9.ltrans.o
 .debug_abbrev  0x00000000000022d2      0x2ae /tmp/ccx0bwyx.ltrans10.ltrans.o
 .debug_abbrev  0x0000000000002580      0x38d /tmp/ccx0bwyx.ltrans11.ltrans.o
 .debug_abbrev  0x000000000000290d      0x425 /tmp/ccx0bwyx.ltrans12.ltrans.o
 .debug_abbrev  0x0000000000002d32      0x401 /tmp/ccx0bwyx.ltrans13.ltrans.o
 .debug_abbrev  0x0000000000003133      0x267 /tmp/ccx0bwyx.ltrans14.ltrans.o
 .debug_abbrev  0x000000000000339a      0x344 /tmp/ccx0bwyx.ltrans15.ltrans.o
 .debug_abbrev  0x00000000000036de      0x3b1 /tmp/ccx0bwyx.ltrans16.ltrans.o
 .debug_abbrev  0x0000000000003a8f      0x333 /tmp/ccx0bwyx.ltrans17.ltrans.o
 .debug_abbrev  0x0000000000003dc2      0x400 /tmp/ccx0bwyx.ltrans18.ltrans.o
 .debug_abbrev  0x00000000000041c2      0x41b /tmp/ccx0bwyx.ltrans19.ltrans.o
 .debug_abbrev  0x00000000000045dd      0x2f9 /tmp/ccx0bwyx.ltrans20.ltrans.o
 .debug_abbrev  0x00000000000048d6      0x392 /tmp/ccx0bwyx.ltrans21.ltrans.o
 .debug_abbrev  0x0000000000004c68      0x13d /tmp/ccx0bwyx.ltrans22.ltrans.o
 .debug_abbrev  0x0000000000004da5      0x234 /tmp/ccx0bwyx.ltrans23.ltrans.o
 .debug_abbrev  0x0000000000004fd9      0x305 /tmp/ccx0bwyx.ltrans24.ltrans.o
 .debug_abbrev  0x00000000000052de      0x223 /tmp/ccx0bwyx.ltrans25.ltrans.o
 .debug_abbrev  0x0000000000005501      0x3a1 /tmp/ccx0bwyx.ltrans26.ltrans.o
 .debug_abbrev  0x00000000000058a2      0x1f8 /tmp/ccx0bwyx.ltrans27.ltrans.o
 .debug_abbrev  0x0000000000005a9a      0x19a /tmp/ccx0bwyx.ltrans28.ltrans.o
 .debug_abbrev  0x0000000000005c34       0x90 /tmp/ccx0bwyx.ltrans29.ltrans.o
 .debug_abbrev  0x0000000000005cc4      0x126 /tmp/ccx0bwyx.ltrans30.ltrans.o
 .debug_abbrev  0x0000000000005dea       0xc6 /tmp/ccx0bwyx.ltrans31.ltrans.o

.debug_loc      0x0000000000000000    0x284e7
 .debug_loc     0x0000000000000000     0x11e3 /tmp/ccx0bwyx.ltrans0.ltrans.o
 .debug_loc     0x00000000000011e3     0x21fb /tmp/ccx0bwyx.ltrans1.ltrans.o
 .debug_loc     0x00000000000033de     0x1649 /tmp/ccx0bwyx.ltrans2.ltrans.o
 .debug_loc     0x0000000000004a27     0x1461 /tmp/ccx0bwyx.ltrans3.ltrans.o
 .debug_loc     0x0000000000005e88     0x1217 /tmp/ccx0bwyx.ltrans4.ltrans.o
 .debug_loc     0x000000000000709f     0x16c3 /tmp/ccx0bwyx.ltrans5.ltrans.o
 .debug_loc     0x0000000000008762     0x1e1c /tmp/ccx0bwyx.ltrans6.ltrans.o
 .debug_loc     0x000000000000a57e     0x25d6 /tmp/ccx0bwyx.ltrans7.ltrans.o
 .debug_loc     0x000000000000cb54     0x135c /tmp/ccx0bwyx.ltrans8.ltrans.o
 .debug_loc     0x000000000000deb0     0x1318 /tmp/ccx0bwyx.ltrans9.ltrans.o
 .debug_loc     0x000000000000f1c8     0x189b /tmp/ccx0bwyx.ltrans10.ltrans.o
 .debug_loc     0x0000000000010a63     0x1bd1 /tmp/ccx0bwyx.ltrans11.ltrans.o
 .debug_loc     0x0000000000012634     0x2364 /tmp/ccx0bwyx.ltrans12.ltrans.o
 .debug_loc     0x0000000000014998     0x1874 /tmp/ccx0bwyx.ltrans13.ltrans.o
 .debug_loc     0x000000000001620c     0x338a /tmp/ccx0bwyx.ltrans14.ltrans.o
 .debug_loc     0x0000000000019596     0x129d /tmp/ccx0bwyx.ltrans15.ltrans.o
 .debug_loc     0x000000000001a833     0x1b13 /tmp/ccx0bwyx.ltrans16.ltrans.o
 .debug_loc     0x000000000001c346     0x111d /tmp/ccx0bwyx.ltrans17.ltrans.o
 .debug_loc     0x000000000001d463     0x1b9d /tmp/ccx0bwyx.ltrans18.ltrans.o
 .debug_loc     0x000000000001f000     0x164e /tmp/ccx0bwyx.ltrans19.ltrans.o
 .debug_loc     0x000000000002064e     0x212b /tmp/ccx0bwyx.ltrans20.ltrans.o
 .debug_loc     0x0000000000022779      0xae3 /tmp/ccx0bwyx.ltrans21.ltrans.o
 .debug_loc     0x000000000002325c     0x16ab /tmp/ccx0bwyx.ltrans22.ltrans.o
 .debug_loc     0x0000000000024907      0xd06 /tmp/ccx0bwyx.ltrans23.ltrans.o
 .debug_loc     0x000000000002560d      0xf46 /tmp/ccx0bwyx.ltrans24.ltrans.o
 .debug_loc     0x0000000000026553      0x728 /tmp/ccx0bwyx.ltrans25.ltrans.o
 .debug_loc     0x0000000000026c7b     0x10b8 /tmp/ccx0bwyx.ltrans26.ltrans.o
 .debug_loc     0x0000000000027d33      0x216 /tmp/ccx0bwyx.ltrans27.ltrans.o
 .debug_loc     0x0000000000027f49       0x90 /tmp/ccx0bwyx.ltrans28.ltrans.o
 .debug_loc     0x0000000000027fd9      0x361 /tmp/ccx0bwyx.ltrans29.ltrans.o
 .debug_loc     0x000000000002833a       0xb6 /tmp/ccx0bwyx.ltrans30.ltrans.o
 .debug_loc     0x00000000000283f0       0xf7 /tmp/ccx0bwyx.ltrans31.ltrans.o

.debug_aranges  0x0000000000000000     0x15f0
 .debug_aranges
                0x0000000000000000       0x30 /tmp/ccx0bwyx.ltrans0.ltrans.o
 .debug_aranges
                0x0000000000000030       0x30 /tmp/ccx0bwyx.ltrans1.ltrans.o
 .debug_aranges
                0x0000000000000060       0x30 /tmp/ccx0bwyx.ltrans2.ltrans.o
 .debug_aranges
                0x0000000000000090       0x30 /tmp/ccx0bwyx.ltrans3.ltrans.o
 .debug_aranges
                0x00000000000000c0       0xa0 /tmp/ccx0bwyx.ltrans4.ltrans.o
 .debug_aranges
                0x0000000000000160      0x100 /tmp/ccx0bwyx.ltrans5.ltrans.o
 .debug_aranges
                0x0000000000000260      0x140 /tmp/ccx0bwyx.ltrans6.ltrans.o
 .debug_aranges
                0x00000000000003a0      0x1d0 /tmp/ccx0bwyx.ltrans7.ltrans.o
 .debug_aranges
                0x0000000000000570       0x30 /tmp/ccx0bwyx.ltrans8.ltrans.o
 .debug_aranges
                0x00000000000005a0       0x30 /tmp/ccx0bwyx.ltrans9.ltrans.o
 .debug_aranges
                0x00000000000005d0      0x180 /tmp/ccx0bwyx.ltrans10.ltrans.o
 .debug_aranges
                0x0000000000000750       0xe0 /tmp/ccx0bwyx.ltrans11.ltrans.o
 .debug_aranges
                0x0000000000000830      0x240 /tmp/ccx0bwyx.ltrans12.ltrans.o
 .debug_aranges
                0x0000000000000a70      0x100 /tmp/ccx0bwyx.ltrans13.ltrans.o
 .debug_aranges
                0x0000000000000b70      0x250 /tmp/ccx0bwyx.ltrans14.ltrans.o
 .debug_aranges
                0x0000000000000dc0       0xa0 /tmp/ccx0bwyx.ltrans15.ltrans.o
 .debug_aranges
                0x0000000000000e60       0xd0 /tmp/ccx0bwyx.ltrans16.ltrans.o
 .debug_aranges
                0x0000000000000f30       0x50 /tmp/ccx0bwyx.ltrans17.ltrans.o
 .debug_aranges
                0x0000000000000f80       0xe0 /tmp/ccx0bwyx.ltrans18.ltrans.o
 .debug_aranges
                0x0000000000001060       0xf0 /tmp/ccx0bwyx.ltrans19.ltrans.o
 .debug_aranges
                0x0000000000001150      0x150 /tmp/ccx0bwyx.ltrans20.ltrans.o
 .debug_aranges
                0x00000000000012a0       0x90 /tmp/ccx0bwyx.ltrans21.ltrans.o
 .debug_aranges
                0x0000000000001330       0x30 /tmp/ccx0bwyx.ltrans22.ltrans.o
 .debug_aranges
                0x0000000000001360       0x40 /tmp/ccx0bwyx.ltrans23.ltrans.o
 .debug_aranges
                0x00000000000013a0       0x70 /tmp/ccx0bwyx.ltrans24.ltrans.o
 .debug_aranges
                0x0000000000001410       0x30 /tmp/ccx0bwyx.ltrans25.ltrans.o
 .debug_aranges
                0x0000000000001440       0x90 /tmp/ccx0bwyx.ltrans26.ltrans.o
 .debug_aranges
                0x00000000000014d0       0x50 /tmp/ccx0bwyx.ltrans27.ltrans.o
 .debug_aranges
                0x0000000000001520       0x40 /tmp/ccx0bwyx.ltrans28.ltrans.o
 .debug_aranges
                0x0000000000001560       0x30 /tmp/ccx0bwyx.ltrans29.ltrans.o
 .debug_aranges
                0x0000000000001590       0x30 /tmp/ccx0bwyx.ltrans30.ltrans.o
 .debug_aranges
                0x00000000000015c0       0x30 /tmp/ccx0bwyx.ltrans31.ltrans.o

.debug_ranges   0x0000000000000000     0x5250
 .debug_ranges  0x0000000000000000      0x630 /tmp/ccx0bwyx.ltrans0.ltrans.o
 .debug_ranges  0x0000000000000630      0x770 /tmp/ccx0bwyx.ltrans1.ltrans.o
 .debug_ranges  0x0000000000000da0      0x480 /tmp/ccx0bwyx.ltrans2.ltrans.o
 .debug_ranges  0x0000000000001220      0x460 /tmp/ccx0bwyx.ltrans3.ltrans.o
 .debug_ranges  0x0000000000001680      0x380 /tmp/ccx0bwyx.ltrans4.ltrans.o
 .debug_ranges  0x0000000000001a00      0x1f0 /tmp/ccx0bwyx.ltrans5.ltrans.o
 .debug_ranges  0x0000000000001bf0      0x490 /tmp/ccx0bwyx.ltrans6.ltrans.o
 .debug_ranges  0x0000000000002080      0x1f0 /tmp/ccx0bwyx.ltrans7.ltrans.o
 .debug_ranges  0x0000000000002270      0x670 /tmp/ccx0bwyx.ltrans8.ltrans.o
 .debug_ranges  0x00000000000028e0      0x490 /tmp/ccx0bwyx.ltrans9.ltrans.o
 .debug_ranges  0x0000000000002d70      0x270 /tmp/ccx0bwyx.ltrans10.ltrans.o
 .debug_ranges  0x0000000000002fe0      0x2f0 /tmp/ccx0bwyx.ltrans11.ltrans.o
 .debug_ranges  0x00000000000032d0      0x580 /tmp/ccx0bwyx.ltrans12.ltrans.o
 .debug_ranges  0x0000000000003850      0x2d0 /tmp/ccx0bwyx.ltrans13.ltrans.o
 .debug_ranges  0x0000000000003b20      0x2b0 /tmp/ccx0bwyx.ltrans14.ltrans.o
 .debug_ranges  0x0000000000003dd0      0x200 /tmp/ccx0bwyx.ltrans15.ltrans.o
 .debug_ranges  0x0000000000003fd0      0x350 /tmp/ccx0bwyx.ltrans16.ltrans.o
 .debug_ranges  0x0000000000004320      0x250 /tmp/ccx0bwyx.ltrans17.ltrans.o
 .debug_ranges  0x0000000000004570      0x2d0 /tmp/ccx0bwyx.ltrans18.ltrans.o
 .debug_ranges  0x0000000000004840      0x170 /tmp/ccx0bwyx.ltrans19.ltrans.o
 .debug_ranges  0x00000000000049b0      0x250 /tmp/ccx0bwyx.ltrans20.ltrans.o
 .debug_ranges  0x0000000000004c00       0x80 /tmp/ccx0bwyx.ltrans21.ltrans.o
 .debug_ranges  0x0000000000004c80       0x20 /tmp/ccx0bwyx.ltrans22.ltrans.o
 .debug_ranges  0x0000000000004ca0      0x100 /tmp/ccx0bwyx.ltrans23.ltrans.o
 .debug_ranges  0x0000000000004da0       0xb0 /tmp/ccx0bwyx.ltrans24.ltrans.o
 .debug_ranges  0x0000000000004e50      0x1b0 /tmp/ccx0bwyx.ltrans25.ltrans.o
 .debug_ranges  0x0000000000005000      0x180 /tmp/ccx0bwyx.ltrans26.ltrans.o
 .debug_ranges  0x0000000000005180       0x40 /tmp/ccx0bwyx.ltrans27.ltrans.o
 .debug_ranges  0x00000000000051c0       0x30 /tmp/ccx0bwyx.ltrans28.ltrans.o
 .debug_ranges  0x00000000000051f0       0x20 /tmp/ccx0bwyx.ltrans29.ltrans.o
 .debug_ranges  0x0000000000005210       0x20 /tmp/ccx0bwyx.ltrans30.ltrans.o
 .debug_ranges  0x0000000000005230       0x20 /tmp/ccx0bwyx.ltrans31.ltrans.o

.debug_line     0x0000000000000000     0xdbb5
 .debug_line    0x0000000000000000      0xc0d /tmp/ccx0bwyx.ltrans0.ltrans.o
 .debug_line    0x0000000000000c0d      0xb68 /tmp/ccx0bwyx.ltrans1.ltrans.o
 .debug_line    0x0000000000001775      0xa8d /tmp/ccx0bwyx.ltrans2.ltrans.o
 .debug_line    0x0000000000002202      0xec2 /tmp/ccx0bwyx.ltrans3.ltrans.o
 .debug_line    0x00000000000030c4      0x7b8 /tmp/ccx0bwyx.ltrans4.ltrans.o
 .debug_line    0x000000000000387c      0x963 /tmp/ccx0bwyx.ltrans5.ltrans.o
 .debug_line    0x00000000000041df      0xa6c /tmp/ccx0bwyx.ltrans6.ltrans.o
 .debug_line    0x0000000000004c4b      0x8a9 /tmp/ccx0bwyx.ltrans7.ltrans.o
 .debug_line    0x00000000000054f4      0x830 /tmp/ccx0bwyx.ltrans8.ltrans.o
 .debug_line    0x0000000000005d24      0x5e4 /tmp/ccx0bwyx.ltrans9.ltrans.o
 .debug_line    0x0000000000006308      0x557 /tmp/ccx0bwyx.ltrans10.ltrans.o
 .debug_line    0x000000000000685f      0x77e /tmp/ccx0bwyx.ltrans11.ltrans.o
 .debug_line    0x0000000000006fdd      0x9e9 /tmp/ccx0bwyx.ltrans12.ltrans.o
 .debug_line    0x00000000000079c6      0xb74 /tmp/ccx0bwyx.ltrans13.ltrans.o
 .debug_line    0x000000000000853a      0x6f3 /tmp/ccx0bwyx.ltrans14.ltrans.o
 .debug_line    0x0000000000008c2d      0x66b /tmp/ccx0bwyx.ltrans15.ltrans.o
 .debug_line    0x0000000000009298      0x66f /tmp/ccx0bwyx.ltrans16.ltrans.o
 .debug_line    0x0000000000009907      0x6ad /tmp/ccx0bwyx.ltrans17.ltrans.o
 .debug_line    0x0000000000009fb4      0x867 /tmp/ccx0bwyx.ltrans18.ltrans.o
 .debug_line    0x000000000000a81b      0x838 /tmp/ccx0bwyx.ltrans19.ltrans.o
 .debug_line    0x000000000000b053      0x547 /tmp/ccx0bwyx.ltrans20.ltrans.o
 .debug_line    0x000000000000b59a      0x5ac /tmp/ccx0bwyx.ltrans21.ltrans.o
 .debug_line    0x000000000000bb46      0x42e /tmp/ccx0bwyx.ltrans22.ltrans.o
 .debug_line    0x000000000000bf74      0x451 /tmp/ccx0bwyx.ltrans23.ltrans.o
 .debug_line    0x000000000000c3c5      0x530 /tmp/ccx0bwyx.ltrans24.ltrans.o
 .debug_line    0x000000000000c8f5      0x446 /tmp/ccx0bwyx.ltrans25.ltrans.o
 .debug_line    0x000000000000cd3b      0x47f /tmp/ccx0bwyx.ltrans26.ltrans.o
 .debug_line    0x000000000000d1ba      0x2f2 /tmp/ccx0bwyx.ltrans27.ltrans.o
 .debug_line    0x000000000000d4ac      0x305 /tmp/ccx0bwyx.ltrans28.ltrans.o
 .debug_line    0x000000000000d7b1       0xda /tmp/ccx0bwyx.ltrans29.ltrans.o
 .debug_line    0x000000000000d88b      0x219 /tmp/ccx0bwyx.ltrans30.ltrans.o
 .debug_line    0x000000000000daa4      0x111 /tmp/ccx0bwyx.ltrans31.ltrans.o

.debug_str      0x0000000000000000     0xcf04
 .debug_str     0x0000000000000000     0x2b9d /tmp/ccx0bwyx.ltrans0.ltrans.o
                                       0x3148 (size before relaxing)
 .debug_str     0x0000000000002b9d      0xd07 /tmp/ccx0bwyx.ltrans1.ltrans.o
                                       0x18fc (size before relaxing)
 .debug_str     0x00000000000038a4     0x138f /tmp/ccx0bwyx.ltrans2.ltrans.o
                                       0x2c89 (size before relaxing)
 .debug_str     0x0000000000004c33      0xad3 /tmp/ccx0bwyx.ltrans3.ltrans.o
                                       0x2e55 (size before relaxing)
 .debug_str     0x0000000000005706      0x57e /tmp/ccx0bwyx.ltrans4.ltrans.o
                                       0x1c39 (size before relaxing)
 .debug_str     0x0000000000005c84      0x847 /tmp/ccx0bwyx.ltrans5.ltrans.o
                                       0x1ff7 (size before relaxing)
 .debug_str     0x00000000000064cb      0xfdc /tmp/ccx0bwyx.ltrans6.ltrans.o
                                       0x1ce8 (size before relaxing)
 .debug_str     0x00000000000074a7      0x668 /tmp/ccx0bwyx.ltrans7.ltrans.o
                                       0x1c87 (size before relaxing)
 .debug_str     0x0000000000007b0f      0x266 /tmp/ccx0bwyx.ltrans8.ltrans.o
                                       0x12e4 (size before relaxing)
 .debug_str     0x0000000000007d75      0x81b /tmp/ccx0bwyx.ltrans9.ltrans.o
                                        0xf37 (size before relaxing)
 .debug_str     0x0000000000008590      0x286 /tmp/ccx0bwyx.ltrans10.ltrans.o
                                        0x644 (size before relaxing)
 .debug_str     0x0000000000008816      0x515 /tmp/ccx0bwyx.ltrans11.ltrans.o
                                        0xef9 (size before relaxing)
 .debug_str     0x0000000000008d2b      0x4f7 /tmp/ccx0bwyx.ltrans12.ltrans.o
                                        0xc3d (size before relaxing)
 .debug_str     0x0000000000009222      0x774 /tmp/ccx0bwyx.ltrans13.ltrans.o
                                       0x1ef4 (size before relaxing)
 .debug_str     0x0000000000009996      0x848 /tmp/ccx0bwyx.ltrans14.ltrans.o
                                        0xcc5 (size before relaxing)
 .debug_str     0x000000000000a1de      0x520 /tmp/ccx0bwyx.ltrans15.ltrans.o
                                        0xdbb (size before relaxing)
 .debug_str     0x000000000000a6fe      0x2d6 /tmp/ccx0bwyx.ltrans16.ltrans.o
                                        0xca6 (size before relaxing)
 .debug_str     0x000000000000a9d4      0x50c /tmp/ccx0bwyx.ltrans17.ltrans.o
                                       0x13cf (size before relaxing)
 .debug_str     0x000000000000aee0      0x3c4 /tmp/ccx0bwyx.ltrans18.ltrans.o
                                       0x16e7 (size before relaxing)
 .debug_str     0x000000000000b2a4      0x214 /tmp/ccx0bwyx.ltrans19.ltrans.o
                                       0x1493 (size before relaxing)
 .debug_str     0x000000000000b4b8      0x2b2 /tmp/ccx0bwyx.ltrans20.ltrans.o
                                        0x683 (size before relaxing)
 .debug_str     0x000000000000b76a      0xcae /tmp/ccx0bwyx.ltrans21.ltrans.o
                                       0x1f88 (size before relaxing)
 .debug_str     0x000000000000c418      0x1be /tmp/ccx0bwyx.ltrans22.ltrans.o
                                        0x573 (size before relaxing)
 .debug_str     0x000000000000c5d6      0x18d /tmp/ccx0bwyx.ltrans23.ltrans.o
                                        0x728 (size before relaxing)
 .debug_str     0x000000000000c763      0x270 /tmp/ccx0bwyx.ltrans24.ltrans.o
                                       0x16ea (size before relaxing)
 .debug_str     0x000000000000c9d3      0x1c1 /tmp/ccx0bwyx.ltrans25.ltrans.o
                                        0x896 (size before relaxing)
 .debug_str     0x000000000000cb94      0x1a9 /tmp/ccx0bwyx.ltrans26.ltrans.o
                                        0xc29 (size before relaxing)
 .debug_str     0x000000000000cd3d       0x5a /tmp/ccx0bwyx.ltrans27.ltrans.o
                                        0xdf3 (size before relaxing)
 .debug_str     0x000000000000cd97       0xda /tmp/ccx0bwyx.ltrans28.ltrans.o
                                        0x459 (size before relaxing)
 .debug_str     0x000000000000ce71       0x3f /tmp/ccx0bwyx.ltrans29.ltrans.o
                                        0x258 (size before relaxing)
 .debug_str     0x000000000000ceb0       0x21 /tmp/ccx0bwyx.ltrans30.ltrans.o
                                        0x2ef (size before relaxing)
 .debug_str     0x000000000000ced1       0x33 /tmp/ccx0bwyx.ltrans31.ltrans.o
                                        0x27b (size before relaxing)

.debug_frame    0x0000000000000000     0x6b80
 .debug_frame   0x0000000000000000       0xa8 /tmp/ccx0bwyx.ltrans0.ltrans.o
 .debug_frame   0x00000000000000a8       0xa8 /tmp/ccx0bwyx.ltrans1.ltrans.o
 .debug_frame   0x0000000000000150       0xa8 /tmp/ccx0bwyx.ltrans2.ltrans.o
 .debug_frame   0x00000000000001f8       0xa8 /tmp/ccx0bwyx.ltrans3.ltrans.o
 .debug_frame   0x00000000000002a0      0x4f0 /tmp/ccx0bwyx.ltrans4.ltrans.o
 .debug_frame   0x0000000000000790      0x428 /tmp/ccx0bwyx.ltrans5.ltrans.o
 .debug_frame   0x0000000000000bb8      0x678 /tmp/ccx0bwyx.ltrans6.ltrans.o
 .debug_frame   0x0000000000001230      0x730 /tmp/ccx0bwyx.ltrans7.ltrans.o
 .debug_frame   0x0000000000001960       0xa8 /tmp/ccx0bwyx.ltrans8.ltrans.o
 .debug_frame   0x0000000000001a08      0x3f0 /tmp/ccx0bwyx.ltrans9.ltrans.o
 .debug_frame   0x0000000000001df8      0x528 /tmp/ccx0bwyx.ltrans10.ltrans.o
 .debug_frame   0x0000000000002320      0x4d8 /tmp/ccx0bwyx.ltrans11.ltrans.o
 .debug_frame   0x00000000000027f8      0x8b0 /tmp/ccx0bwyx.ltrans12.ltrans.o
 .debug_frame   0x00000000000030a8      0x440 /tmp/ccx0bwyx.ltrans13.ltrans.o
 .debug_frame   0x00000000000034e8      0x9a0 /tmp/ccx0bwyx.ltrans14.ltrans.o
 .debug_frame   0x0000000000003e88      0x478 /tmp/ccx0bwyx.ltrans15.ltrans.o
 .debug_frame   0x0000000000004300      0x4d8 /tmp/ccx0bwyx.ltrans16.ltrans.o
 .debug_frame   0x00000000000047d8      0x250 /tmp/ccx0bwyx.ltrans17.ltrans.o
 .debug_frame   0x0000000000004a28      0x618 /tmp/ccx0bwyx.ltrans18.ltrans.o
 .debug_frame   0x0000000000005040      0x620 /tmp/ccx0bwyx.ltrans19.ltrans.o
 .debug_frame   0x0000000000005660      0x418 /tmp/ccx0bwyx.ltrans20.ltrans.o
 .debug_frame   0x0000000000005a78      0x420 /tmp/ccx0bwyx.ltrans21.ltrans.o
 .debug_frame   0x0000000000005e98      0x170 /tmp/ccx0bwyx.ltrans22.ltrans.o
 .debug_frame   0x0000000000006008      0x2d0 /tmp/ccx0bwyx.ltrans23.ltrans.o
 .debug_frame   0x00000000000062d8      0x2e0 /tmp/ccx0bwyx.ltrans24.ltrans.o
 .debug_frame   0x00000000000065b8       0xa8 /tmp/ccx0bwyx.ltrans25.ltrans.o
 .debug_frame   0x0000000000006660      0x2b0 /tmp/ccx0bwyx.ltrans26.ltrans.o
 .debug_frame   0x0000000000006910       0xe8 /tmp/ccx0bwyx.ltrans27.ltrans.o
 .debug_frame   0x00000000000069f8       0x60 /tmp/ccx0bwyx.ltrans28.ltrans.o
 .debug_frame   0x0000000000006a58       0x60 /tmp/ccx0bwyx.ltrans29.ltrans.o
 .debug_frame   0x0000000000006ab8       0x58 /tmp/ccx0bwyx.ltrans30.ltrans.o
 .debug_frame   0x0000000000006b10       0x70 /tmp/ccx0bwyx.ltrans31.ltrans.o
