Archive member included to satisfy reference by file (symbol)

/home/hcj/UEFIWorkspace/Build/OvmfX64/DEBUG_GCC5/X64/MdeModulePkg/Universal/Disk/RamDiskDxe/RamDiskDxe/OUTPUT/RamDiskDxe.lib(RamDiskDriver.obj)
                              (--whole-archive)
/home/hcj/UEFIWorkspace/Build/OvmfX64/DEBUG_GCC5/X64/MdeModulePkg/Universal/Disk/RamDiskDxe/RamDiskDxe/OUTPUT/RamDiskDxe.lib(RamDiskImpl.obj)
                              (--whole-archive)
/home/hcj/UEFIWorkspace/Build/OvmfX64/DEBUG_GCC5/X64/MdeModulePkg/Universal/Disk/RamDiskDxe/RamDiskDxe/OUTPUT/RamDiskDxe.lib(RamDiskBlockIo.obj)
                              (--whole-archive)
/home/hcj/UEFIWorkspace/Build/OvmfX64/DEBUG_GCC5/X64/MdeModulePkg/Universal/Disk/RamDiskDxe/RamDiskDxe/OUTPUT/RamDiskDxe.lib(RamDiskProtocol.obj)
                              (--whole-archive)
/home/hcj/UEFIWorkspace/Build/OvmfX64/DEBUG_GCC5/X64/MdeModulePkg/Universal/Disk/RamDiskDxe/RamDiskDxe/OUTPUT/RamDiskDxe.lib(RamDiskFileExplorer.obj)
                              (--whole-archive)
/home/hcj/UEFIWorkspace/Build/OvmfX64/DEBUG_GCC5/X64/MdeModulePkg/Universal/Disk/RamDiskDxe/RamDiskDxe/OUTPUT/RamDiskDxe.lib(RamDiskHii.obj)
                              (--whole-archive)
/home/hcj/UEFIWorkspace/Build/OvmfX64/DEBUG_GCC5/X64/MdeModulePkg/Universal/Disk/RamDiskDxe/RamDiskDxe/OUTPUT/RamDiskDxe.lib(RamDisk.obj)
                              (--whole-archive)
/home/hcj/UEFIWorkspace/Build/OvmfX64/DEBUG_GCC5/X64/MdeModulePkg/Universal/Disk/RamDiskDxe/RamDiskDxe/OUTPUT/RamDiskDxe.lib(AutoGen.obj)
                              (--whole-archive)
/home/hcj/UEFIWorkspace/Build/OvmfX64/DEBUG_GCC5/X64/MdePkg/Library/RegisterFilterLibNull/RegisterFilterLibNull/OUTPUT/FilterLibNull.lib(RegisterFilterLibNull.obj)
                              (--whole-archive)
/home/hcj/UEFIWorkspace/Build/OvmfX64/DEBUG_GCC5/X64/MdePkg/Library/DxePcdLib/DxePcdLib/OUTPUT/DxePcdLib.lib(DxePcdLib.obj)
                              (--whole-archive)
/home/hcj/UEFIWorkspace/Build/OvmfX64/DEBUG_GCC5/X64/MdePkg/Library/BaseMemoryLibRepStr/BaseMemoryLibRepStr/OUTPUT/BaseMemoryLibRepStr.lib(ScanMem64Wrapper.obj)
                              (--whole-archive)
/home/hcj/UEFIWorkspace/Build/OvmfX64/DEBUG_GCC5/X64/MdePkg/Library/BaseMemoryLibRepStr/BaseMemoryLibRepStr/OUTPUT/BaseMemoryLibRepStr.lib(ScanMem32Wrapper.obj)
                              (--whole-archive)
/home/hcj/UEFIWorkspace/Build/OvmfX64/DEBUG_GCC5/X64/MdePkg/Library/BaseMemoryLibRepStr/BaseMemoryLibRepStr/OUTPUT/BaseMemoryLibRepStr.lib(ScanMem16Wrapper.obj)
                              (--whole-archive)
/home/hcj/UEFIWorkspace/Build/OvmfX64/DEBUG_GCC5/X64/MdePkg/Library/BaseMemoryLibRepStr/BaseMemoryLibRepStr/OUTPUT/BaseMemoryLibRepStr.lib(ScanMem8Wrapper.obj)
                              (--whole-archive)
/home/hcj/UEFIWorkspace/Build/OvmfX64/DEBUG_GCC5/X64/MdePkg/Library/BaseMemoryLibRepStr/BaseMemoryLibRepStr/OUTPUT/BaseMemoryLibRepStr.lib(ZeroMemWrapper.obj)
                              (--whole-archive)
/home/hcj/UEFIWorkspace/Build/OvmfX64/DEBUG_GCC5/X64/MdePkg/Library/BaseMemoryLibRepStr/BaseMemoryLibRepStr/OUTPUT/BaseMemoryLibRepStr.lib(CompareMemWrapper.obj)
                              (--whole-archive)
/home/hcj/UEFIWorkspace/Build/OvmfX64/DEBUG_GCC5/X64/MdePkg/Library/BaseMemoryLibRepStr/BaseMemoryLibRepStr/OUTPUT/BaseMemoryLibRepStr.lib(SetMem64Wrapper.obj)
                              (--whole-archive)
/home/hcj/UEFIWorkspace/Build/OvmfX64/DEBUG_GCC5/X64/MdePkg/Library/BaseMemoryLibRepStr/BaseMemoryLibRepStr/OUTPUT/BaseMemoryLibRepStr.lib(SetMem32Wrapper.obj)
                              (--whole-archive)
/home/hcj/UEFIWorkspace/Build/OvmfX64/DEBUG_GCC5/X64/MdePkg/Library/BaseMemoryLibRepStr/BaseMemoryLibRepStr/OUTPUT/BaseMemoryLibRepStr.lib(SetMem16Wrapper.obj)
                              (--whole-archive)
/home/hcj/UEFIWorkspace/Build/OvmfX64/DEBUG_GCC5/X64/MdePkg/Library/BaseMemoryLibRepStr/BaseMemoryLibRepStr/OUTPUT/BaseMemoryLibRepStr.lib(SetMemWrapper.obj)
                              (--whole-archive)
/home/hcj/UEFIWorkspace/Build/OvmfX64/DEBUG_GCC5/X64/MdePkg/Library/BaseMemoryLibRepStr/BaseMemoryLibRepStr/OUTPUT/BaseMemoryLibRepStr.lib(CopyMemWrapper.obj)
                              (--whole-archive)
/home/hcj/UEFIWorkspace/Build/OvmfX64/DEBUG_GCC5/X64/MdePkg/Library/BaseMemoryLibRepStr/BaseMemoryLibRepStr/OUTPUT/BaseMemoryLibRepStr.lib(IsZeroBufferWrapper.obj)
                              (--whole-archive)
/home/hcj/UEFIWorkspace/Build/OvmfX64/DEBUG_GCC5/X64/MdePkg/Library/BaseMemoryLibRepStr/BaseMemoryLibRepStr/OUTPUT/BaseMemoryLibRepStr.lib(MemLibGuid.obj)
                              (--whole-archive)
/home/hcj/UEFIWorkspace/Build/OvmfX64/DEBUG_GCC5/X64/MdePkg/Library/BaseMemoryLibRepStr/BaseMemoryLibRepStr/OUTPUT/BaseMemoryLibRepStr.lib(ScanMem64.obj)
                              (--whole-archive)
/home/hcj/UEFIWorkspace/Build/OvmfX64/DEBUG_GCC5/X64/MdePkg/Library/BaseMemoryLibRepStr/BaseMemoryLibRepStr/OUTPUT/BaseMemoryLibRepStr.lib(ScanMem32.obj)
                              (--whole-archive)
/home/hcj/UEFIWorkspace/Build/OvmfX64/DEBUG_GCC5/X64/MdePkg/Library/BaseMemoryLibRepStr/BaseMemoryLibRepStr/OUTPUT/BaseMemoryLibRepStr.lib(ScanMem16.obj)
                              (--whole-archive)
/home/hcj/UEFIWorkspace/Build/OvmfX64/DEBUG_GCC5/X64/MdePkg/Library/BaseMemoryLibRepStr/BaseMemoryLibRepStr/OUTPUT/BaseMemoryLibRepStr.lib(ScanMem8.obj)
                              (--whole-archive)
/home/hcj/UEFIWorkspace/Build/OvmfX64/DEBUG_GCC5/X64/MdePkg/Library/BaseMemoryLibRepStr/BaseMemoryLibRepStr/OUTPUT/BaseMemoryLibRepStr.lib(CompareMem.obj)
                              (--whole-archive)
/home/hcj/UEFIWorkspace/Build/OvmfX64/DEBUG_GCC5/X64/MdePkg/Library/BaseMemoryLibRepStr/BaseMemoryLibRepStr/OUTPUT/BaseMemoryLibRepStr.lib(ZeroMem.obj)
                              (--whole-archive)
/home/hcj/UEFIWorkspace/Build/OvmfX64/DEBUG_GCC5/X64/MdePkg/Library/BaseMemoryLibRepStr/BaseMemoryLibRepStr/OUTPUT/BaseMemoryLibRepStr.lib(SetMem64.obj)
                              (--whole-archive)
/home/hcj/UEFIWorkspace/Build/OvmfX64/DEBUG_GCC5/X64/MdePkg/Library/BaseMemoryLibRepStr/BaseMemoryLibRepStr/OUTPUT/BaseMemoryLibRepStr.lib(SetMem32.obj)
                              (--whole-archive)
/home/hcj/UEFIWorkspace/Build/OvmfX64/DEBUG_GCC5/X64/MdePkg/Library/BaseMemoryLibRepStr/BaseMemoryLibRepStr/OUTPUT/BaseMemoryLibRepStr.lib(SetMem16.obj)
                              (--whole-archive)
/home/hcj/UEFIWorkspace/Build/OvmfX64/DEBUG_GCC5/X64/MdePkg/Library/BaseMemoryLibRepStr/BaseMemoryLibRepStr/OUTPUT/BaseMemoryLibRepStr.lib(SetMem.obj)
                              (--whole-archive)
/home/hcj/UEFIWorkspace/Build/OvmfX64/DEBUG_GCC5/X64/MdePkg/Library/BaseMemoryLibRepStr/BaseMemoryLibRepStr/OUTPUT/BaseMemoryLibRepStr.lib(CopyMem.obj)
                              (--whole-archive)
/home/hcj/UEFIWorkspace/Build/OvmfX64/DEBUG_GCC5/X64/MdePkg/Library/BaseMemoryLibRepStr/BaseMemoryLibRepStr/OUTPUT/BaseMemoryLibRepStr.lib(IsZeroBuffer.obj)
                              (--whole-archive)
/home/hcj/UEFIWorkspace/Build/OvmfX64/DEBUG_GCC5/X64/MdePkg/Library/BaseLib/BaseLib/OUTPUT/BaseLib.lib(CheckSum.obj)
                              (--whole-archive)
/home/hcj/UEFIWorkspace/Build/OvmfX64/DEBUG_GCC5/X64/MdePkg/Library/BaseLib/BaseLib/OUTPUT/BaseLib.lib(SwitchStack.obj)
                              (--whole-archive)
/home/hcj/UEFIWorkspace/Build/OvmfX64/DEBUG_GCC5/X64/MdePkg/Library/BaseLib/BaseLib/OUTPUT/BaseLib.lib(SwapBytes64.obj)
                              (--whole-archive)
/home/hcj/UEFIWorkspace/Build/OvmfX64/DEBUG_GCC5/X64/MdePkg/Library/BaseLib/BaseLib/OUTPUT/BaseLib.lib(SwapBytes32.obj)
                              (--whole-archive)
/home/hcj/UEFIWorkspace/Build/OvmfX64/DEBUG_GCC5/X64/MdePkg/Library/BaseLib/BaseLib/OUTPUT/BaseLib.lib(SwapBytes16.obj)
                              (--whole-archive)
/home/hcj/UEFIWorkspace/Build/OvmfX64/DEBUG_GCC5/X64/MdePkg/Library/BaseLib/BaseLib/OUTPUT/BaseLib.lib(LongJump.obj)
                              (--whole-archive)
/home/hcj/UEFIWorkspace/Build/OvmfX64/DEBUG_GCC5/X64/MdePkg/Library/BaseLib/BaseLib/OUTPUT/BaseLib.lib(SetJump.obj)
                              (--whole-archive)
/home/hcj/UEFIWorkspace/Build/OvmfX64/DEBUG_GCC5/X64/MdePkg/Library/BaseLib/BaseLib/OUTPUT/BaseLib.lib(QuickSort.obj)
                              (--whole-archive)
/home/hcj/UEFIWorkspace/Build/OvmfX64/DEBUG_GCC5/X64/MdePkg/Library/BaseLib/BaseLib/OUTPUT/BaseLib.lib(RShiftU64.obj)
                              (--whole-archive)
/home/hcj/UEFIWorkspace/Build/OvmfX64/DEBUG_GCC5/X64/MdePkg/Library/BaseLib/BaseLib/OUTPUT/BaseLib.lib(RRotU64.obj)
                              (--whole-archive)
/home/hcj/UEFIWorkspace/Build/OvmfX64/DEBUG_GCC5/X64/MdePkg/Library/BaseLib/BaseLib/OUTPUT/BaseLib.lib(RRotU32.obj)
                              (--whole-archive)
/home/hcj/UEFIWorkspace/Build/OvmfX64/DEBUG_GCC5/X64/MdePkg/Library/BaseLib/BaseLib/OUTPUT/BaseLib.lib(MultU64x64.obj)
                              (--whole-archive)
/home/hcj/UEFIWorkspace/Build/OvmfX64/DEBUG_GCC5/X64/MdePkg/Library/BaseLib/BaseLib/OUTPUT/BaseLib.lib(MultU64x32.obj)
                              (--whole-archive)
/home/hcj/UEFIWorkspace/Build/OvmfX64/DEBUG_GCC5/X64/MdePkg/Library/BaseLib/BaseLib/OUTPUT/BaseLib.lib(MultS64x64.obj)
                              (--whole-archive)
/home/hcj/UEFIWorkspace/Build/OvmfX64/DEBUG_GCC5/X64/MdePkg/Library/BaseLib/BaseLib/OUTPUT/BaseLib.lib(ModU64x32.obj)
                              (--whole-archive)
/home/hcj/UEFIWorkspace/Build/OvmfX64/DEBUG_GCC5/X64/MdePkg/Library/BaseLib/BaseLib/OUTPUT/BaseLib.lib(LShiftU64.obj)
                              (--whole-archive)
/home/hcj/UEFIWorkspace/Build/OvmfX64/DEBUG_GCC5/X64/MdePkg/Library/BaseLib/BaseLib/OUTPUT/BaseLib.lib(LRotU64.obj)
                              (--whole-archive)
/home/hcj/UEFIWorkspace/Build/OvmfX64/DEBUG_GCC5/X64/MdePkg/Library/BaseLib/BaseLib/OUTPUT/BaseLib.lib(LRotU32.obj)
                              (--whole-archive)
/home/hcj/UEFIWorkspace/Build/OvmfX64/DEBUG_GCC5/X64/MdePkg/Library/BaseLib/BaseLib/OUTPUT/BaseLib.lib(LowBitSet64.obj)
                              (--whole-archive)
/home/hcj/UEFIWorkspace/Build/OvmfX64/DEBUG_GCC5/X64/MdePkg/Library/BaseLib/BaseLib/OUTPUT/BaseLib.lib(LowBitSet32.obj)
                              (--whole-archive)
/home/hcj/UEFIWorkspace/Build/OvmfX64/DEBUG_GCC5/X64/MdePkg/Library/BaseLib/BaseLib/OUTPUT/BaseLib.lib(HighBitSet64.obj)
                              (--whole-archive)
/home/hcj/UEFIWorkspace/Build/OvmfX64/DEBUG_GCC5/X64/MdePkg/Library/BaseLib/BaseLib/OUTPUT/BaseLib.lib(HighBitSet32.obj)
                              (--whole-archive)
/home/hcj/UEFIWorkspace/Build/OvmfX64/DEBUG_GCC5/X64/MdePkg/Library/BaseLib/BaseLib/OUTPUT/BaseLib.lib(GetPowerOfTwo64.obj)
                              (--whole-archive)
/home/hcj/UEFIWorkspace/Build/OvmfX64/DEBUG_GCC5/X64/MdePkg/Library/BaseLib/BaseLib/OUTPUT/BaseLib.lib(GetPowerOfTwo32.obj)
                              (--whole-archive)
/home/hcj/UEFIWorkspace/Build/OvmfX64/DEBUG_GCC5/X64/MdePkg/Library/BaseLib/BaseLib/OUTPUT/BaseLib.lib(DivU64x64Remainder.obj)
                              (--whole-archive)
/home/hcj/UEFIWorkspace/Build/OvmfX64/DEBUG_GCC5/X64/MdePkg/Library/BaseLib/BaseLib/OUTPUT/BaseLib.lib(DivU64x32Remainder.obj)
                              (--whole-archive)
/home/hcj/UEFIWorkspace/Build/OvmfX64/DEBUG_GCC5/X64/MdePkg/Library/BaseLib/BaseLib/OUTPUT/BaseLib.lib(DivU64x32.obj)
                              (--whole-archive)
/home/hcj/UEFIWorkspace/Build/OvmfX64/DEBUG_GCC5/X64/MdePkg/Library/BaseLib/BaseLib/OUTPUT/BaseLib.lib(DivS64x64Remainder.obj)
                              (--whole-archive)
/home/hcj/UEFIWorkspace/Build/OvmfX64/DEBUG_GCC5/X64/MdePkg/Library/BaseLib/BaseLib/OUTPUT/BaseLib.lib(ARShiftU64.obj)
                              (--whole-archive)
/home/hcj/UEFIWorkspace/Build/OvmfX64/DEBUG_GCC5/X64/MdePkg/Library/BaseLib/BaseLib/OUTPUT/BaseLib.lib(BitField.obj)
                              (--whole-archive)
/home/hcj/UEFIWorkspace/Build/OvmfX64/DEBUG_GCC5/X64/MdePkg/Library/BaseLib/BaseLib/OUTPUT/BaseLib.lib(CpuDeadLoop.obj)
                              (--whole-archive)
/home/hcj/UEFIWorkspace/Build/OvmfX64/DEBUG_GCC5/X64/MdePkg/Library/BaseLib/BaseLib/OUTPUT/BaseLib.lib(Cpu.obj)
                              (--whole-archive)
/home/hcj/UEFIWorkspace/Build/OvmfX64/DEBUG_GCC5/X64/MdePkg/Library/BaseLib/BaseLib/OUTPUT/BaseLib.lib(LinkedList.obj)
                              (--whole-archive)
/home/hcj/UEFIWorkspace/Build/OvmfX64/DEBUG_GCC5/X64/MdePkg/Library/BaseLib/BaseLib/OUTPUT/BaseLib.lib(SafeString.obj)
                              (--whole-archive)
/home/hcj/UEFIWorkspace/Build/OvmfX64/DEBUG_GCC5/X64/MdePkg/Library/BaseLib/BaseLib/OUTPUT/BaseLib.lib(String.obj)
                              (--whole-archive)
/home/hcj/UEFIWorkspace/Build/OvmfX64/DEBUG_GCC5/X64/MdePkg/Library/BaseLib/BaseLib/OUTPUT/BaseLib.lib(FilePaths.obj)
                              (--whole-archive)
/home/hcj/UEFIWorkspace/Build/OvmfX64/DEBUG_GCC5/X64/MdePkg/Library/BaseLib/BaseLib/OUTPUT/BaseLib.lib(Thunk16.obj)
                              (--whole-archive)
/home/hcj/UEFIWorkspace/Build/OvmfX64/DEBUG_GCC5/X64/MdePkg/Library/BaseLib/BaseLib/OUTPUT/BaseLib.lib(CpuIdEx.obj)
                              (--whole-archive)
/home/hcj/UEFIWorkspace/Build/OvmfX64/DEBUG_GCC5/X64/MdePkg/Library/BaseLib/BaseLib/OUTPUT/BaseLib.lib(CpuId.obj)
                              (--whole-archive)
/home/hcj/UEFIWorkspace/Build/OvmfX64/DEBUG_GCC5/X64/MdePkg/Library/BaseLib/BaseLib/OUTPUT/BaseLib.lib(LongJump.obj)
                              (--whole-archive)
/home/hcj/UEFIWorkspace/Build/OvmfX64/DEBUG_GCC5/X64/MdePkg/Library/BaseLib/BaseLib/OUTPUT/BaseLib.lib(SetJump.obj)
                              (--whole-archive)
/home/hcj/UEFIWorkspace/Build/OvmfX64/DEBUG_GCC5/X64/MdePkg/Library/BaseLib/BaseLib/OUTPUT/BaseLib.lib(SwitchStack.obj)
                              (--whole-archive)
/home/hcj/UEFIWorkspace/Build/OvmfX64/DEBUG_GCC5/X64/MdePkg/Library/BaseLib/BaseLib/OUTPUT/BaseLib.lib(EnableCache.obj)
                              (--whole-archive)
/home/hcj/UEFIWorkspace/Build/OvmfX64/DEBUG_GCC5/X64/MdePkg/Library/BaseLib/BaseLib/OUTPUT/BaseLib.lib(DisableCache.obj)
                              (--whole-archive)
/home/hcj/UEFIWorkspace/Build/OvmfX64/DEBUG_GCC5/X64/MdePkg/Library/BaseLib/BaseLib/OUTPUT/BaseLib.lib(WriteTr.obj)
                              (--whole-archive)
/home/hcj/UEFIWorkspace/Build/OvmfX64/DEBUG_GCC5/X64/MdePkg/Library/BaseLib/BaseLib/OUTPUT/BaseLib.lib(Lfence.obj)
                              (--whole-archive)
/home/hcj/UEFIWorkspace/Build/OvmfX64/DEBUG_GCC5/X64/MdePkg/Library/BaseLib/BaseLib/OUTPUT/BaseLib.lib(Non-existing.obj)
                              (--whole-archive)
/home/hcj/UEFIWorkspace/Build/OvmfX64/DEBUG_GCC5/X64/MdePkg/Library/BaseLib/BaseLib/OUTPUT/BaseLib.lib(Math64.obj)
                              (--whole-archive)
/home/hcj/UEFIWorkspace/Build/OvmfX64/DEBUG_GCC5/X64/MdePkg/Library/BaseLib/BaseLib/OUTPUT/BaseLib.lib(Unaligned.obj)
                              (--whole-archive)
/home/hcj/UEFIWorkspace/Build/OvmfX64/DEBUG_GCC5/X64/MdePkg/Library/BaseLib/BaseLib/OUTPUT/BaseLib.lib(X86WriteIdtr.obj)
                              (--whole-archive)
/home/hcj/UEFIWorkspace/Build/OvmfX64/DEBUG_GCC5/X64/MdePkg/Library/BaseLib/BaseLib/OUTPUT/BaseLib.lib(X86WriteGdtr.obj)
                              (--whole-archive)
/home/hcj/UEFIWorkspace/Build/OvmfX64/DEBUG_GCC5/X64/MdePkg/Library/BaseLib/BaseLib/OUTPUT/BaseLib.lib(X86Thunk.obj)
                              (--whole-archive)
/home/hcj/UEFIWorkspace/Build/OvmfX64/DEBUG_GCC5/X64/MdePkg/Library/BaseLib/BaseLib/OUTPUT/BaseLib.lib(X86ReadIdtr.obj)
                              (--whole-archive)
/home/hcj/UEFIWorkspace/Build/OvmfX64/DEBUG_GCC5/X64/MdePkg/Library/BaseLib/BaseLib/OUTPUT/BaseLib.lib(X86ReadGdtr.obj)
                              (--whole-archive)
/home/hcj/UEFIWorkspace/Build/OvmfX64/DEBUG_GCC5/X64/MdePkg/Library/BaseLib/BaseLib/OUTPUT/BaseLib.lib(X86Msr.obj)
                              (--whole-archive)
/home/hcj/UEFIWorkspace/Build/OvmfX64/DEBUG_GCC5/X64/MdePkg/Library/BaseLib/BaseLib/OUTPUT/BaseLib.lib(X86GetInterruptState.obj)
                              (--whole-archive)
/home/hcj/UEFIWorkspace/Build/OvmfX64/DEBUG_GCC5/X64/MdePkg/Library/BaseLib/BaseLib/OUTPUT/BaseLib.lib(X86FxSave.obj)
                              (--whole-archive)
/home/hcj/UEFIWorkspace/Build/OvmfX64/DEBUG_GCC5/X64/MdePkg/Library/BaseLib/BaseLib/OUTPUT/BaseLib.lib(X86FxRestore.obj)
                              (--whole-archive)
/home/hcj/UEFIWorkspace/Build/OvmfX64/DEBUG_GCC5/X64/MdePkg/Library/BaseLib/BaseLib/OUTPUT/BaseLib.lib(X86EnablePaging64.obj)
                              (--whole-archive)
/home/hcj/UEFIWorkspace/Build/OvmfX64/DEBUG_GCC5/X64/MdePkg/Library/BaseLib/BaseLib/OUTPUT/BaseLib.lib(X86EnablePaging32.obj)
                              (--whole-archive)
/home/hcj/UEFIWorkspace/Build/OvmfX64/DEBUG_GCC5/X64/MdePkg/Library/BaseLib/BaseLib/OUTPUT/BaseLib.lib(X86DisablePaging64.obj)
                              (--whole-archive)
/home/hcj/UEFIWorkspace/Build/OvmfX64/DEBUG_GCC5/X64/MdePkg/Library/BaseLib/BaseLib/OUTPUT/BaseLib.lib(X86DisablePaging32.obj)
                              (--whole-archive)
/home/hcj/UEFIWorkspace/Build/OvmfX64/DEBUG_GCC5/X64/MdePkg/Library/BaseLib/BaseLib/OUTPUT/BaseLib.lib(X86RdRand.obj)
                              (--whole-archive)
/home/hcj/UEFIWorkspace/Build/OvmfX64/DEBUG_GCC5/X64/MdePkg/Library/BaseLib/BaseLib/OUTPUT/BaseLib.lib(X86PatchInstruction.obj)
                              (--whole-archive)
/home/hcj/UEFIWorkspace/Build/OvmfX64/DEBUG_GCC5/X64/MdePkg/Library/BaseLib/BaseLib/OUTPUT/BaseLib.lib(X86SpeculationBarrier.obj)
                              (--whole-archive)
/home/hcj/UEFIWorkspace/Build/OvmfX64/DEBUG_GCC5/X64/MdePkg/Library/BaseLib/BaseLib/OUTPUT/BaseLib.lib(GccInline.obj)
                              (--whole-archive)
/home/hcj/UEFIWorkspace/Build/OvmfX64/DEBUG_GCC5/X64/MdePkg/Library/BaseLib/BaseLib/OUTPUT/BaseLib.lib(GccInlinePriv.obj)
                              (--whole-archive)
/home/hcj/UEFIWorkspace/Build/OvmfX64/DEBUG_GCC5/X64/MdePkg/Library/BaseLib/BaseLib/OUTPUT/BaseLib.lib(EnableDisableInterrupts.obj)
                              (--whole-archive)
/home/hcj/UEFIWorkspace/Build/OvmfX64/DEBUG_GCC5/X64/MdePkg/Library/BaseLib/BaseLib/OUTPUT/BaseLib.lib(DisablePaging64.obj)
                              (--whole-archive)
/home/hcj/UEFIWorkspace/Build/OvmfX64/DEBUG_GCC5/X64/MdePkg/Library/BaseLib/BaseLib/OUTPUT/BaseLib.lib(Pvalidate.obj)
                              (--whole-archive)
/home/hcj/UEFIWorkspace/Build/OvmfX64/DEBUG_GCC5/X64/MdePkg/Library/BaseLib/BaseLib/OUTPUT/BaseLib.lib(RdRand.obj)
                              (--whole-archive)
/home/hcj/UEFIWorkspace/Build/OvmfX64/DEBUG_GCC5/X64/MdePkg/Library/BaseLib/BaseLib/OUTPUT/BaseLib.lib(RmpAdjust.obj)
                              (--whole-archive)
/home/hcj/UEFIWorkspace/Build/OvmfX64/DEBUG_GCC5/X64/MdePkg/Library/BaseLib/BaseLib/OUTPUT/BaseLib.lib(XGetBv.obj)
                              (--whole-archive)
/home/hcj/UEFIWorkspace/Build/OvmfX64/DEBUG_GCC5/X64/MdePkg/Library/BaseLib/BaseLib/OUTPUT/BaseLib.lib(XSetBv.obj)
                              (--whole-archive)
/home/hcj/UEFIWorkspace/Build/OvmfX64/DEBUG_GCC5/X64/MdePkg/Library/BaseLib/BaseLib/OUTPUT/BaseLib.lib(VmgExit.obj)
                              (--whole-archive)
/home/hcj/UEFIWorkspace/Build/OvmfX64/DEBUG_GCC5/X64/MdePkg/Library/BaseLib/BaseLib/OUTPUT/BaseLib.lib(ChkStkGcc.obj)
                              (--whole-archive)
/home/hcj/UEFIWorkspace/Build/OvmfX64/DEBUG_GCC5/X64/MdePkg/Library/BaseDebugPrintErrorLevelLib/BaseDebugPrintErrorLevelLib/OUTPUT/BaseDebugPrintErrorLevelLib.lib(BaseDebugPrintErrorLevelLib.obj)
                              (--whole-archive)
/home/hcj/UEFIWorkspace/Build/OvmfX64/DEBUG_GCC5/X64/MdePkg/Library/BaseIoLibIntrinsic/BaseIoLibIntrinsicSev/OUTPUT/BaseIoLibIntrinsicSev.lib(IoLibMmioBuffer.obj)
                              (--whole-archive)
/home/hcj/UEFIWorkspace/Build/OvmfX64/DEBUG_GCC5/X64/MdePkg/Library/BaseIoLibIntrinsic/BaseIoLibIntrinsicSev/OUTPUT/BaseIoLibIntrinsicSev.lib(IoHighLevel.obj)
                              (--whole-archive)
/home/hcj/UEFIWorkspace/Build/OvmfX64/DEBUG_GCC5/X64/MdePkg/Library/BaseIoLibIntrinsic/BaseIoLibIntrinsicSev/OUTPUT/BaseIoLibIntrinsicSev.lib(IoLibGcc.obj)
                              (--whole-archive)
/home/hcj/UEFIWorkspace/Build/OvmfX64/DEBUG_GCC5/X64/MdePkg/Library/BaseIoLibIntrinsic/BaseIoLibIntrinsicSev/OUTPUT/BaseIoLibIntrinsicSev.lib(IoLib.obj)
                              (--whole-archive)
/home/hcj/UEFIWorkspace/Build/OvmfX64/DEBUG_GCC5/X64/MdePkg/Library/BaseIoLibIntrinsic/BaseIoLibIntrinsicSev/OUTPUT/BaseIoLibIntrinsicSev.lib(IoFifoSev.obj)
                              (--whole-archive)
/home/hcj/UEFIWorkspace/Build/OvmfX64/DEBUG_GCC5/X64/MdePkg/Library/BasePrintLib/BasePrintLib/OUTPUT/BasePrintLib.lib(PrintLibInternal.obj)
                              (--whole-archive)
/home/hcj/UEFIWorkspace/Build/OvmfX64/DEBUG_GCC5/X64/MdePkg/Library/BasePrintLib/BasePrintLib/OUTPUT/BasePrintLib.lib(PrintLib.obj)
                              (--whole-archive)
/home/hcj/UEFIWorkspace/Build/OvmfX64/DEBUG_GCC5/X64/OvmfPkg/Library/PlatformDebugLibIoPort/PlatformDebugLibIoPort/OUTPUT/PlatformDebugLibIoPort.lib(DebugIoPortQemu.obj)
                              (--whole-archive)
/home/hcj/UEFIWorkspace/Build/OvmfX64/DEBUG_GCC5/X64/OvmfPkg/Library/PlatformDebugLibIoPort/PlatformDebugLibIoPort/OUTPUT/PlatformDebugLibIoPort.lib(DebugLib.obj)
                              (--whole-archive)
/home/hcj/UEFIWorkspace/Build/OvmfX64/DEBUG_GCC5/X64/OvmfPkg/Library/PlatformDebugLibIoPort/PlatformDebugLibIoPort/OUTPUT/PlatformDebugLibIoPort.lib(DebugLibDetect.obj)
                              (--whole-archive)
/home/hcj/UEFIWorkspace/Build/OvmfX64/DEBUG_GCC5/X64/MdePkg/Library/UefiBootServicesTableLib/UefiBootServicesTableLib/OUTPUT/UefiBootServicesTableLib.lib(UefiBootServicesTableLib.obj)
                              (--whole-archive)
/home/hcj/UEFIWorkspace/Build/OvmfX64/DEBUG_GCC5/X64/MdePkg/Library/UefiMemoryAllocationLib/UefiMemoryAllocationLib/OUTPUT/UefiMemoryAllocationLib.lib(MemoryAllocationLib.obj)
                              (--whole-archive)
/home/hcj/UEFIWorkspace/Build/OvmfX64/DEBUG_GCC5/X64/MdePkg/Library/UefiRuntimeServicesTableLib/UefiRuntimeServicesTableLib/OUTPUT/UefiRuntimeServicesTableLib.lib(UefiRuntimeServicesTableLib.obj)
                              (--whole-archive)
/home/hcj/UEFIWorkspace/Build/OvmfX64/DEBUG_GCC5/X64/MdePkg/Library/UefiDevicePathLibDevicePathProtocol/UefiDevicePathLibDevicePathProtocol/OUTPUT/UefiDevicePathLibDevicePathProtocol.lib(UefiDevicePathLib.obj)
                              (--whole-archive)
/home/hcj/UEFIWorkspace/Build/OvmfX64/DEBUG_GCC5/X64/MdeModulePkg/Library/UefiHiiServicesLib/UefiHiiServicesLib/OUTPUT/UefiHiiServicesLib.lib(UefiHiiServicesLib.obj)
                              (--whole-archive)
/home/hcj/UEFIWorkspace/Build/OvmfX64/DEBUG_GCC5/X64/MdePkg/Library/UefiLib/UefiLib/OUTPUT/UefiLib.lib(UefiLibPrint.obj)
                              (--whole-archive)
/home/hcj/UEFIWorkspace/Build/OvmfX64/DEBUG_GCC5/X64/MdePkg/Library/UefiLib/UefiLib/OUTPUT/UefiLib.lib(UefiNotTiano.obj)
                              (--whole-archive)
/home/hcj/UEFIWorkspace/Build/OvmfX64/DEBUG_GCC5/X64/MdePkg/Library/UefiLib/UefiLib/OUTPUT/UefiLib.lib(UefiDriverModel.obj)
                              (--whole-archive)
/home/hcj/UEFIWorkspace/Build/OvmfX64/DEBUG_GCC5/X64/MdePkg/Library/UefiLib/UefiLib/OUTPUT/UefiLib.lib(Console.obj)
                              (--whole-archive)
/home/hcj/UEFIWorkspace/Build/OvmfX64/DEBUG_GCC5/X64/MdePkg/Library/UefiLib/UefiLib/OUTPUT/UefiLib.lib(UefiLib.obj)
                              (--whole-archive)
/home/hcj/UEFIWorkspace/Build/OvmfX64/DEBUG_GCC5/X64/MdePkg/Library/UefiLib/UefiLib/OUTPUT/UefiLib.lib(Acpi.obj)
                              (--whole-archive)
/home/hcj/UEFIWorkspace/Build/OvmfX64/DEBUG_GCC5/X64/MdeModulePkg/Library/UefiHiiLib/UefiHiiLib/OUTPUT/UefiHiiLib.lib(HiiLib.obj)
                              (--whole-archive)
/home/hcj/UEFIWorkspace/Build/OvmfX64/DEBUG_GCC5/X64/MdeModulePkg/Library/UefiHiiLib/UefiHiiLib/OUTPUT/UefiHiiLib.lib(HiiString.obj)
                              (--whole-archive)
/home/hcj/UEFIWorkspace/Build/OvmfX64/DEBUG_GCC5/X64/MdeModulePkg/Library/UefiHiiLib/UefiHiiLib/OUTPUT/UefiHiiLib.lib(HiiLanguage.obj)
                              (--whole-archive)
/home/hcj/UEFIWorkspace/Build/OvmfX64/DEBUG_GCC5/X64/MdePkg/Library/DxeHobLib/DxeHobLib/OUTPUT/DxeHobLib.lib(HobLib.obj)
                              (--whole-archive)
/home/hcj/UEFIWorkspace/Build/OvmfX64/DEBUG_GCC5/X64/MdePkg/Library/UefiDriverEntryPoint/UefiDriverEntryPoint/OUTPUT/UefiDriverEntryPoint.lib(DriverEntryPoint.obj)
                              (--whole-archive)
/home/hcj/UEFIWorkspace/Build/OvmfX64/DEBUG_GCC5/X64/MdeModulePkg/Library/FileExplorerLib/FileExplorerLib/OUTPUT/FileExplorerLib.lib(FileExplorerVfr.obj)
                              (--whole-archive)
/home/hcj/UEFIWorkspace/Build/OvmfX64/DEBUG_GCC5/X64/MdeModulePkg/Library/FileExplorerLib/FileExplorerLib/OUTPUT/FileExplorerLib.lib(FileExplorer.obj)
                              (--whole-archive)
/home/hcj/UEFIWorkspace/Build/OvmfX64/DEBUG_GCC5/X64/MdeModulePkg/Library/FileExplorerLib/FileExplorerLib/OUTPUT/FileExplorerLib.lib(AutoGen.obj)
                              (--whole-archive)
/home/hcj/UEFIWorkspace/Build/OvmfX64/DEBUG_GCC5/X64/MdePkg/Library/DxeServicesLib/DxeServicesLib/OUTPUT/DxeServicesLib.lib(DxeServicesLib.obj)
                              (--whole-archive)
/home/hcj/UEFIWorkspace/Build/OvmfX64/DEBUG_GCC5/X64/MdePkg/Library/DxeServicesLib/DxeServicesLib/OUTPUT/DxeServicesLib.lib(Allocate.obj)
                              (--whole-archive)

Discarded input sections

 .text          0x0000000000000000        0x0 /tmp/ccx7vo1Q.ltrans0.ltrans.o
 .data          0x0000000000000000        0x0 /tmp/ccx7vo1Q.ltrans0.ltrans.o
 .bss           0x0000000000000000        0x0 /tmp/ccx7vo1Q.ltrans0.ltrans.o
 .text.unlikely.RamDiskBlkIoReset
                0x0000000000000000        0x0 /tmp/ccx7vo1Q.ltrans0.ltrans.o
 .text.unlikely.RamDiskBlkIo2Reset
                0x0000000000000000        0x0 /tmp/ccx7vo1Q.ltrans0.ltrans.o
 .text.unlikely.RamDiskBlkIoFlushBlocks
                0x0000000000000000        0x0 /tmp/ccx7vo1Q.ltrans0.ltrans.o
 .text.unlikely.RamDiskRouteConfig
                0x0000000000000000        0x0 /tmp/ccx7vo1Q.ltrans0.ltrans.o
 .text.unlikely.RamDiskExtractConfig
                0x0000000000000000        0x0 /tmp/ccx7vo1Q.ltrans0.ltrans.o
 .text.unlikely.RamDiskBlkIo2FlushBlocksEx
                0x0000000000000000        0x0 /tmp/ccx7vo1Q.ltrans0.ltrans.o
 .text.unlikely.RamDiskBlkIoWriteBlocks
                0x0000000000000000        0x0 /tmp/ccx7vo1Q.ltrans0.ltrans.o
 .text.unlikely.RamDiskBlkIo2WriteBlocksEx
                0x0000000000000000        0x0 /tmp/ccx7vo1Q.ltrans0.ltrans.o
 .text.unlikely.RamDiskBlkIoReadBlocks
                0x0000000000000000        0x0 /tmp/ccx7vo1Q.ltrans0.ltrans.o
 .text.unlikely.RamDiskBlkIo2ReadBlocksEx
                0x0000000000000000        0x0 /tmp/ccx7vo1Q.ltrans0.ltrans.o
 .text.unlikely.UpdateMainForm
                0x0000000000000000        0x0 /tmp/ccx7vo1Q.ltrans0.ltrans.o
 .text.unlikely.HiiCreateRamDisk
                0x0000000000000000        0x0 /tmp/ccx7vo1Q.ltrans0.ltrans.o
 .text.unlikely.RamDiskCallback
                0x0000000000000000        0x0 /tmp/ccx7vo1Q.ltrans0.ltrans.o
 .text.unlikely.RamDiskPublishNfit
                0x0000000000000000        0x0 /tmp/ccx7vo1Q.ltrans0.ltrans.o
 .text.unlikely.RamDiskAcpiCheck
                0x0000000000000000        0x0 /tmp/ccx7vo1Q.ltrans0.ltrans.o
 .text.unlikely.UninstallRamDiskConfigForm
                0x0000000000000000        0x0 /tmp/ccx7vo1Q.ltrans0.ltrans.o
 .comment       0x0000000000000000       0x2e /tmp/ccx7vo1Q.ltrans0.ltrans.o
 .note.GNU-stack
                0x0000000000000000        0x0 /tmp/ccx7vo1Q.ltrans0.ltrans.o
 .text          0x0000000000000000        0x0 /tmp/ccx7vo1Q.ltrans1.ltrans.o
 .data          0x0000000000000000        0x0 /tmp/ccx7vo1Q.ltrans1.ltrans.o
 .bss           0x0000000000000000        0x0 /tmp/ccx7vo1Q.ltrans1.ltrans.o
 .text.unlikely.InternalAllocateCopyPool.constprop.24
                0x0000000000000000        0x0 /tmp/ccx7vo1Q.ltrans1.ltrans.o
 .text.unlikely.CreatePopUp.constprop.21
                0x0000000000000000        0x0 /tmp/ccx7vo1Q.ltrans1.ltrans.o
 .text.unlikely.HiiUpdateForm.constprop.20
                0x0000000000000000        0x0 /tmp/ccx7vo1Q.ltrans1.ltrans.o
 .text.unlikely.HiiSetString.constprop.16
                0x0000000000000000        0x0 /tmp/ccx7vo1Q.ltrans1.ltrans.o
 .text.unlikely.HiiCreateGuidOpCode.constprop.15
                0x0000000000000000        0x0 /tmp/ccx7vo1Q.ltrans1.ltrans.o
 .text.unlikely.HiiCreateGotoOpCode.constprop.13
                0x0000000000000000        0x0 /tmp/ccx7vo1Q.ltrans1.ltrans.o
 .text.unlikely.IsZeroBuffer.constprop.5
                0x0000000000000000        0x0 /tmp/ccx7vo1Q.ltrans1.ltrans.o
 .text.unlikely.GetBestLanguage.constprop.2
                0x0000000000000000        0x0 /tmp/ccx7vo1Q.ltrans1.ltrans.o
 .rodata._gPcd_FixedAtBuild_PcdFixedDebugPrintErrorLevel
                0x0000000000000000        0x4 /tmp/ccx7vo1Q.ltrans1.ltrans.o
 .comment       0x0000000000000000       0x2e /tmp/ccx7vo1Q.ltrans1.ltrans.o
 .note.GNU-stack
                0x0000000000000000        0x0 /tmp/ccx7vo1Q.ltrans1.ltrans.o
 .text          0x0000000000000000        0x0 /tmp/ccx7vo1Q.ltrans2.ltrans.o
 .data          0x0000000000000000        0x0 /tmp/ccx7vo1Q.ltrans2.ltrans.o
 .bss           0x0000000000000000        0x0 /tmp/ccx7vo1Q.ltrans2.ltrans.o
 .text.unlikely._DriverUnloadHandler
                0x0000000000000000        0x0 /tmp/ccx7vo1Q.ltrans2.ltrans.o
 .text.unlikely._ModuleEntryPoint
                0x0000000000000000        0x0 /tmp/ccx7vo1Q.ltrans2.ltrans.o
 .text.unlikely.HiiGetSupportedLanguages
                0x0000000000000000        0x0 /tmp/ccx7vo1Q.ltrans2.ltrans.o
 .comment       0x0000000000000000       0x2e /tmp/ccx7vo1Q.ltrans2.ltrans.o
 .note.GNU-stack
                0x0000000000000000        0x0 /tmp/ccx7vo1Q.ltrans2.ltrans.o
 .text          0x0000000000000000        0x0 /tmp/ccx7vo1Q.ltrans3.ltrans.o
 .data          0x0000000000000000        0x0 /tmp/ccx7vo1Q.ltrans3.ltrans.o
 .bss           0x0000000000000000        0x0 /tmp/ccx7vo1Q.ltrans3.ltrans.o
 .text.unlikely.InternalBaseLibIsListValid
                0x0000000000000000        0x0 /tmp/ccx7vo1Q.ltrans3.ltrans.o
 .text.unlikely.DebugPrint
                0x0000000000000000        0x0 /tmp/ccx7vo1Q.ltrans3.ltrans.o
 .text.unlikely.UnicodeSPrint
                0x0000000000000000        0x0 /tmp/ccx7vo1Q.ltrans3.ltrans.o
 .text.unlikely.BasePrintLibFillBuffer
                0x0000000000000000        0x0 /tmp/ccx7vo1Q.ltrans3.ltrans.o
 .text.unlikely.WriteUnaligned64
                0x0000000000000000        0x0 /tmp/ccx7vo1Q.ltrans3.ltrans.o
 .text.unlikely.ReadUnaligned64
                0x0000000000000000        0x0 /tmp/ccx7vo1Q.ltrans3.ltrans.o
 .text.unlikely.ReadUnaligned32
                0x0000000000000000        0x0 /tmp/ccx7vo1Q.ltrans3.ltrans.o
 .text.unlikely.ReadUnaligned16
                0x0000000000000000        0x0 /tmp/ccx7vo1Q.ltrans3.ltrans.o
 .text.unlikely.AsciiStrLen
                0x0000000000000000        0x0 /tmp/ccx7vo1Q.ltrans3.ltrans.o
 .text.unlikely.AsciiStrnCmp.part.4.lto_priv.39
                0x0000000000000000        0x0 /tmp/ccx7vo1Q.ltrans3.ltrans.o
 .text.unlikely.StrLen
                0x0000000000000000        0x0 /tmp/ccx7vo1Q.ltrans3.ltrans.o
 .text.unlikely.StrSize
                0x0000000000000000        0x0 /tmp/ccx7vo1Q.ltrans3.ltrans.o
 .text.unlikely.AsciiStrnLenS
                0x0000000000000000        0x0 /tmp/ccx7vo1Q.ltrans3.ltrans.o
 .text.unlikely.StrnLenS
                0x0000000000000000        0x0 /tmp/ccx7vo1Q.ltrans3.ltrans.o
 .text.unlikely.InternalSafeStringNoStrOverlap
                0x0000000000000000        0x0 /tmp/ccx7vo1Q.ltrans3.ltrans.o
 .text.unlikely.StrCatS
                0x0000000000000000        0x0 /tmp/ccx7vo1Q.ltrans3.ltrans.o
 .text.unlikely.StrCpyS
                0x0000000000000000        0x0 /tmp/ccx7vo1Q.ltrans3.ltrans.o
 .text.unlikely.IsListEmpty
                0x0000000000000000        0x0 /tmp/ccx7vo1Q.ltrans3.ltrans.o
 .text.unlikely.RemoveEntryList
                0x0000000000000000        0x0 /tmp/ccx7vo1Q.ltrans3.ltrans.o
 .text.unlikely.InsertTailList
                0x0000000000000000        0x0 /tmp/ccx7vo1Q.ltrans3.ltrans.o
 .text.unlikely.InitializeListHead
                0x0000000000000000        0x0 /tmp/ccx7vo1Q.ltrans3.ltrans.o
 .text.unlikely.InternalAssertJumpBuffer
                0x0000000000000000        0x0 /tmp/ccx7vo1Q.ltrans3.ltrans.o
 .text.InternalAssertJumpBuffer
                0x0000000000000000       0x56 /tmp/ccx7vo1Q.ltrans3.ltrans.o
 .text.unlikely.CalculateCheckSum8
                0x0000000000000000        0x0 /tmp/ccx7vo1Q.ltrans3.ltrans.o
 .text.unlikely.CompareGuid
                0x0000000000000000        0x0 /tmp/ccx7vo1Q.ltrans3.ltrans.o
 .text.unlikely.CopyGuid
                0x0000000000000000        0x0 /tmp/ccx7vo1Q.ltrans3.ltrans.o
 .text.unlikely.CopyMem
                0x0000000000000000        0x0 /tmp/ccx7vo1Q.ltrans3.ltrans.o
 .text.unlikely.SetMem16.part.0.lto_priv.38
                0x0000000000000000        0x0 /tmp/ccx7vo1Q.ltrans3.ltrans.o
 .comment       0x0000000000000000       0x2e /tmp/ccx7vo1Q.ltrans3.ltrans.o
 .note.GNU-stack
                0x0000000000000000        0x0 /tmp/ccx7vo1Q.ltrans3.ltrans.o
 .text          0x0000000000000000        0x0 /tmp/ccx7vo1Q.ltrans4.ltrans.o
 .data          0x0000000000000000        0x0 /tmp/ccx7vo1Q.ltrans4.ltrans.o
 .bss           0x0000000000000000        0x0 /tmp/ccx7vo1Q.ltrans4.ltrans.o
 .text.unlikely.BasePrintLibSPrintMarker.constprop.34
                0x0000000000000000        0x0 /tmp/ccx7vo1Q.ltrans4.ltrans.o
 .text.unlikely.AsciiSPrint.constprop.32
                0x0000000000000000        0x0 /tmp/ccx7vo1Q.ltrans4.ltrans.o
 .text.unlikely.DebugPrintMarker.part.0.constprop.30
                0x0000000000000000        0x0 /tmp/ccx7vo1Q.ltrans4.ltrans.o
 .text.unlikely.InternalAllocatePool.constprop.28
                0x0000000000000000        0x0 /tmp/ccx7vo1Q.ltrans4.ltrans.o
 .rodata._gPcd_FixedAtBuild_PcdDebugIoPort
                0x0000000000000000        0x2 /tmp/ccx7vo1Q.ltrans4.ltrans.o
 .comment       0x0000000000000000       0x2e /tmp/ccx7vo1Q.ltrans4.ltrans.o
 .note.GNU-stack
                0x0000000000000000        0x0 /tmp/ccx7vo1Q.ltrans4.ltrans.o
 .text          0x0000000000000000        0x0 /tmp/ccx7vo1Q.ltrans5.ltrans.o
 .data          0x0000000000000000        0x0 /tmp/ccx7vo1Q.ltrans5.ltrans.o
 .bss           0x0000000000000000        0x0 /tmp/ccx7vo1Q.ltrans5.ltrans.o
 .text.unlikely.HiiGetStringEx.constprop.1
                0x0000000000000000        0x0 /tmp/ccx7vo1Q.ltrans5.ltrans.o
 .text.unlikely.LibGetDevicePath
                0x0000000000000000        0x0 /tmp/ccx7vo1Q.ltrans5.ltrans.o
 .text.unlikely.LibUpdateFileExplorePage
                0x0000000000000000        0x0 /tmp/ccx7vo1Q.ltrans5.ltrans.o
 .text.unlikely.LibAppendFileName
                0x0000000000000000        0x0 /tmp/ccx7vo1Q.ltrans5.ltrans.o
 .text.unlikely.LibCreateNewFile
                0x0000000000000000        0x0 /tmp/ccx7vo1Q.ltrans5.ltrans.o
 .text.unlikely.LibStrDuplicate
                0x0000000000000000        0x0 /tmp/ccx7vo1Q.ltrans5.ltrans.o
 .text.unlikely.LibFreeMenu
                0x0000000000000000        0x0 /tmp/ccx7vo1Q.ltrans5.ltrans.o
 .comment       0x0000000000000000       0x2e /tmp/ccx7vo1Q.ltrans5.ltrans.o
 .note.GNU-stack
                0x0000000000000000        0x0 /tmp/ccx7vo1Q.ltrans5.ltrans.o
 .text          0x0000000000000000        0x0 /tmp/ccx7vo1Q.ltrans6.ltrans.o
 .data          0x0000000000000000        0x0 /tmp/ccx7vo1Q.ltrans6.ltrans.o
 .bss           0x0000000000000000        0x0 /tmp/ccx7vo1Q.ltrans6.ltrans.o
 .text.unlikely.RamDiskUnregister
                0x0000000000000000        0x0 /tmp/ccx7vo1Q.ltrans6.ltrans.o
 .text.unlikely.CompareMem
                0x0000000000000000        0x0 /tmp/ccx7vo1Q.ltrans6.ltrans.o
 .text.unlikely.RamDiskRegister
                0x0000000000000000        0x0 /tmp/ccx7vo1Q.ltrans6.ltrans.o
 .text.unlikely.ZeroMem
                0x0000000000000000        0x0 /tmp/ccx7vo1Q.ltrans6.ltrans.o
 .text.unlikely.ProcessLibraryDestructorList
                0x0000000000000000        0x0 /tmp/ccx7vo1Q.ltrans6.ltrans.o
 .comment       0x0000000000000000       0x2e /tmp/ccx7vo1Q.ltrans6.ltrans.o
 .note.GNU-stack
                0x0000000000000000        0x0 /tmp/ccx7vo1Q.ltrans6.ltrans.o
 .text          0x0000000000000000        0x0 /tmp/ccx7vo1Q.ltrans7.ltrans.o
 .data          0x0000000000000000        0x0 /tmp/ccx7vo1Q.ltrans7.ltrans.o
 .bss           0x0000000000000000        0x0 /tmp/ccx7vo1Q.ltrans7.ltrans.o
 .text.unlikely.EfiEventEmptyFunction
                0x0000000000000000        0x0 /tmp/ccx7vo1Q.ltrans7.ltrans.o
 .text.EfiEventEmptyFunction
                0x0000000000000000        0x1 /tmp/ccx7vo1Q.ltrans7.ltrans.o
 .text.unlikely.UefiLibGetStringWidth
                0x0000000000000000        0x0 /tmp/ccx7vo1Q.ltrans7.ltrans.o
 .text.unlikely.DevicePathFromHandle
                0x0000000000000000        0x0 /tmp/ccx7vo1Q.ltrans7.ltrans.o
 .text.unlikely.DuplicateDevicePath
                0x0000000000000000        0x0 /tmp/ccx7vo1Q.ltrans7.ltrans.o
 .text.unlikely.AllocateZeroPool
                0x0000000000000000        0x0 /tmp/ccx7vo1Q.ltrans7.ltrans.o
 .text.unlikely.PlatformDebugLibIoPortFound
                0x0000000000000000        0x0 /tmp/ccx7vo1Q.ltrans7.ltrans.o
 .text.unlikely.DebugPrintEnabled
                0x0000000000000000        0x0 /tmp/ccx7vo1Q.ltrans7.ltrans.o
 .text.unlikely.DebugAssertEnabled
                0x0000000000000000        0x0 /tmp/ccx7vo1Q.ltrans7.ltrans.o
 .text.unlikely.DebugAssert
                0x0000000000000000        0x0 /tmp/ccx7vo1Q.ltrans7.ltrans.o
 .text.unlikely.HiiRemovePackages
                0x0000000000000000        0x0 /tmp/ccx7vo1Q.ltrans7.ltrans.o
 .text.unlikely.DevicePathNodeLength
                0x0000000000000000        0x0 /tmp/ccx7vo1Q.ltrans7.ltrans.o
 .text.unlikely.NextDevicePathNode
                0x0000000000000000        0x0 /tmp/ccx7vo1Q.ltrans7.ltrans.o
 .text.unlikely.DevicePathSubType
                0x0000000000000000        0x0 /tmp/ccx7vo1Q.ltrans7.ltrans.o
 .text.unlikely.DevicePathType
                0x0000000000000000        0x0 /tmp/ccx7vo1Q.ltrans7.ltrans.o
 .text.unlikely.IsDevicePathEnd
                0x0000000000000000        0x0 /tmp/ccx7vo1Q.ltrans7.ltrans.o
 .text.unlikely.FreePool
                0x0000000000000000        0x0 /tmp/ccx7vo1Q.ltrans7.ltrans.o
 .text.unlikely.InternalHiiCreateOpCodeExtended
                0x0000000000000000        0x0 /tmp/ccx7vo1Q.ltrans7.ltrans.o
 .text.unlikely.HiiFreeOpCodeHandle
                0x0000000000000000        0x0 /tmp/ccx7vo1Q.ltrans7.ltrans.o
 .text.unlikely.HiiAllocateOpCodeHandle
                0x0000000000000000        0x0 /tmp/ccx7vo1Q.ltrans7.ltrans.o
 .text.unlikely.HiiAddPackages
                0x0000000000000000        0x0 /tmp/ccx7vo1Q.ltrans7.ltrans.o
 .text.unlikely.FileDevicePath
                0x0000000000000000        0x0 /tmp/ccx7vo1Q.ltrans7.ltrans.o
 .comment       0x0000000000000000       0x2e /tmp/ccx7vo1Q.ltrans7.ltrans.o
 .note.GNU-stack
                0x0000000000000000        0x0 /tmp/ccx7vo1Q.ltrans7.ltrans.o
 .text          0x0000000000000000        0x0 /tmp/ccx7vo1Q.ltrans8.ltrans.o
 .data          0x0000000000000000        0x0 /tmp/ccx7vo1Q.ltrans8.ltrans.o
 .bss           0x0000000000000000        0x0 /tmp/ccx7vo1Q.ltrans8.ltrans.o
 .text.unlikely.LibExtractConfig
                0x0000000000000000        0x0 /tmp/ccx7vo1Q.ltrans8.ltrans.o
 .text.unlikely.LibRouteConfig
                0x0000000000000000        0x0 /tmp/ccx7vo1Q.ltrans8.ltrans.o
 .text.unlikely.LibDestroyMenuEntry
                0x0000000000000000        0x0 /tmp/ccx7vo1Q.ltrans8.ltrans.o
 .text.unlikely.LibGetMenuEntry
                0x0000000000000000        0x0 /tmp/ccx7vo1Q.ltrans8.ltrans.o
 .text.unlikely.LibCreateMenuEntry
                0x0000000000000000        0x0 /tmp/ccx7vo1Q.ltrans8.ltrans.o
 .text.unlikely.LibCallback
                0x0000000000000000        0x0 /tmp/ccx7vo1Q.ltrans8.ltrans.o
 .comment       0x0000000000000000       0x2e /tmp/ccx7vo1Q.ltrans8.ltrans.o
 .note.GNU-stack
                0x0000000000000000        0x0 /tmp/ccx7vo1Q.ltrans8.ltrans.o
 .text          0x0000000000000000        0x0 /tmp/ccx7vo1Q.ltrans9.ltrans.o
 .data          0x0000000000000000        0x0 /tmp/ccx7vo1Q.ltrans9.ltrans.o
 .bss           0x0000000000000000        0x0 /tmp/ccx7vo1Q.ltrans9.ltrans.o
 .text.unlikely.BasePrintLibSPrint.constprop.35
                0x0000000000000000        0x0 /tmp/ccx7vo1Q.ltrans9.ltrans.o
 .comment       0x0000000000000000       0x2e /tmp/ccx7vo1Q.ltrans9.ltrans.o
 .note.GNU-stack
                0x0000000000000000        0x0 /tmp/ccx7vo1Q.ltrans9.ltrans.o
 .text          0x0000000000000000       0x17 /home/hcj/UEFIWorkspace/Build/OvmfX64/DEBUG_GCC5/X64/MdePkg/Library/BaseMemoryLibRepStr/BaseMemoryLibRepStr/OUTPUT/BaseMemoryLibRepStr.lib(ScanMem64.obj)
 .text          0x0000000000000000       0x16 /home/hcj/UEFIWorkspace/Build/OvmfX64/DEBUG_GCC5/X64/MdePkg/Library/BaseMemoryLibRepStr/BaseMemoryLibRepStr/OUTPUT/BaseMemoryLibRepStr.lib(ScanMem32.obj)
 .text          0x0000000000000000       0x17 /home/hcj/UEFIWorkspace/Build/OvmfX64/DEBUG_GCC5/X64/MdePkg/Library/BaseMemoryLibRepStr/BaseMemoryLibRepStr/OUTPUT/BaseMemoryLibRepStr.lib(ScanMem16.obj)
 .text          0x0000000000000000       0x16 /home/hcj/UEFIWorkspace/Build/OvmfX64/DEBUG_GCC5/X64/MdePkg/Library/BaseMemoryLibRepStr/BaseMemoryLibRepStr/OUTPUT/BaseMemoryLibRepStr.lib(ScanMem8.obj)
 .text          0x0000000000000000       0x12 /home/hcj/UEFIWorkspace/Build/OvmfX64/DEBUG_GCC5/X64/MdePkg/Library/BaseMemoryLibRepStr/BaseMemoryLibRepStr/OUTPUT/BaseMemoryLibRepStr.lib(SetMem64.obj)
 .text          0x0000000000000000       0x11 /home/hcj/UEFIWorkspace/Build/OvmfX64/DEBUG_GCC5/X64/MdePkg/Library/BaseMemoryLibRepStr/BaseMemoryLibRepStr/OUTPUT/BaseMemoryLibRepStr.lib(SetMem32.obj)
 .text          0x0000000000000000       0x11 /home/hcj/UEFIWorkspace/Build/OvmfX64/DEBUG_GCC5/X64/MdePkg/Library/BaseMemoryLibRepStr/BaseMemoryLibRepStr/OUTPUT/BaseMemoryLibRepStr.lib(SetMem.obj)
 .text          0x0000000000000000      0x204 /home/hcj/UEFIWorkspace/Build/OvmfX64/DEBUG_GCC5/X64/MdePkg/Library/BaseLib/BaseLib/OUTPUT/BaseLib.lib(Thunk16.obj)
 .data          0x0000000000000000        0xa /home/hcj/UEFIWorkspace/Build/OvmfX64/DEBUG_GCC5/X64/MdePkg/Library/BaseLib/BaseLib/OUTPUT/BaseLib.lib(Thunk16.obj)
 .text          0x0000000000000000       0x2f /home/hcj/UEFIWorkspace/Build/OvmfX64/DEBUG_GCC5/X64/MdePkg/Library/BaseLib/BaseLib/OUTPUT/BaseLib.lib(CpuIdEx.obj)
 .text          0x0000000000000000       0x27 /home/hcj/UEFIWorkspace/Build/OvmfX64/DEBUG_GCC5/X64/MdePkg/Library/BaseLib/BaseLib/OUTPUT/BaseLib.lib(CpuId.obj)
 .text          0x0000000000000000       0xac /home/hcj/UEFIWorkspace/Build/OvmfX64/DEBUG_GCC5/X64/MdePkg/Library/BaseLib/BaseLib/OUTPUT/BaseLib.lib(LongJump.obj)
 .text          0x0000000000000000       0xc2 /home/hcj/UEFIWorkspace/Build/OvmfX64/DEBUG_GCC5/X64/MdePkg/Library/BaseLib/BaseLib/OUTPUT/BaseLib.lib(SetJump.obj)
 .text          0x0000000000000000        0xf /home/hcj/UEFIWorkspace/Build/OvmfX64/DEBUG_GCC5/X64/MdePkg/Library/BaseLib/BaseLib/OUTPUT/BaseLib.lib(SwitchStack.obj)
 .text          0x0000000000000000       0x13 /home/hcj/UEFIWorkspace/Build/OvmfX64/DEBUG_GCC5/X64/MdePkg/Library/BaseLib/BaseLib/OUTPUT/BaseLib.lib(EnableCache.obj)
 .text          0x0000000000000000       0x13 /home/hcj/UEFIWorkspace/Build/OvmfX64/DEBUG_GCC5/X64/MdePkg/Library/BaseLib/BaseLib/OUTPUT/BaseLib.lib(DisableCache.obj)
 .text          0x0000000000000000        0x6 /home/hcj/UEFIWorkspace/Build/OvmfX64/DEBUG_GCC5/X64/MdePkg/Library/BaseLib/BaseLib/OUTPUT/BaseLib.lib(WriteTr.obj)
 .text          0x0000000000000000        0x4 /home/hcj/UEFIWorkspace/Build/OvmfX64/DEBUG_GCC5/X64/MdePkg/Library/BaseLib/BaseLib/OUTPUT/BaseLib.lib(Lfence.obj)
 .text          0x0000000000000000        0x3 /home/hcj/UEFIWorkspace/Build/OvmfX64/DEBUG_GCC5/X64/MdePkg/Library/BaseLib/BaseLib/OUTPUT/BaseLib.lib(EnableDisableInterrupts.obj)
 .text          0x0000000000000000       0x61 /home/hcj/UEFIWorkspace/Build/OvmfX64/DEBUG_GCC5/X64/MdePkg/Library/BaseLib/BaseLib/OUTPUT/BaseLib.lib(DisablePaging64.obj)
 .text          0x0000000000000000       0x1b /home/hcj/UEFIWorkspace/Build/OvmfX64/DEBUG_GCC5/X64/MdePkg/Library/BaseLib/BaseLib/OUTPUT/BaseLib.lib(Pvalidate.obj)
 .text          0x0000000000000000       0x36 /home/hcj/UEFIWorkspace/Build/OvmfX64/DEBUG_GCC5/X64/MdePkg/Library/BaseLib/BaseLib/OUTPUT/BaseLib.lib(RdRand.obj)
 .text          0x0000000000000000        0xe /home/hcj/UEFIWorkspace/Build/OvmfX64/DEBUG_GCC5/X64/MdePkg/Library/BaseLib/BaseLib/OUTPUT/BaseLib.lib(RmpAdjust.obj)
 .text          0x0000000000000000        0xb /home/hcj/UEFIWorkspace/Build/OvmfX64/DEBUG_GCC5/X64/MdePkg/Library/BaseLib/BaseLib/OUTPUT/BaseLib.lib(XGetBv.obj)
 .text          0x0000000000000000        0xb /home/hcj/UEFIWorkspace/Build/OvmfX64/DEBUG_GCC5/X64/MdePkg/Library/BaseLib/BaseLib/OUTPUT/BaseLib.lib(XSetBv.obj)
 .text          0x0000000000000000        0x5 /home/hcj/UEFIWorkspace/Build/OvmfX64/DEBUG_GCC5/X64/MdePkg/Library/BaseLib/BaseLib/OUTPUT/BaseLib.lib(VmgExit.obj)

Memory Configuration

Name             Origin             Length             Attributes
*default*        0x0000000000000000 0xffffffffffffffff

Linker script and memory map

LOAD /tmp/ccx7vo1Q.ltrans0.ltrans.o
LOAD /tmp/ccx7vo1Q.ltrans1.ltrans.o
LOAD /tmp/ccx7vo1Q.ltrans2.ltrans.o
LOAD /tmp/ccx7vo1Q.ltrans3.ltrans.o
LOAD /tmp/ccx7vo1Q.ltrans4.ltrans.o
LOAD /tmp/ccx7vo1Q.ltrans5.ltrans.o
LOAD /tmp/ccx7vo1Q.ltrans6.ltrans.o
LOAD /tmp/ccx7vo1Q.ltrans7.ltrans.o
LOAD /tmp/ccx7vo1Q.ltrans8.ltrans.o
LOAD /tmp/ccx7vo1Q.ltrans9.ltrans.o
START GROUP
LOAD /home/hcj/UEFIWorkspace/Build/OvmfX64/DEBUG_GCC5/X64/MdeModulePkg/Universal/Disk/RamDiskDxe/RamDiskDxe/OUTPUT/RamDiskDxe.lib
LOAD /home/hcj/UEFIWorkspace/Build/OvmfX64/DEBUG_GCC5/X64/MdePkg/Library/RegisterFilterLibNull/RegisterFilterLibNull/OUTPUT/FilterLibNull.lib
LOAD /home/hcj/UEFIWorkspace/Build/OvmfX64/DEBUG_GCC5/X64/MdePkg/Library/DxePcdLib/DxePcdLib/OUTPUT/DxePcdLib.lib
LOAD /home/hcj/UEFIWorkspace/Build/OvmfX64/DEBUG_GCC5/X64/MdePkg/Library/BaseMemoryLibRepStr/BaseMemoryLibRepStr/OUTPUT/BaseMemoryLibRepStr.lib
LOAD /home/hcj/UEFIWorkspace/Build/OvmfX64/DEBUG_GCC5/X64/MdePkg/Library/BaseLib/BaseLib/OUTPUT/BaseLib.lib
LOAD /home/hcj/UEFIWorkspace/Build/OvmfX64/DEBUG_GCC5/X64/MdePkg/Library/BaseDebugPrintErrorLevelLib/BaseDebugPrintErrorLevelLib/OUTPUT/BaseDebugPrintErrorLevelLib.lib
LOAD /home/hcj/UEFIWorkspace/Build/OvmfX64/DEBUG_GCC5/X64/MdePkg/Library/BaseIoLibIntrinsic/BaseIoLibIntrinsicSev/OUTPUT/BaseIoLibIntrinsicSev.lib
LOAD /home/hcj/UEFIWorkspace/Build/OvmfX64/DEBUG_GCC5/X64/MdePkg/Library/BasePrintLib/BasePrintLib/OUTPUT/BasePrintLib.lib
LOAD /home/hcj/UEFIWorkspace/Build/OvmfX64/DEBUG_GCC5/X64/OvmfPkg/Library/PlatformDebugLibIoPort/PlatformDebugLibIoPort/OUTPUT/PlatformDebugLibIoPort.lib
LOAD /home/hcj/UEFIWorkspace/Build/OvmfX64/DEBUG_GCC5/X64/MdePkg/Library/UefiBootServicesTableLib/UefiBootServicesTableLib/OUTPUT/UefiBootServicesTableLib.lib
LOAD /home/hcj/UEFIWorkspace/Build/OvmfX64/DEBUG_GCC5/X64/MdePkg/Library/UefiMemoryAllocationLib/UefiMemoryAllocationLib/OUTPUT/UefiMemoryAllocationLib.lib
LOAD /home/hcj/UEFIWorkspace/Build/OvmfX64/DEBUG_GCC5/X64/MdePkg/Library/UefiRuntimeServicesTableLib/UefiRuntimeServicesTableLib/OUTPUT/UefiRuntimeServicesTableLib.lib
LOAD /home/hcj/UEFIWorkspace/Build/OvmfX64/DEBUG_GCC5/X64/MdePkg/Library/UefiDevicePathLibDevicePathProtocol/UefiDevicePathLibDevicePathProtocol/OUTPUT/UefiDevicePathLibDevicePathProtocol.lib
LOAD /home/hcj/UEFIWorkspace/Build/OvmfX64/DEBUG_GCC5/X64/MdeModulePkg/Library/UefiHiiServicesLib/UefiHiiServicesLib/OUTPUT/UefiHiiServicesLib.lib
LOAD /home/hcj/UEFIWorkspace/Build/OvmfX64/DEBUG_GCC5/X64/MdePkg/Library/UefiLib/UefiLib/OUTPUT/UefiLib.lib
LOAD /home/hcj/UEFIWorkspace/Build/OvmfX64/DEBUG_GCC5/X64/MdeModulePkg/Library/UefiHiiLib/UefiHiiLib/OUTPUT/UefiHiiLib.lib
LOAD /home/hcj/UEFIWorkspace/Build/OvmfX64/DEBUG_GCC5/X64/MdePkg/Library/DxeHobLib/DxeHobLib/OUTPUT/DxeHobLib.lib
LOAD /home/hcj/UEFIWorkspace/Build/OvmfX64/DEBUG_GCC5/X64/MdePkg/Library/UefiDriverEntryPoint/UefiDriverEntryPoint/OUTPUT/UefiDriverEntryPoint.lib
LOAD /home/hcj/UEFIWorkspace/Build/OvmfX64/DEBUG_GCC5/X64/MdeModulePkg/Library/FileExplorerLib/FileExplorerLib/OUTPUT/FileExplorerLib.lib
LOAD /home/hcj/UEFIWorkspace/Build/OvmfX64/DEBUG_GCC5/X64/MdePkg/Library/DxeServicesLib/DxeServicesLib/OUTPUT/DxeServicesLib.lib
END GROUP
                0x0000000000000228                PECOFF_HEADER_SIZE = 0x228
                0x0000000000000228                . = PECOFF_HEADER_SIZE

.text           0x0000000000000240     0x9bb2
 *(.text .text.* .stub .gnu.linkonce.t.*)
 .text.RamDiskBlkIoReset
                0x0000000000000240        0x3 /tmp/ccx7vo1Q.ltrans0.ltrans.o
                0x0000000000000240                RamDiskBlkIoReset
 .text.RamDiskBlkIo2Reset
                0x0000000000000243        0x3 /tmp/ccx7vo1Q.ltrans0.ltrans.o
                0x0000000000000243                RamDiskBlkIo2Reset
 .text.RamDiskBlkIoFlushBlocks
                0x0000000000000246        0x3 /tmp/ccx7vo1Q.ltrans0.ltrans.o
                0x0000000000000246                RamDiskBlkIoFlushBlocks
 .text.RamDiskRouteConfig
                0x0000000000000249       0x23 /tmp/ccx7vo1Q.ltrans0.ltrans.o
                0x0000000000000249                RamDiskRouteConfig
 .text.RamDiskExtractConfig
                0x000000000000026c       0x23 /tmp/ccx7vo1Q.ltrans0.ltrans.o
                0x000000000000026c                RamDiskExtractConfig
 .text.RamDiskBlkIo2FlushBlocksEx
                0x000000000000028f       0x77 /tmp/ccx7vo1Q.ltrans0.ltrans.o
                0x000000000000028f                RamDiskBlkIo2FlushBlocksEx
 .text.RamDiskBlkIoWriteBlocks
                0x0000000000000306       0xf5 /tmp/ccx7vo1Q.ltrans0.ltrans.o
                0x0000000000000306                RamDiskBlkIoWriteBlocks
 .text.RamDiskBlkIo2WriteBlocksEx
                0x00000000000003fb       0x9e /tmp/ccx7vo1Q.ltrans0.ltrans.o
                0x00000000000003fb                RamDiskBlkIo2WriteBlocksEx
 .text.RamDiskBlkIoReadBlocks
                0x0000000000000499       0xe1 /tmp/ccx7vo1Q.ltrans0.ltrans.o
                0x0000000000000499                RamDiskBlkIoReadBlocks
 .text.RamDiskBlkIo2ReadBlocksEx
                0x000000000000057a       0x9e /tmp/ccx7vo1Q.ltrans0.ltrans.o
                0x000000000000057a                RamDiskBlkIo2ReadBlocksEx
 .text.UpdateMainForm
                0x0000000000000618      0x2b4 /tmp/ccx7vo1Q.ltrans0.ltrans.o
 .text.HiiCreateRamDisk
                0x00000000000008cc      0x32c /tmp/ccx7vo1Q.ltrans0.ltrans.o
 .text.RamDiskCallback
                0x0000000000000bf8      0x889 /tmp/ccx7vo1Q.ltrans0.ltrans.o
                0x0000000000000bf8                RamDiskCallback
 .text.RamDiskPublishNfit
                0x0000000000001481      0x7a7 /tmp/ccx7vo1Q.ltrans0.ltrans.o
                0x0000000000001481                RamDiskPublishNfit
 .text.RamDiskAcpiCheck
                0x0000000000001c28      0x103 /tmp/ccx7vo1Q.ltrans0.ltrans.o
                0x0000000000001c28                RamDiskAcpiCheck
 .text.UninstallRamDiskConfigForm
                0x0000000000001d2b       0x76 /tmp/ccx7vo1Q.ltrans0.ltrans.o
                0x0000000000001d2b                UninstallRamDiskConfigForm
 .text.InternalAllocateCopyPool.constprop.24
                0x0000000000001da1       0x90 /tmp/ccx7vo1Q.ltrans1.ltrans.o
                0x0000000000001da1                InternalAllocateCopyPool.constprop.24
 .text.CreatePopUp.constprop.21
                0x0000000000001e31      0x6f3 /tmp/ccx7vo1Q.ltrans1.ltrans.o
                0x0000000000001e31                CreatePopUp.constprop.21
 .text.HiiUpdateForm.constprop.20
                0x0000000000002524      0x514 /tmp/ccx7vo1Q.ltrans1.ltrans.o
                0x0000000000002524                HiiUpdateForm.constprop.20
 .text.HiiSetString.constprop.16
                0x0000000000002a38      0x15c /tmp/ccx7vo1Q.ltrans1.ltrans.o
                0x0000000000002a38                HiiSetString.constprop.16
 .text.HiiCreateGuidOpCode.constprop.15
                0x0000000000002b94       0x5a /tmp/ccx7vo1Q.ltrans1.ltrans.o
                0x0000000000002b94                HiiCreateGuidOpCode.constprop.15
 .text.HiiCreateGotoOpCode.constprop.13
                0x0000000000002bee       0x86 /tmp/ccx7vo1Q.ltrans1.ltrans.o
                0x0000000000002bee                HiiCreateGotoOpCode.constprop.13
 .text.IsZeroBuffer.constprop.5
                0x0000000000002c74       0x52 /tmp/ccx7vo1Q.ltrans1.ltrans.o
                0x0000000000002c74                IsZeroBuffer.constprop.5
 .text.GetBestLanguage.constprop.2
                0x0000000000002cc6      0x11f /tmp/ccx7vo1Q.ltrans1.ltrans.o
                0x0000000000002cc6                GetBestLanguage.constprop.2
 .text._DriverUnloadHandler
                0x0000000000002de5      0x1bb /tmp/ccx7vo1Q.ltrans2.ltrans.o
 .text._ModuleEntryPoint
                0x0000000000002fa0      0x8ca /tmp/ccx7vo1Q.ltrans2.ltrans.o
                0x0000000000002fa0                _ModuleEntryPoint
 .text.HiiGetSupportedLanguages
                0x000000000000386a       0xa7 /tmp/ccx7vo1Q.ltrans2.ltrans.o
                0x000000000000386a                HiiGetSupportedLanguages
 .text.InternalBaseLibIsListValid
                0x0000000000003911       0x9e /tmp/ccx7vo1Q.ltrans3.ltrans.o
 .text.DebugPrint
                0x00000000000039af       0x65 /tmp/ccx7vo1Q.ltrans3.ltrans.o
                0x00000000000039af                DebugPrint
 .text.UnicodeSPrint
                0x0000000000003a14       0x63 /tmp/ccx7vo1Q.ltrans3.ltrans.o
                0x0000000000003a14                UnicodeSPrint
 .text.BasePrintLibFillBuffer
                0x0000000000003a77       0x2e /tmp/ccx7vo1Q.ltrans3.ltrans.o
                0x0000000000003a77                BasePrintLibFillBuffer
 .text.WriteUnaligned64
                0x0000000000003aa5       0x3f /tmp/ccx7vo1Q.ltrans3.ltrans.o
                0x0000000000003aa5                WriteUnaligned64
 .text.ReadUnaligned64
                0x0000000000003ae4       0x37 /tmp/ccx7vo1Q.ltrans3.ltrans.o
                0x0000000000003ae4                ReadUnaligned64
 .text.ReadUnaligned32
                0x0000000000003b1b       0x36 /tmp/ccx7vo1Q.ltrans3.ltrans.o
                0x0000000000003b1b                ReadUnaligned32
 .text.ReadUnaligned16
                0x0000000000003b51       0x37 /tmp/ccx7vo1Q.ltrans3.ltrans.o
                0x0000000000003b51                ReadUnaligned16
 .text.AsciiStrLen
                0x0000000000003b88       0x85 /tmp/ccx7vo1Q.ltrans3.ltrans.o
                0x0000000000003b88                AsciiStrLen
 .text.AsciiStrnCmp.part.4.lto_priv.39
                0x0000000000003c0d       0xd6 /tmp/ccx7vo1Q.ltrans3.ltrans.o
                0x0000000000003c0d                AsciiStrnCmp.part.4.lto_priv.39
 .text.StrLen   0x0000000000003ce3       0x90 /tmp/ccx7vo1Q.ltrans3.ltrans.o
                0x0000000000003ce3                StrLen
 .text.StrSize  0x0000000000003d73       0x13 /tmp/ccx7vo1Q.ltrans3.ltrans.o
                0x0000000000003d73                StrSize
 .text.AsciiStrnLenS
                0x0000000000003d86       0x26 /tmp/ccx7vo1Q.ltrans3.ltrans.o
                0x0000000000003d86                AsciiStrnLenS
 .text.StrnLenS
                0x0000000000003dac       0x5e /tmp/ccx7vo1Q.ltrans3.ltrans.o
                0x0000000000003dac                StrnLenS
 .text.InternalSafeStringNoStrOverlap
                0x0000000000003e0a       0x29 /tmp/ccx7vo1Q.ltrans3.ltrans.o
                0x0000000000003e0a                InternalSafeStringNoStrOverlap
 .text.StrCatS  0x0000000000003e33      0x2a3 /tmp/ccx7vo1Q.ltrans3.ltrans.o
                0x0000000000003e33                StrCatS
 .text.StrCpyS  0x00000000000040d6      0x242 /tmp/ccx7vo1Q.ltrans3.ltrans.o
                0x00000000000040d6                StrCpyS
 .text.IsListEmpty
                0x0000000000004318       0x41 /tmp/ccx7vo1Q.ltrans3.ltrans.o
                0x0000000000004318                IsListEmpty
 .text.RemoveEntryList
                0x0000000000004359       0x53 /tmp/ccx7vo1Q.ltrans3.ltrans.o
                0x0000000000004359                RemoveEntryList
 .text.InsertTailList
                0x00000000000043ac       0x55 /tmp/ccx7vo1Q.ltrans3.ltrans.o
                0x00000000000043ac                InsertTailList
 .text.InitializeListHead
                0x0000000000004401       0x3e /tmp/ccx7vo1Q.ltrans3.ltrans.o
                0x0000000000004401                InitializeListHead
 .text.CalculateCheckSum8
                0x000000000000443f       0x6f /tmp/ccx7vo1Q.ltrans3.ltrans.o
                0x000000000000443f                CalculateCheckSum8
 .text.CompareGuid
                0x00000000000044ae       0x4d /tmp/ccx7vo1Q.ltrans3.ltrans.o
                0x00000000000044ae                CompareGuid
 .text.CopyGuid
                0x00000000000044fb       0x3e /tmp/ccx7vo1Q.ltrans3.ltrans.o
                0x00000000000044fb                CopyGuid
 .text.CopyMem  0x0000000000004539       0x90 /tmp/ccx7vo1Q.ltrans3.ltrans.o
                0x0000000000004539                CopyMem
 .text.SetMem16.part.0.lto_priv.38
                0x00000000000045c9       0xb1 /tmp/ccx7vo1Q.ltrans3.ltrans.o
                0x00000000000045c9                SetMem16.part.0.lto_priv.38
 .text.BasePrintLibSPrintMarker.constprop.34
                0x000000000000467a     0x10c2 /tmp/ccx7vo1Q.ltrans4.ltrans.o
                0x000000000000467a                BasePrintLibSPrintMarker.constprop.34
 .text.AsciiSPrint.constprop.32
                0x000000000000573c       0x32 /tmp/ccx7vo1Q.ltrans4.ltrans.o
                0x000000000000573c                AsciiSPrint.constprop.32
 .text.DebugPrintMarker.part.0.constprop.30
                0x000000000000576e       0x3d /tmp/ccx7vo1Q.ltrans4.ltrans.o
                0x000000000000576e                DebugPrintMarker.part.0.constprop.30
 .text.InternalAllocatePool.constprop.28
                0x00000000000057ab       0x37 /tmp/ccx7vo1Q.ltrans4.ltrans.o
                0x00000000000057ab                InternalAllocatePool.constprop.28
 .text.HiiGetStringEx.constprop.1
                0x00000000000057e2      0x224 /tmp/ccx7vo1Q.ltrans5.ltrans.o
                0x00000000000057e2                HiiGetStringEx.constprop.1
 .text.LibGetDevicePath
                0x0000000000005a06       0x55 /tmp/ccx7vo1Q.ltrans5.ltrans.o
                0x0000000000005a06                LibGetDevicePath
 .text.LibUpdateFileExplorePage
                0x0000000000005a5b      0x2a3 /tmp/ccx7vo1Q.ltrans5.ltrans.o
                0x0000000000005a5b                LibUpdateFileExplorePage
 .text.LibAppendFileName
                0x0000000000005cfe      0x1ec /tmp/ccx7vo1Q.ltrans5.ltrans.o
                0x0000000000005cfe                LibAppendFileName
 .text.LibCreateNewFile
                0x0000000000005eea      0x334 /tmp/ccx7vo1Q.ltrans5.ltrans.o
                0x0000000000005eea                LibCreateNewFile
 .text.LibStrDuplicate
                0x000000000000621e       0x78 /tmp/ccx7vo1Q.ltrans5.ltrans.o
                0x000000000000621e                LibStrDuplicate
 .text.LibFreeMenu
                0x0000000000006296       0x90 /tmp/ccx7vo1Q.ltrans5.ltrans.o
                0x0000000000006296                LibFreeMenu
 .text.RamDiskUnregister
                0x0000000000006326      0x437 /tmp/ccx7vo1Q.ltrans6.ltrans.o
                0x0000000000006326                RamDiskUnregister
 .text.CompareMem
                0x000000000000675d       0xd4 /tmp/ccx7vo1Q.ltrans6.ltrans.o
                0x000000000000675d                CompareMem
 .text.RamDiskRegister
                0x0000000000006831      0x38e /tmp/ccx7vo1Q.ltrans6.ltrans.o
                0x0000000000006831                RamDiskRegister
 .text.ZeroMem  0x0000000000006bbf       0x6f /tmp/ccx7vo1Q.ltrans6.ltrans.o
                0x0000000000006bbf                ZeroMem
 .text.ProcessLibraryDestructorList
                0x0000000000006c2e       0xe6 /tmp/ccx7vo1Q.ltrans6.ltrans.o
                0x0000000000006c2e                ProcessLibraryDestructorList
 .text.UefiLibGetStringWidth
                0x0000000000006d14       0x71 /tmp/ccx7vo1Q.ltrans7.ltrans.o
                0x0000000000006d14                UefiLibGetStringWidth
 .text.DevicePathFromHandle
                0x0000000000006d85       0x35 /tmp/ccx7vo1Q.ltrans7.ltrans.o
                0x0000000000006d85                DevicePathFromHandle
 .text.DuplicateDevicePath
                0x0000000000006dba        0xd /tmp/ccx7vo1Q.ltrans7.ltrans.o
                0x0000000000006dba                DuplicateDevicePath
 .text.AllocateZeroPool
                0x0000000000006dc7       0x27 /tmp/ccx7vo1Q.ltrans7.ltrans.o
                0x0000000000006dc7                AllocateZeroPool
 .text.PlatformDebugLibIoPortFound
                0x0000000000006dee       0x26 /tmp/ccx7vo1Q.ltrans7.ltrans.o
                0x0000000000006dee                PlatformDebugLibIoPortFound
 .text.DebugPrintEnabled
                0x0000000000006e14        0x3 /tmp/ccx7vo1Q.ltrans7.ltrans.o
                0x0000000000006e14                DebugPrintEnabled
 .text.DebugAssertEnabled
                0x0000000000006e17        0x3 /tmp/ccx7vo1Q.ltrans7.ltrans.o
                0x0000000000006e17                DebugAssertEnabled
 .text.DebugAssert
                0x0000000000006e1a       0x6a /tmp/ccx7vo1Q.ltrans7.ltrans.o
                0x0000000000006e1a                DebugAssert
 .text.HiiRemovePackages
                0x0000000000006e84       0x8c /tmp/ccx7vo1Q.ltrans7.ltrans.o
                0x0000000000006e84                HiiRemovePackages
 .text.DevicePathNodeLength
                0x0000000000006f10       0x40 /tmp/ccx7vo1Q.ltrans7.ltrans.o
                0x0000000000006f10                DevicePathNodeLength
 .text.NextDevicePathNode
                0x0000000000006f50       0x3f /tmp/ccx7vo1Q.ltrans7.ltrans.o
                0x0000000000006f50                NextDevicePathNode
 .text.DevicePathSubType
                0x0000000000006f8f       0x37 /tmp/ccx7vo1Q.ltrans7.ltrans.o
                0x0000000000006f8f                DevicePathSubType
 .text.DevicePathType
                0x0000000000006fc6       0x36 /tmp/ccx7vo1Q.ltrans7.ltrans.o
                0x0000000000006fc6                DevicePathType
 .text.IsDevicePathEnd
                0x0000000000006ffc       0x6b /tmp/ccx7vo1Q.ltrans7.ltrans.o
                0x0000000000006ffc                IsDevicePathEnd
 .text.FreePool
                0x0000000000007067       0x5a /tmp/ccx7vo1Q.ltrans7.ltrans.o
                0x0000000000007067                FreePool
 .text.InternalHiiCreateOpCodeExtended
                0x00000000000070c1      0x1ac /tmp/ccx7vo1Q.ltrans7.ltrans.o
                0x00000000000070c1                InternalHiiCreateOpCodeExtended
 .text.HiiFreeOpCodeHandle
                0x000000000000726d       0x48 /tmp/ccx7vo1Q.ltrans7.ltrans.o
                0x000000000000726d                HiiFreeOpCodeHandle
 .text.HiiAllocateOpCodeHandle
                0x00000000000072b5       0x52 /tmp/ccx7vo1Q.ltrans7.ltrans.o
                0x00000000000072b5                HiiAllocateOpCodeHandle
 .text.HiiAddPackages
                0x0000000000007307      0x12a /tmp/ccx7vo1Q.ltrans7.ltrans.o
                0x0000000000007307                HiiAddPackages
 .text.FileDevicePath
                0x0000000000007431      0x103 /tmp/ccx7vo1Q.ltrans7.ltrans.o
                0x0000000000007431                FileDevicePath
 .text.LibExtractConfig
                0x0000000000007534       0x23 /tmp/ccx7vo1Q.ltrans8.ltrans.o
                0x0000000000007534                LibExtractConfig
 .text.LibRouteConfig
                0x0000000000007557        0x5 /tmp/ccx7vo1Q.ltrans8.ltrans.o
                0x0000000000007557                LibRouteConfig
 .text.LibDestroyMenuEntry
                0x000000000000755c       0xa0 /tmp/ccx7vo1Q.ltrans8.ltrans.o
                0x000000000000755c                LibDestroyMenuEntry
 .text.LibGetMenuEntry
                0x00000000000075fc       0x94 /tmp/ccx7vo1Q.ltrans8.ltrans.o
                0x00000000000075fc                LibGetMenuEntry
 .text.LibCreateMenuEntry
                0x0000000000007690       0x58 /tmp/ccx7vo1Q.ltrans8.ltrans.o
                0x0000000000007690                LibCreateMenuEntry
 .text.LibCallback
                0x00000000000076e8      0x5eb /tmp/ccx7vo1Q.ltrans8.ltrans.o
                0x00000000000076e8                LibCallback
 .text.BasePrintLibSPrint.constprop.35
                0x0000000000007cd3       0x29 /tmp/ccx7vo1Q.ltrans9.ltrans.o
                0x0000000000007cd3                BasePrintLibSPrint.constprop.35
 *fill*         0x0000000000007cfc        0x4 
 .text          0x0000000000007d00       0x1d /home/hcj/UEFIWorkspace/Build/OvmfX64/DEBUG_GCC5/X64/MdePkg/Library/BaseMemoryLibRepStr/BaseMemoryLibRepStr/OUTPUT/BaseMemoryLibRepStr.lib(CompareMem.obj)
                0x0000000000007d00                InternalMemCompareMem
 *fill*         0x0000000000007d1d        0x3 
 .text          0x0000000000007d20       0x1d /home/hcj/UEFIWorkspace/Build/OvmfX64/DEBUG_GCC5/X64/MdePkg/Library/BaseMemoryLibRepStr/BaseMemoryLibRepStr/OUTPUT/BaseMemoryLibRepStr.lib(ZeroMem.obj)
                0x0000000000007d20                InternalMemZeroMem
 *fill*         0x0000000000007d3d        0x3 
 .text          0x0000000000007d40       0x12 /home/hcj/UEFIWorkspace/Build/OvmfX64/DEBUG_GCC5/X64/MdePkg/Library/BaseMemoryLibRepStr/BaseMemoryLibRepStr/OUTPUT/BaseMemoryLibRepStr.lib(SetMem16.obj)
                0x0000000000007d40                InternalMemSetMem16
 *fill*         0x0000000000007d52        0xe 
 .text          0x0000000000007d60       0x3c /home/hcj/UEFIWorkspace/Build/OvmfX64/DEBUG_GCC5/X64/MdePkg/Library/BaseMemoryLibRepStr/BaseMemoryLibRepStr/OUTPUT/BaseMemoryLibRepStr.lib(CopyMem.obj)
                0x0000000000007d60                InternalMemCopyMem
 *fill*         0x0000000000007d9c        0x4 
 .text          0x0000000000007da0       0x2a /home/hcj/UEFIWorkspace/Build/OvmfX64/DEBUG_GCC5/X64/MdePkg/Library/BaseMemoryLibRepStr/BaseMemoryLibRepStr/OUTPUT/BaseMemoryLibRepStr.lib(IsZeroBuffer.obj)
                0x0000000000007da0                InternalMemIsZeroBuffer
 *fill*         0x0000000000007dca        0x6 
 .text          0x0000000000007dd0      0x116 /home/hcj/UEFIWorkspace/Build/OvmfX64/DEBUG_GCC5/X64/MdePkg/Library/BaseIoLibIntrinsic/BaseIoLibIntrinsicSev/OUTPUT/BaseIoLibIntrinsicSev.lib(IoFifoSev.obj)
                0x0000000000007dd0                SevNoRepIo
                0x0000000000007e10                IoReadFifo8
                0x0000000000007e32                IoReadFifo16
                0x0000000000007e58                IoReadFifo32
                0x0000000000007e7b                IoWriteFifo8
                0x0000000000007e9d                IoWriteFifo16
                0x0000000000007ec3                IoWriteFifo32
 *(.rodata .rodata.* .gnu.linkonce.r.*)
 .rodata.str1.1
                0x0000000000007ee6      0x4c5 /tmp/ccx7vo1Q.ltrans0.ltrans.o
                                        0x4f8 (size before relaxing)
 *fill*         0x00000000000083ab        0x1 
 .rodata.str2.2
                0x00000000000083ac      0x212 /tmp/ccx7vo1Q.ltrans0.ltrans.o
                                        0x214 (size before relaxing)
 .rodata._gPcd_FixedAtBuild_PcdAcpiDefaultOemId
                0x00000000000085be        0x7 /tmp/ccx7vo1Q.ltrans0.ltrans.o
 .rodata.str1.1
                0x00000000000085c5      0x4b7 /tmp/ccx7vo1Q.ltrans1.ltrans.o
                                        0x521 (size before relaxing)
 .rodata.str2.2
                0x0000000000008a7c      0x212 /tmp/ccx7vo1Q.ltrans1.ltrans.o
                                          0x8 (size before relaxing)
 *fill*         0x0000000000008a7c        0x4 
 .rodata.__FUNCTION__.2529
                0x0000000000008a80        0x9 /tmp/ccx7vo1Q.ltrans1.ltrans.o
 .rodata.str1.1
                0x0000000000008a89      0x4ba /tmp/ccx7vo1Q.ltrans2.ltrans.o
                                        0x628 (size before relaxing)
 *fill*         0x0000000000008f43        0x1 
 .rodata._gUefiDriverRevision
                0x0000000000008f44        0x4 /tmp/ccx7vo1Q.ltrans2.ltrans.o
                0x0000000000008f44                _gPcd_FixedAtBuild_PcdMaximumLinkedListLength
                0x0000000000008f44                _gUefiDriverRevision
                0x0000000000008f44                _gPcd_FixedAtBuild_PcdControlFlowEnforcementPropertyMask
 .rodata.str1.1
                0x0000000000008f48      0x5d1 /tmp/ccx7vo1Q.ltrans3.ltrans.o
                                        0x7f0 (size before relaxing)
 *fill*         0x0000000000009519        0x7 
 .rodata.__FUNCTION__.2518
                0x0000000000009520        0x8 /tmp/ccx7vo1Q.ltrans3.ltrans.o
 .rodata.__FUNCTION__.2541
                0x0000000000009528        0x8 /tmp/ccx7vo1Q.ltrans3.ltrans.o
 .rodata.str1.1
                0x0000000000009530      0x2a0 /tmp/ccx7vo1Q.ltrans4.ltrans.o
                                        0x2b7 (size before relaxing)
 .rodata.mHexStr
                0x00000000000097d0       0x10 /tmp/ccx7vo1Q.ltrans4.ltrans.o
 .rodata.mWarningString
                0x00000000000097e0       0x96 /tmp/ccx7vo1Q.ltrans4.ltrans.o
 *fill*         0x0000000000009876        0xa 
 .rodata.mErrorString
                0x0000000000009880      0x2b5 /tmp/ccx7vo1Q.ltrans4.ltrans.o
 *fill*         0x0000000000009b35        0x3 
 .rodata._gPcd_FixedAtBuild_PcdMaximumUnicodeStringLength
                0x0000000000009b38        0x4 /tmp/ccx7vo1Q.ltrans4.ltrans.o
                0x0000000000009b38                _gPcd_FixedAtBuild_PcdMaximumAsciiStringLength
                0x0000000000009b38                _gPcd_FixedAtBuild_PcdMaximumUnicodeStringLength
 .rodata.str1.1
                0x0000000000009b3c       0x43 /tmp/ccx7vo1Q.ltrans5.ltrans.o
                                        0x16d (size before relaxing)
 *fill*         0x0000000000009b7f        0x1 
 .rodata.str2.2
                0x0000000000009b80       0x1a /tmp/ccx7vo1Q.ltrans5.ltrans.o
                                         0x1e (size before relaxing)
 .rodata.str1.1
                0x0000000000009b9a      0x130 /tmp/ccx7vo1Q.ltrans6.ltrans.o
                                        0x346 (size before relaxing)
 .rodata.str1.1
                0x0000000000009cca       0xc0 /tmp/ccx7vo1Q.ltrans7.ltrans.o
                                        0x26e (size before relaxing)
 .rodata.mUefiDevicePathLibEndDevicePath
                0x0000000000009d8a        0x4 /tmp/ccx7vo1Q.ltrans7.ltrans.o
 .rodata.mEndOfPakageList
                0x0000000000009d8e        0x4 /tmp/ccx7vo1Q.ltrans7.ltrans.o
 .rodata.str1.1
                0x0000000000009d92       0x56 /tmp/ccx7vo1Q.ltrans8.ltrans.o
                                        0x110 (size before relaxing)
 .rodata.str2.2
                0x0000000000009de8        0xa /tmp/ccx7vo1Q.ltrans8.ltrans.o
 *(.got .got.*)
 .got           0x0000000000009df2        0x0 RamDiskDriver.obj (symbol from plugin)
 .got.plt       0x0000000000009df2        0x0 RamDiskDriver.obj (symbol from plugin)
 *:AutoGen.obj(.data.g*Guid)

.plt            0x0000000000009e00        0x0
 .plt           0x0000000000009e00        0x0 RamDiskDriver.obj (symbol from plugin)

.plt.got        0x0000000000009df8        0x0
 .plt.got       0x0000000000009df8        0x0 RamDiskDriver.obj (symbol from plugin)

.data           0x0000000000009e00     0x15a8
 *(.data .data.* .gnu.linkonce.d.*)
 .data.gEfiAcpiSdtProtocolGuid
                0x0000000000009e00       0x10 /tmp/ccx7vo1Q.ltrans0.ltrans.o
 .data.gEfiAcpiTableProtocolGuid
                0x0000000000009e10       0x10 /tmp/ccx7vo1Q.ltrans0.ltrans.o
 .data.gEfiFileInfoGuid
                0x0000000000009e20       0x10 /tmp/ccx7vo1Q.ltrans0.ltrans.o
 .data.gEfiVirtualDiskGuid
                0x0000000000009e30       0x10 /tmp/ccx7vo1Q.ltrans0.ltrans.o
 .data.gEfiDevicePathToTextProtocolGuid
                0x0000000000009e40       0x10 /tmp/ccx7vo1Q.ltrans0.ltrans.o
 .data.gEfiFileSystemVolumeLabelInfoIdGuid
                0x0000000000009e50       0x10 /tmp/ccx7vo1Q.ltrans0.ltrans.o
 .data.gEfiFirmwareVolume2ProtocolGuid
                0x0000000000009e60       0x10 /tmp/ccx7vo1Q.ltrans0.ltrans.o
 .data.gEfiIfrTianoGuid
                0x0000000000009e70       0x10 /tmp/ccx7vo1Q.ltrans1.ltrans.o
                0x0000000000009e70                gEfiIfrTianoGuid
 .data.gEfiBlockIo2ProtocolGuid
                0x0000000000009e80       0x10 /tmp/ccx7vo1Q.ltrans2.ltrans.o
                0x0000000000009e80                gEfiBlockIo2ProtocolGuid
 .data.gEfiBlockIoProtocolGuid
                0x0000000000009e90       0x10 /tmp/ccx7vo1Q.ltrans2.ltrans.o
                0x0000000000009e90                gEfiBlockIoProtocolGuid
 .data.gEfiEventReadyToBootGuid
                0x0000000000009ea0       0x10 /tmp/ccx7vo1Q.ltrans2.ltrans.o
 *fill*         0x0000000000009eb0       0x10 
 .data.RamDiskHiiBin
                0x0000000000009ec0      0x147 /tmp/ccx7vo1Q.ltrans2.ltrans.o
 *fill*         0x000000000000a007       0x19 
 .data.RamDiskDxeStrings
                0x000000000000a020      0x53d /tmp/ccx7vo1Q.ltrans2.ltrans.o
 *fill*         0x000000000000a55d        0x3 
 .data.gRamDiskFormSetGuid
                0x000000000000a560       0x10 /tmp/ccx7vo1Q.ltrans2.ltrans.o
                0x000000000000a560                gRamDiskFormSetGuid
 .data.mRamDiskHiiVendorDevicePath
                0x000000000000a570       0x18 /tmp/ccx7vo1Q.ltrans2.ltrans.o
                0x000000000000a570                mRamDiskHiiVendorDevicePath
 *fill*         0x000000000000a588        0x8 
 .data.rel.local.mRamDiskProtocol
                0x000000000000a590       0x10 /tmp/ccx7vo1Q.ltrans2.ltrans.o
 .data.rel.local.mRamDiskConfigPrivateDataTemplate
                0x000000000000a5a0       0x40 /tmp/ccx7vo1Q.ltrans2.ltrans.o
 .data.gEfiRamDiskProtocolGuid
                0x000000000000a5e0       0x10 /tmp/ccx7vo1Q.ltrans2.ltrans.o
 .data.gEfiDevicePathUtilitiesProtocolGuid
                0x000000000000a5f0       0x10 /tmp/ccx7vo1Q.ltrans2.ltrans.o
 .data.gEfiHiiImageProtocolGuid
                0x000000000000a600       0x10 /tmp/ccx7vo1Q.ltrans2.ltrans.o
 .data.gEfiHiiFontProtocolGuid
                0x000000000000a610       0x10 /tmp/ccx7vo1Q.ltrans2.ltrans.o
 .data.gEfiHiiConfigRoutingProtocolGuid
                0x000000000000a620       0x10 /tmp/ccx7vo1Q.ltrans2.ltrans.o
 .data.gEfiHiiDatabaseProtocolGuid
                0x000000000000a630       0x10 /tmp/ccx7vo1Q.ltrans2.ltrans.o
 .data.gEfiHiiStringProtocolGuid
                0x000000000000a640       0x10 /tmp/ccx7vo1Q.ltrans2.ltrans.o
 .data.gEfiHobListGuid
                0x000000000000a650       0x10 /tmp/ccx7vo1Q.ltrans2.ltrans.o
 .data.gEfiFormBrowser2ProtocolGuid
                0x000000000000a660       0x10 /tmp/ccx7vo1Q.ltrans2.ltrans.o
 *fill*         0x000000000000a670       0x10 
 .data.FileExplorerLibStrings
                0x000000000000a680      0x81a /tmp/ccx7vo1Q.ltrans2.ltrans.o
 *fill*         0x000000000000ae9a        0x6 
 .data.FileExplorerVfrBin
                0x000000000000aea0       0xf9 /tmp/ccx7vo1Q.ltrans2.ltrans.o
 *fill*         0x000000000000af99        0x7 
 .data.gEfiHiiConfigAccessProtocolGuid
                0x000000000000afa0       0x10 /tmp/ccx7vo1Q.ltrans2.ltrans.o
                0x000000000000afa0                gEfiHiiConfigAccessProtocolGuid
 .data.gEfiDevicePathProtocolGuid
                0x000000000000afb0       0x10 /tmp/ccx7vo1Q.ltrans2.ltrans.o
                0x000000000000afb0                gEfiDevicePathProtocolGuid
 .data.gEfiCallerIdGuid
                0x000000000000afc0       0x10 /tmp/ccx7vo1Q.ltrans2.ltrans.o
                0x000000000000afc0                gEfiCallerIdGuid
 .data.FeHiiVendorDevicePath
                0x000000000000afd0       0x18 /tmp/ccx7vo1Q.ltrans2.ltrans.o
 *fill*         0x000000000000afe8        0x8 
 .data.gEfiLoadedImageProtocolGuid
                0x000000000000aff0       0x10 /tmp/ccx7vo1Q.ltrans2.ltrans.o
                0x000000000000aff0                gEfiLoadedImageProtocolGuid
 .data.mFsOptionMenu
                0x000000000000b000       0x28 /tmp/ccx7vo1Q.ltrans5.ltrans.o
 *fill*         0x000000000000b028        0x8 
 .data.gEfiSimpleFileSystemProtocolGuid
                0x000000000000b030       0x10 /tmp/ccx7vo1Q.ltrans5.ltrans.o
                0x000000000000b030                gEfiSimpleFileSystemProtocolGuid
 .data.FileExplorerGuid
                0x000000000000b040       0x10 /tmp/ccx7vo1Q.ltrans5.ltrans.o
                0x000000000000b040                FileExplorerGuid
 .data.mNewFolderQuestionId
                0x000000000000b050        0x8 /tmp/ccx7vo1Q.ltrans5.ltrans.o
 .data.mNewFileQuestionId
                0x000000000000b058        0x8 /tmp/ccx7vo1Q.ltrans5.ltrans.o
 .data.rel.local.gFileExplorerPrivate
                0x000000000000b060       0x58 /tmp/ccx7vo1Q.ltrans5.ltrans.o
                0x000000000000b060                gFileExplorerPrivate
 *fill*         0x000000000000b0b8        0x8 
 .data.gEfiGlobalVariableGuid
                0x000000000000b0c0       0x10 /tmp/ccx7vo1Q.ltrans5.ltrans.o
 *fill*         0x000000000000b0d0       0x10 
 .data.rel.local.mRamDiskBlockIo2Template
                0x000000000000b0e0       0x28 /tmp/ccx7vo1Q.ltrans6.ltrans.o
 *fill*         0x000000000000b108       0x18 
 .data.rel.local.mRamDiskBlockIoTemplate
                0x000000000000b120       0x30 /tmp/ccx7vo1Q.ltrans6.ltrans.o
 *fill*         0x000000000000b150       0x10 
 .data.mRamDiskDeviceNodeTemplate
                0x000000000000b160       0x26 /tmp/ccx7vo1Q.ltrans6.ltrans.o
 *fill*         0x000000000000b186       0x1a 
 .data.mRamDiskPrivateDataTemplate
                0x000000000000b1a0       0xe0 /tmp/ccx7vo1Q.ltrans6.ltrans.o
 .data.rel.ro   0x000000000000b280        0x0 RamDiskDriver.obj (symbol from plugin)
 *(.bss .bss.*)
 .bss.gHiiString
                0x000000000000b280        0x8 /tmp/ccx7vo1Q.ltrans1.ltrans.o
                0x000000000000b280                gHiiString
 .bss.gHiiDatabase
                0x000000000000b288        0x8 /tmp/ccx7vo1Q.ltrans1.ltrans.o
                0x000000000000b288                gHiiDatabase
 .bss.gST       0x000000000000b290        0x8 /tmp/ccx7vo1Q.ltrans1.ltrans.o
                0x000000000000b290                gST
 .bss.mRamDiskHandle
                0x000000000000b298        0x8 /tmp/ccx7vo1Q.ltrans2.ltrans.o
 .bss.RegisteredRamDisks
                0x000000000000b2a0       0x10 /tmp/ccx7vo1Q.ltrans2.ltrans.o
                0x000000000000b2a0                RegisteredRamDisks
 .bss.gImageHandle
                0x000000000000b2b0        0x8 /tmp/ccx7vo1Q.ltrans2.ltrans.o
                0x000000000000b2b0                gImageHandle
 .bss.mDevicePathLibDevicePathUtilities
                0x000000000000b2b8        0x8 /tmp/ccx7vo1Q.ltrans2.ltrans.o
                0x000000000000b2b8                mDevicePathLibDevicePathUtilities
 .bss.gHiiImage
                0x000000000000b2c0        0x8 /tmp/ccx7vo1Q.ltrans2.ltrans.o
 .bss.gHiiFont  0x000000000000b2c8        0x8 /tmp/ccx7vo1Q.ltrans2.ltrans.o
 .bss.gHiiConfigRouting
                0x000000000000b2d0        0x8 /tmp/ccx7vo1Q.ltrans2.ltrans.o
 .bss.mHobList  0x000000000000b2d8        0x8 /tmp/ccx7vo1Q.ltrans2.ltrans.o
 .bss.gHiiVendorDevicePath
                0x000000000000b2e0        0x8 /tmp/ccx7vo1Q.ltrans2.ltrans.o
                0x000000000000b2e0                gHiiVendorDevicePath
 .bss.gBS       0x000000000000b2e8        0x8 /tmp/ccx7vo1Q.ltrans4.ltrans.o
                0x000000000000b2e8                gBS
 .bss.mLibEndOpCodeHandle
                0x000000000000b2f0        0x8 /tmp/ccx7vo1Q.ltrans5.ltrans.o
 .bss.mLibStartOpCodeHandle
                0x000000000000b2f8        0x8 /tmp/ccx7vo1Q.ltrans5.ltrans.o
 .bss.mQuestionIdUpdate
                0x000000000000b300        0x2 /tmp/ccx7vo1Q.ltrans5.ltrans.o
                0x000000000000b300                mQuestionIdUpdate
 *fill*         0x000000000000b302        0x6 
 .bss.gRT       0x000000000000b308        0x8 /tmp/ccx7vo1Q.ltrans5.ltrans.o
                0x000000000000b308                gRT
 .bss.mRamDiskSsdtTableKey
                0x000000000000b310        0x8 /tmp/ccx7vo1Q.ltrans6.ltrans.o
                0x000000000000b310                mRamDiskSsdtTableKey
 .bss.mRamDiskSsdtTableKeyValid
                0x000000000000b318        0x1 /tmp/ccx7vo1Q.ltrans6.ltrans.o
                0x000000000000b318                mRamDiskSsdtTableKeyValid
 *fill*         0x000000000000b319        0x7 
 .bss.mAcpiTableProtocol
                0x000000000000b320        0x8 /tmp/ccx7vo1Q.ltrans6.ltrans.o
                0x000000000000b320                mAcpiTableProtocol
 .bss.mAcpiSdtProtocol
                0x000000000000b328        0x8 /tmp/ccx7vo1Q.ltrans6.ltrans.o
                0x000000000000b328                mAcpiSdtProtocol
 .bss.mDebugIoPortFound
                0x000000000000b330        0x1 /tmp/ccx7vo1Q.ltrans7.ltrans.o
 .bss.mDebugIoPortChecked
                0x000000000000b331        0x1 /tmp/ccx7vo1Q.ltrans7.ltrans.o
 *fill*         0x000000000000b332        0xe 
 .bss.mNewFolderName
                0x000000000000b340       0x28 /tmp/ccx7vo1Q.ltrans8.ltrans.o
 *fill*         0x000000000000b368       0x18 
 .bss.mNewFileName
                0x000000000000b380       0x28 /tmp/ccx7vo1Q.ltrans8.ltrans.o

.eh_frame       0x000000000000b3c0        0x0
 *(.eh_frame)
 .eh_frame      0x000000000000b3c0        0x0 RamDiskDriver.obj (symbol from plugin)
 .eh_frame      0x000000000000b3c0        0x0 RamDiskDriver.obj (symbol from plugin)

.dynbss         0x000000000000b3c0        0x0
 .dynbss        0x000000000000b3c0        0x0 RamDiskDriver.obj (symbol from plugin)

.gnu.version_d  0x000000000000b3c0        0x0
 .gnu.version_d
                0x000000000000b3c0        0x0 RamDiskDriver.obj (symbol from plugin)

.gnu.version    0x000000000000b3c0        0x0
 .gnu.version   0x000000000000b3c0        0x0 RamDiskDriver.obj (symbol from plugin)

.gnu.version_r  0x000000000000b3c0        0x0
 .gnu.version_r
                0x000000000000b3c0        0x0 RamDiskDriver.obj (symbol from plugin)

.rela           0x000000000000b3c0      0x198
 *(.rela .rela.*)
 .rela.plt      0x000000000000b3c0        0x0 RamDiskDriver.obj (symbol from plugin)
 .rela.got      0x000000000000b3c0        0x0 RamDiskDriver.obj (symbol from plugin)
 .rela.bss      0x000000000000b3c0        0x0 RamDiskDriver.obj (symbol from plugin)
 .rela.data.rel.ro
                0x000000000000b3c0        0x0 RamDiskDriver.obj (symbol from plugin)
 .rela.ifunc    0x000000000000b3c0        0x0 RamDiskDriver.obj (symbol from plugin)
 .rela.data.rel.local.mRamDiskProtocol
                0x000000000000b3c0       0x30 RamDiskDriver.obj (symbol from plugin)
 .rela.data.rel.local.mRamDiskConfigPrivateDataTemplate
                0x000000000000b3f0       0x48 RamDiskDriver.obj (symbol from plugin)
 .rela.data.rel.local.gFileExplorerPrivate
                0x000000000000b438       0x60 RamDiskDriver.obj (symbol from plugin)
 .rela.data.rel.local.mRamDiskBlockIo2Template
                0x000000000000b498       0x60 RamDiskDriver.obj (symbol from plugin)
 .rela.data.rel.local.mRamDiskBlockIoTemplate
                0x000000000000b4f8       0x60 RamDiskDriver.obj (symbol from plugin)

.hii
 *(.hii)

.build-id       0x000000000000b558       0x24
 *(.note.gnu.build-id)
 .note.gnu.build-id
                0x000000000000b558       0x24 RamDiskDriver.obj (symbol from plugin)

/DISCARD/
 *(.note.GNU-stack)
 *(.gnu_debuglink)
 *(.interp)
 *(.dynsym)
 *(.dynstr)
 *(.dynamic)
 *(.hash .gnu.hash)
 *(.comment)
OUTPUT(/home/hcj/UEFIWorkspace/Build/OvmfX64/DEBUG_GCC5/X64/MdeModulePkg/Universal/Disk/RamDiskDxe/RamDiskDxe/DEBUG/RamDiskDxe.dll elf64-x86-64)

.debug_info     0x0000000000000000    0x18cad
 .debug_info    0x0000000000000000     0x52ff /tmp/ccx7vo1Q.ltrans0.ltrans.o
 .debug_info    0x00000000000052ff     0x36df /tmp/ccx7vo1Q.ltrans1.ltrans.o
 .debug_info    0x00000000000089de     0x45ea /tmp/ccx7vo1Q.ltrans2.ltrans.o
 .debug_info    0x000000000000cfc8     0x1a2f /tmp/ccx7vo1Q.ltrans3.ltrans.o
 .debug_info    0x000000000000e9f7     0x1b31 /tmp/ccx7vo1Q.ltrans4.ltrans.o
 .debug_info    0x0000000000010528     0x245f /tmp/ccx7vo1Q.ltrans5.ltrans.o
 .debug_info    0x0000000000012987     0x31f1 /tmp/ccx7vo1Q.ltrans6.ltrans.o
 .debug_info    0x0000000000015b78     0x1821 /tmp/ccx7vo1Q.ltrans7.ltrans.o
 .debug_info    0x0000000000017399     0x17b9 /tmp/ccx7vo1Q.ltrans8.ltrans.o
 .debug_info    0x0000000000018b52      0x15b /tmp/ccx7vo1Q.ltrans9.ltrans.o

.debug_abbrev   0x0000000000000000     0x2066
 .debug_abbrev  0x0000000000000000      0x4b1 /tmp/ccx7vo1Q.ltrans0.ltrans.o
 .debug_abbrev  0x00000000000004b1      0x31c /tmp/ccx7vo1Q.ltrans1.ltrans.o
 .debug_abbrev  0x00000000000007cd      0x3f1 /tmp/ccx7vo1Q.ltrans2.ltrans.o
 .debug_abbrev  0x0000000000000bbe      0x39e /tmp/ccx7vo1Q.ltrans3.ltrans.o
 .debug_abbrev  0x0000000000000f5c      0x282 /tmp/ccx7vo1Q.ltrans4.ltrans.o
 .debug_abbrev  0x00000000000011de      0x336 /tmp/ccx7vo1Q.ltrans5.ltrans.o
 .debug_abbrev  0x0000000000001514      0x396 /tmp/ccx7vo1Q.ltrans6.ltrans.o
 .debug_abbrev  0x00000000000018aa      0x3da /tmp/ccx7vo1Q.ltrans7.ltrans.o
 .debug_abbrev  0x0000000000001c84      0x31c /tmp/ccx7vo1Q.ltrans8.ltrans.o
 .debug_abbrev  0x0000000000001fa0       0xc6 /tmp/ccx7vo1Q.ltrans9.ltrans.o

.debug_loc      0x0000000000000000     0xc754
 .debug_loc     0x0000000000000000     0x26d6 /tmp/ccx7vo1Q.ltrans0.ltrans.o
 .debug_loc     0x00000000000026d6     0x17bb /tmp/ccx7vo1Q.ltrans1.ltrans.o
 .debug_loc     0x0000000000003e91      0xd3a /tmp/ccx7vo1Q.ltrans2.ltrans.o
 .debug_loc     0x0000000000004bcb     0x19b2 /tmp/ccx7vo1Q.ltrans3.ltrans.o
 .debug_loc     0x000000000000657d     0x1ae0 /tmp/ccx7vo1Q.ltrans4.ltrans.o
 .debug_loc     0x000000000000805d     0x11ea /tmp/ccx7vo1Q.ltrans5.ltrans.o
 .debug_loc     0x0000000000009247     0x124d /tmp/ccx7vo1Q.ltrans6.ltrans.o
 .debug_loc     0x000000000000a494      0xfb7 /tmp/ccx7vo1Q.ltrans7.ltrans.o
 .debug_loc     0x000000000000b44b     0x1212 /tmp/ccx7vo1Q.ltrans8.ltrans.o
 .debug_loc     0x000000000000c65d       0xf7 /tmp/ccx7vo1Q.ltrans9.ltrans.o

.debug_aranges  0x0000000000000000      0x730
 .debug_aranges
                0x0000000000000000      0x110 /tmp/ccx7vo1Q.ltrans0.ltrans.o
 .debug_aranges
                0x0000000000000110       0xa0 /tmp/ccx7vo1Q.ltrans1.ltrans.o
 .debug_aranges
                0x00000000000001b0       0x50 /tmp/ccx7vo1Q.ltrans2.ltrans.o
 .debug_aranges
                0x0000000000000200      0x1d0 /tmp/ccx7vo1Q.ltrans3.ltrans.o
 .debug_aranges
                0x00000000000003d0       0x60 /tmp/ccx7vo1Q.ltrans4.ltrans.o
 .debug_aranges
                0x0000000000000430       0x90 /tmp/ccx7vo1Q.ltrans5.ltrans.o
 .debug_aranges
                0x00000000000004c0       0x70 /tmp/ccx7vo1Q.ltrans6.ltrans.o
 .debug_aranges
                0x0000000000000530      0x170 /tmp/ccx7vo1Q.ltrans7.ltrans.o
 .debug_aranges
                0x00000000000006a0       0x60 /tmp/ccx7vo1Q.ltrans8.ltrans.o
 .debug_aranges
                0x0000000000000700       0x30 /tmp/ccx7vo1Q.ltrans9.ltrans.o

.debug_ranges   0x0000000000000000     0x1c70
 .debug_ranges  0x0000000000000000      0x700 /tmp/ccx7vo1Q.ltrans0.ltrans.o
 .debug_ranges  0x0000000000000700      0x220 /tmp/ccx7vo1Q.ltrans1.ltrans.o
 .debug_ranges  0x0000000000000920      0x3a0 /tmp/ccx7vo1Q.ltrans2.ltrans.o
 .debug_ranges  0x0000000000000cc0      0x300 /tmp/ccx7vo1Q.ltrans3.ltrans.o
 .debug_ranges  0x0000000000000fc0       0xb0 /tmp/ccx7vo1Q.ltrans4.ltrans.o
 .debug_ranges  0x0000000000001070      0x2d0 /tmp/ccx7vo1Q.ltrans5.ltrans.o
 .debug_ranges  0x0000000000001340      0x2e0 /tmp/ccx7vo1Q.ltrans6.ltrans.o
 .debug_ranges  0x0000000000001620      0x360 /tmp/ccx7vo1Q.ltrans7.ltrans.o
 .debug_ranges  0x0000000000001980      0x2d0 /tmp/ccx7vo1Q.ltrans8.ltrans.o
 .debug_ranges  0x0000000000001c50       0x20 /tmp/ccx7vo1Q.ltrans9.ltrans.o

.debug_line     0x0000000000000000     0x4a08
 .debug_line    0x0000000000000000      0xd5c /tmp/ccx7vo1Q.ltrans0.ltrans.o
 .debug_line    0x0000000000000d5c      0x87b /tmp/ccx7vo1Q.ltrans1.ltrans.o
 .debug_line    0x00000000000015d7      0x9ce /tmp/ccx7vo1Q.ltrans2.ltrans.o
 .debug_line    0x0000000000001fa5      0x6cc /tmp/ccx7vo1Q.ltrans3.ltrans.o
 .debug_line    0x0000000000002671      0x6b0 /tmp/ccx7vo1Q.ltrans4.ltrans.o
 .debug_line    0x0000000000002d21      0x714 /tmp/ccx7vo1Q.ltrans5.ltrans.o
 .debug_line    0x0000000000003435      0x7ab /tmp/ccx7vo1Q.ltrans6.ltrans.o
 .debug_line    0x0000000000003be0      0x843 /tmp/ccx7vo1Q.ltrans7.ltrans.o
 .debug_line    0x0000000000004423      0x4e1 /tmp/ccx7vo1Q.ltrans8.ltrans.o
 .debug_line    0x0000000000004904      0x104 /tmp/ccx7vo1Q.ltrans9.ltrans.o

.debug_str      0x0000000000000000     0x5120
 .debug_str     0x0000000000000000     0x2442 /tmp/ccx7vo1Q.ltrans0.ltrans.o
                                       0x291f (size before relaxing)
 .debug_str     0x0000000000002442      0x813 /tmp/ccx7vo1Q.ltrans1.ltrans.o
                                       0x1e14 (size before relaxing)
 .debug_str     0x0000000000002c55      0xfba /tmp/ccx7vo1Q.ltrans2.ltrans.o
                                       0x2adc (size before relaxing)
 .debug_str     0x0000000000003c0f      0x3f0 /tmp/ccx7vo1Q.ltrans3.ltrans.o
                                        0x7d3 (size before relaxing)
 .debug_str     0x0000000000003fff      0x2d7 /tmp/ccx7vo1Q.ltrans4.ltrans.o
                                       0x10de (size before relaxing)
 .debug_str     0x00000000000042d6      0x442 /tmp/ccx7vo1Q.ltrans5.ltrans.o
                                       0x122b (size before relaxing)
 .debug_str     0x0000000000004718      0x4a0 /tmp/ccx7vo1Q.ltrans6.ltrans.o
                                       0x1e24 (size before relaxing)
 .debug_str     0x0000000000004bb8      0x3bd /tmp/ccx7vo1Q.ltrans7.ltrans.o
                                        0xa51 (size before relaxing)
 .debug_str     0x0000000000004f75      0x178 /tmp/ccx7vo1Q.ltrans8.ltrans.o
                                        0xa41 (size before relaxing)
 .debug_str     0x00000000000050ed       0x33 /tmp/ccx7vo1Q.ltrans9.ltrans.o
                                        0x28d (size before relaxing)

.debug_frame    0x0000000000000000     0x1d18
 .debug_frame   0x0000000000000000      0x6b0 /tmp/ccx7vo1Q.ltrans0.ltrans.o
 .debug_frame   0x00000000000006b0      0x298 /tmp/ccx7vo1Q.ltrans1.ltrans.o
 .debug_frame   0x0000000000000948      0x108 /tmp/ccx7vo1Q.ltrans2.ltrans.o
 .debug_frame   0x0000000000000a50      0x5b0 /tmp/ccx7vo1Q.ltrans3.ltrans.o
 .debug_frame   0x0000000000001000      0x1f8 /tmp/ccx7vo1Q.ltrans4.ltrans.o
 .debug_frame   0x00000000000011f8      0x3b0 /tmp/ccx7vo1Q.ltrans5.ltrans.o
 .debug_frame   0x00000000000015a8      0x1a0 /tmp/ccx7vo1Q.ltrans6.ltrans.o
 .debug_frame   0x0000000000001748      0x3f8 /tmp/ccx7vo1Q.ltrans7.ltrans.o
 .debug_frame   0x0000000000001b40      0x190 /tmp/ccx7vo1Q.ltrans8.ltrans.o
 .debug_frame   0x0000000000001cd0       0x48 /tmp/ccx7vo1Q.ltrans9.ltrans.o
